
delay:     file format elf32-littleriscv


Disassembly of section .init:

00000000 <_start>:
   0:	10001197          	auipc	gp,0x10001
   4:	82818193          	addi	gp,gp,-2008 # 10000828 <__global_pointer$>
   8:	10008117          	auipc	sp,0x10008
   c:	ff810113          	addi	sp,sp,-8 # 10008000 <__freertos_irq_stack_top>
  10:	00000d13          	li	s10,0
  14:	00000d93          	li	s11,0
  18:	6dc00513          	li	a0,1756
  1c:	10000597          	auipc	a1,0x10000
  20:	fe458593          	addi	a1,a1,-28 # 10000000 <_data>
  24:	10000617          	auipc	a2,0x10000
  28:	00460613          	addi	a2,a2,4 # 10000028 <__bss_start>
  2c:	00c5fc63          	bgeu	a1,a2,44 <_start+0x44>
  30:	00052283          	lw	t0,0(a0)
  34:	0055a023          	sw	t0,0(a1)
  38:	00450513          	addi	a0,a0,4
  3c:	00458593          	addi	a1,a1,4
  40:	fec5e8e3          	bltu	a1,a2,30 <_start+0x30>
  44:	10000517          	auipc	a0,0x10000
  48:	fe450513          	addi	a0,a0,-28 # 10000028 <__bss_start>
  4c:	81018593          	addi	a1,gp,-2032 # 10000038 <_end>
  50:	00b57863          	bgeu	a0,a1,60 <_start+0x60>
  54:	00052023          	sw	zero,0(a0)
  58:	00450513          	addi	a0,a0,4
  5c:	feb56ce3          	bltu	a0,a1,54 <_start+0x54>
  60:	264000ef          	jal	ra,2c4 <_init>
  64:	00c000ef          	jal	ra,70 <main>
  68:	00100d13          	li	s10,1

0000006c <loop>:
  6c:	0000006f          	j	6c <loop>

Disassembly of section .text:

00000070 <main>:
  70:	fd010113          	addi	sp,sp,-48
  74:	03212023          	sw	s2,32(sp)
  78:	10000937          	lui	s2,0x10000
  7c:	02112623          	sw	ra,44(sp)
  80:	02812423          	sw	s0,40(sp)
  84:	02912223          	sw	s1,36(sp)
  88:	01312e23          	sw	s3,28(sp)
  8c:	01412c23          	sw	s4,24(sp)
  90:	01512a23          	sw	s5,20(sp)
  94:	01612823          	sw	s6,16(sp)
  98:	01712623          	sw	s7,12(sp)
  9c:	02092423          	sw	zero,40(s2) # 10000028 <__bss_start>
  a0:	620000ef          	jal	ra,6c0 <uart_init>
  a4:	0007a7b7          	lui	a5,0x7a
  a8:	20000737          	lui	a4,0x20000
  ac:	12078793          	addi	a5,a5,288 # 7a120 <__stack_size+0x78120>
  b0:	00f72423          	sw	a5,8(a4) # 20000008 <__freertos_irq_stack_top+0xfff8008>
  b4:	00700793          	li	a5,7
  b8:	00f72023          	sw	a5,0(a4)
  bc:	400007b7          	lui	a5,0x40000
  c0:	0007a703          	lw	a4,0(a5) # 40000000 <__freertos_irq_stack_top+0x2fff8000>
  c4:	10000537          	lui	a0,0x10000
  c8:	00050513          	mv	a0,a0
  cc:	00276713          	ori	a4,a4,2
  d0:	00e7a023          	sw	a4,0(a5)
  d4:	0007a703          	lw	a4,0(a5)
  d8:	00000413          	li	s0,0
  dc:	02890913          	addi	s2,s2,40
  e0:	00476713          	ori	a4,a4,4
  e4:	00e7a023          	sw	a4,0(a5)
  e8:	0007a703          	lw	a4,0(a5)
  ec:	06400a13          	li	s4,100
  f0:	10000ab7          	lui	s5,0x10000
  f4:	01076713          	ori	a4,a4,16
  f8:	00e7a023          	sw	a4,0(a5)
  fc:	0007a703          	lw	a4,0(a5)
 100:	400004b7          	lui	s1,0x40000
 104:	00400b13          	li	s6,4
 108:	04076713          	ori	a4,a4,64
 10c:	00e7a023          	sw	a4,0(a5)
 110:	0007a703          	lw	a4,0(a5)
 114:	fff00b93          	li	s7,-1
 118:	00200993          	li	s3,2
 11c:	10076713          	ori	a4,a4,256
 120:	00e7a023          	sw	a4,0(a5)
 124:	220000ef          	jal	ra,344 <xprintf>
 128:	00092783          	lw	a5,0(s2)
 12c:	01479063          	bne	a5,s4,12c <main+0xbc>
 130:	014a8513          	addi	a0,s5,20 # 10000014 <_data+0x14>
 134:	210000ef          	jal	ra,344 <xprintf>
 138:	00092023          	sw	zero,0(s2)
 13c:	0044a783          	lw	a5,4(s1) # 40000004 <__freertos_irq_stack_top+0x2fff8004>
 140:	0017f793          	andi	a5,a5,1
 144:	02078863          	beqz	a5,174 <main+0x104>
 148:	fff40413          	addi	s0,s0,-1
 14c:	01741463          	bne	s0,s7,154 <main+0xe4>
 150:	00300413          	li	s0,3
 154:	0044a783          	lw	a5,4(s1)
 158:	fe17f793          	andi	a5,a5,-31
 15c:	00f4a223          	sw	a5,4(s1)
 160:	0044a703          	lw	a4,4(s1)
 164:	008997b3          	sll	a5,s3,s0
 168:	00e7e7b3          	or	a5,a5,a4
 16c:	00f4a223          	sw	a5,4(s1)
 170:	fb9ff06f          	j	128 <main+0xb8>
 174:	00140413          	addi	s0,s0,1
 178:	fd641ee3          	bne	s0,s6,154 <main+0xe4>
 17c:	00000413          	li	s0,0
 180:	fd5ff06f          	j	154 <main+0xe4>

00000184 <trap_entry>:
 184:	f8010113          	addi	sp,sp,-128
 188:	00112223          	sw	ra,4(sp)
 18c:	00212423          	sw	sp,8(sp)
 190:	00312623          	sw	gp,12(sp)
 194:	00412823          	sw	tp,16(sp)
 198:	00512a23          	sw	t0,20(sp)
 19c:	00612c23          	sw	t1,24(sp)
 1a0:	00712e23          	sw	t2,28(sp)
 1a4:	02812023          	sw	s0,32(sp)
 1a8:	02912223          	sw	s1,36(sp)
 1ac:	02a12423          	sw	a0,40(sp)
 1b0:	02b12623          	sw	a1,44(sp)
 1b4:	02c12823          	sw	a2,48(sp)
 1b8:	02d12a23          	sw	a3,52(sp)
 1bc:	02e12c23          	sw	a4,56(sp)
 1c0:	02f12e23          	sw	a5,60(sp)
 1c4:	05012023          	sw	a6,64(sp)
 1c8:	05112223          	sw	a7,68(sp)
 1cc:	05212423          	sw	s2,72(sp)
 1d0:	05312623          	sw	s3,76(sp)
 1d4:	05412823          	sw	s4,80(sp)
 1d8:	05512a23          	sw	s5,84(sp)
 1dc:	05612c23          	sw	s6,88(sp)
 1e0:	05712e23          	sw	s7,92(sp)
 1e4:	07812023          	sw	s8,96(sp)
 1e8:	07912223          	sw	s9,100(sp)
 1ec:	07c12823          	sw	t3,112(sp)
 1f0:	07d12a23          	sw	t4,116(sp)
 1f4:	07e12c23          	sw	t5,120(sp)
 1f8:	07f12e23          	sw	t6,124(sp)
 1fc:	34202573          	csrr	a0,mcause
 200:	341025f3          	csrr	a1,mepc

00000204 <test_if_asynchronous>:
 204:	01f55613          	srli	a2,a0,0x1f
 208:	00060663          	beqz	a2,214 <handle_synchronous>
 20c:	0d4000ef          	jal	ra,2e0 <trap_handler>
 210:	00c0006f          	j	21c <asynchronous_return>

00000214 <handle_synchronous>:
 214:	00458593          	addi	a1,a1,4
 218:	34159073          	csrw	mepc,a1

0000021c <asynchronous_return>:
 21c:	00412083          	lw	ra,4(sp)
 220:	00812103          	lw	sp,8(sp)
 224:	00c12183          	lw	gp,12(sp)
 228:	01012203          	lw	tp,16(sp)
 22c:	01412283          	lw	t0,20(sp)
 230:	01812303          	lw	t1,24(sp)
 234:	01c12383          	lw	t2,28(sp)
 238:	02012403          	lw	s0,32(sp)
 23c:	02412483          	lw	s1,36(sp)
 240:	02812503          	lw	a0,40(sp)
 244:	02c12583          	lw	a1,44(sp)
 248:	03012603          	lw	a2,48(sp)
 24c:	03412683          	lw	a3,52(sp)
 250:	03812703          	lw	a4,56(sp)
 254:	03c12783          	lw	a5,60(sp)
 258:	04012803          	lw	a6,64(sp)
 25c:	04412883          	lw	a7,68(sp)
 260:	04812903          	lw	s2,72(sp)
 264:	04c12983          	lw	s3,76(sp)
 268:	05012a03          	lw	s4,80(sp)
 26c:	05412a83          	lw	s5,84(sp)
 270:	05812b03          	lw	s6,88(sp)
 274:	05c12b83          	lw	s7,92(sp)
 278:	06012c03          	lw	s8,96(sp)
 27c:	06412c83          	lw	s9,100(sp)
 280:	07012e03          	lw	t3,112(sp)
 284:	07412e83          	lw	t4,116(sp)
 288:	07812f03          	lw	t5,120(sp)
 28c:	07c12f83          	lw	t6,124(sp)
 290:	08010113          	addi	sp,sp,128
 294:	30200073          	mret
 298:	0000006f          	j	298 <asynchronous_return+0x7c>

0000029c <timer0_irq_handler>:
 29c:	20000737          	lui	a4,0x20000
 2a0:	00072783          	lw	a5,0(a4) # 20000000 <__freertos_irq_stack_top+0xfff8000>
 2a4:	0057e793          	ori	a5,a5,5
 2a8:	00f72023          	sw	a5,0(a4)
 2ac:	100007b7          	lui	a5,0x10000
 2b0:	02878793          	addi	a5,a5,40 # 10000028 <__bss_start>
 2b4:	0007a703          	lw	a4,0(a5)
 2b8:	00170713          	addi	a4,a4,1
 2bc:	00e7a023          	sw	a4,0(a5)
 2c0:	00008067          	ret

000002c4 <_init>:
 2c4:	000007b7          	lui	a5,0x0
 2c8:	18478793          	addi	a5,a5,388 # 184 <trap_entry>
 2cc:	30579073          	csrw	mtvec,a5
 2d0:	000027b7          	lui	a5,0x2
 2d4:	88878793          	addi	a5,a5,-1912 # 1888 <_data_lma+0x11ac>
 2d8:	30079073          	csrw	mstatus,a5
 2dc:	00008067          	ret

000002e0 <trap_handler>:
 2e0:	fbdff06f          	j	29c <timer0_irq_handler>

000002e4 <xputc>:
 2e4:	80418793          	addi	a5,gp,-2044 # 1000002c <outptr>
 2e8:	0007a703          	lw	a4,0(a5)
 2ec:	00070a63          	beqz	a4,300 <xputc+0x1c>
 2f0:	00170613          	addi	a2,a4,1
 2f4:	00c7a023          	sw	a2,0(a5)
 2f8:	00a70023          	sb	a0,0(a4)
 2fc:	00008067          	ret
 300:	8081a303          	lw	t1,-2040(gp) # 10000030 <xfunc_out>
 304:	00030463          	beqz	t1,30c <xputc+0x28>
 308:	00030067          	jr	t1
 30c:	00008067          	ret

00000310 <xputs>:
 310:	ff010113          	addi	sp,sp,-16
 314:	00812423          	sw	s0,8(sp)
 318:	00112623          	sw	ra,12(sp)
 31c:	00050413          	mv	s0,a0
 320:	00044503          	lbu	a0,0(s0)
 324:	00051a63          	bnez	a0,338 <xputs+0x28>
 328:	00c12083          	lw	ra,12(sp)
 32c:	00812403          	lw	s0,8(sp)
 330:	01010113          	addi	sp,sp,16
 334:	00008067          	ret
 338:	00140413          	addi	s0,s0,1
 33c:	fa9ff0ef          	jal	ra,2e4 <xputc>
 340:	fe1ff06f          	j	320 <xputs+0x10>

00000344 <xprintf>:
 344:	f7010113          	addi	sp,sp,-144
 348:	06812423          	sw	s0,104(sp)
 34c:	07410413          	addi	s0,sp,116
 350:	05412c23          	sw	s4,88(sp)
 354:	05512a23          	sw	s5,84(sp)
 358:	05612823          	sw	s6,80(sp)
 35c:	05712623          	sw	s7,76(sp)
 360:	05812423          	sw	s8,72(sp)
 364:	06112623          	sw	ra,108(sp)
 368:	06912223          	sw	s1,100(sp)
 36c:	07212023          	sw	s2,96(sp)
 370:	05312e23          	sw	s3,92(sp)
 374:	05912223          	sw	s9,68(sp)
 378:	05a12023          	sw	s10,64(sp)
 37c:	03b12e23          	sw	s11,60(sp)
 380:	06b12a23          	sw	a1,116(sp)
 384:	06c12c23          	sw	a2,120(sp)
 388:	06d12e23          	sw	a3,124(sp)
 38c:	08e12023          	sw	a4,128(sp)
 390:	08f12223          	sw	a5,132(sp)
 394:	09012423          	sw	a6,136(sp)
 398:	09112623          	sw	a7,140(sp)
 39c:	00812e23          	sw	s0,28(sp)
 3a0:	02500a93          	li	s5,37
 3a4:	03000b13          	li	s6,48
 3a8:	00900a13          	li	s4,9
 3ac:	00a00b93          	li	s7,10
 3b0:	01000c13          	li	s8,16
 3b4:	00054783          	lbu	a5,0(a0) # 10000000 <_data>
 3b8:	2a078a63          	beqz	a5,66c <xprintf+0x328>
 3bc:	01578c63          	beq	a5,s5,3d4 <xprintf+0x90>
 3c0:	00150493          	addi	s1,a0,1
 3c4:	00078513          	mv	a0,a5
 3c8:	f1dff0ef          	jal	ra,2e4 <xputc>
 3cc:	00040993          	mv	s3,s0
 3d0:	1140006f          	j	4e4 <xprintf+0x1a0>
 3d4:	00154703          	lbu	a4,1(a0)
 3d8:	07671e63          	bne	a4,s6,454 <xprintf+0x110>
 3dc:	00254703          	lbu	a4,2(a0)
 3e0:	00350493          	addi	s1,a0,3
 3e4:	00100793          	li	a5,1
 3e8:	00000913          	li	s2,0
 3ec:	fd070693          	addi	a3,a4,-48
 3f0:	0ff6f693          	andi	a3,a3,255
 3f4:	08da7263          	bgeu	s4,a3,478 <xprintf+0x134>
 3f8:	0df77693          	andi	a3,a4,223
 3fc:	04c00613          	li	a2,76
 400:	00c69863          	bne	a3,a2,410 <xprintf+0xcc>
 404:	0004c703          	lbu	a4,0(s1)
 408:	0047e793          	ori	a5,a5,4
 40c:	00148493          	addi	s1,s1,1
 410:	24070e63          	beqz	a4,66c <xprintf+0x328>
 414:	06000613          	li	a2,96
 418:	00070693          	mv	a3,a4
 41c:	00e67663          	bgeu	a2,a4,428 <xprintf+0xe4>
 420:	fe070693          	addi	a3,a4,-32
 424:	0ff6f693          	andi	a3,a3,255
 428:	04f00613          	li	a2,79
 42c:	10c68263          	beq	a3,a2,530 <xprintf+0x1ec>
 430:	06d66063          	bltu	a2,a3,490 <xprintf+0x14c>
 434:	04300613          	li	a2,67
 438:	0ec68063          	beq	a3,a2,518 <xprintf+0x1d4>
 43c:	04400613          	li	a2,68
 440:	10c68e63          	beq	a3,a2,55c <xprintf+0x218>
 444:	04200613          	li	a2,66
 448:	0ec69063          	bne	a3,a2,528 <xprintf+0x1e4>
 44c:	00200893          	li	a7,2
 450:	0e40006f          	j	534 <xprintf+0x1f0>
 454:	02d00793          	li	a5,45
 458:	00f70863          	beq	a4,a5,468 <xprintf+0x124>
 45c:	00250493          	addi	s1,a0,2
 460:	00000793          	li	a5,0
 464:	f85ff06f          	j	3e8 <xprintf+0xa4>
 468:	00350493          	addi	s1,a0,3
 46c:	00254703          	lbu	a4,2(a0)
 470:	00200793          	li	a5,2
 474:	f75ff06f          	j	3e8 <xprintf+0xa4>
 478:	03790933          	mul	s2,s2,s7
 47c:	00148493          	addi	s1,s1,1
 480:	00e90933          	add	s2,s2,a4
 484:	fd090913          	addi	s2,s2,-48
 488:	fff4c703          	lbu	a4,-1(s1)
 48c:	f61ff06f          	j	3ec <xprintf+0xa8>
 490:	05500613          	li	a2,85
 494:	0cc68463          	beq	a3,a2,55c <xprintf+0x218>
 498:	05800613          	li	a2,88
 49c:	0cc68463          	beq	a3,a2,564 <xprintf+0x220>
 4a0:	05300613          	li	a2,83
 4a4:	08c69263          	bne	a3,a2,528 <xprintf+0x1e4>
 4a8:	00440993          	addi	s3,s0,4
 4ac:	00042c83          	lw	s9,0(s0)
 4b0:	00000413          	li	s0,0
 4b4:	008c8733          	add	a4,s9,s0
 4b8:	00074703          	lbu	a4,0(a4)
 4bc:	00140693          	addi	a3,s0,1
 4c0:	02071863          	bnez	a4,4f0 <xprintf+0x1ac>
 4c4:	0027fd93          	andi	s11,a5,2
 4c8:	00140d13          	addi	s10,s0,1
 4cc:	000d9663          	bnez	s11,4d8 <xprintf+0x194>
 4d0:	03246463          	bltu	s0,s2,4f8 <xprintf+0x1b4>
 4d4:	000d0413          	mv	s0,s10
 4d8:	000c8513          	mv	a0,s9
 4dc:	e35ff0ef          	jal	ra,310 <xputs>
 4e0:	03246463          	bltu	s0,s2,508 <xprintf+0x1c4>
 4e4:	00098413          	mv	s0,s3
 4e8:	00048513          	mv	a0,s1
 4ec:	ec9ff06f          	j	3b4 <xprintf+0x70>
 4f0:	00068413          	mv	s0,a3
 4f4:	fc1ff06f          	j	4b4 <xprintf+0x170>
 4f8:	02000513          	li	a0,32
 4fc:	de9ff0ef          	jal	ra,2e4 <xputc>
 500:	000d0413          	mv	s0,s10
 504:	fc5ff06f          	j	4c8 <xprintf+0x184>
 508:	02000513          	li	a0,32
 50c:	dd9ff0ef          	jal	ra,2e4 <xputc>
 510:	00140413          	addi	s0,s0,1
 514:	fcdff06f          	j	4e0 <xprintf+0x19c>
 518:	00044503          	lbu	a0,0(s0)
 51c:	00440993          	addi	s3,s0,4
 520:	dc5ff0ef          	jal	ra,2e4 <xputc>
 524:	fc1ff06f          	j	4e4 <xprintf+0x1a0>
 528:	00070513          	mv	a0,a4
 52c:	e9dff06f          	j	3c8 <xprintf+0x84>
 530:	00800893          	li	a7,8
 534:	0047f613          	andi	a2,a5,4
 538:	00440993          	addi	s3,s0,4
 53c:	02060863          	beqz	a2,56c <xprintf+0x228>
 540:	04400593          	li	a1,68
 544:	00042603          	lw	a2,0(s0)
 548:	02b69c63          	bne	a3,a1,580 <xprintf+0x23c>
 54c:	02065a63          	bgez	a2,580 <xprintf+0x23c>
 550:	40c00633          	neg	a2,a2
 554:	0087e793          	ori	a5,a5,8
 558:	0280006f          	j	580 <xprintf+0x23c>
 55c:	00a00893          	li	a7,10
 560:	fd5ff06f          	j	534 <xprintf+0x1f0>
 564:	01000893          	li	a7,16
 568:	fcdff06f          	j	534 <xprintf+0x1f0>
 56c:	04400613          	li	a2,68
 570:	00c69663          	bne	a3,a2,57c <xprintf+0x238>
 574:	00042603          	lw	a2,0(s0)
 578:	fd5ff06f          	j	54c <xprintf+0x208>
 57c:	00042603          	lw	a2,0(s0)
 580:	07800593          	li	a1,120
 584:	00700693          	li	a3,7
 588:	00b71463          	bne	a4,a1,590 <xprintf+0x24c>
 58c:	02700693          	li	a3,39
 590:	02010593          	addi	a1,sp,32
 594:	0ff6f513          	andi	a0,a3,255
 598:	00058c93          	mv	s9,a1
 59c:	00000693          	li	a3,0
 5a0:	03167833          	remu	a6,a2,a7
 5a4:	03165333          	divu	t1,a2,a7
 5a8:	0ff87713          	andi	a4,a6,255
 5ac:	010a7663          	bgeu	s4,a6,5b8 <xprintf+0x274>
 5b0:	00a70733          	add	a4,a4,a0
 5b4:	0ff77713          	andi	a4,a4,255
 5b8:	03070713          	addi	a4,a4,48
 5bc:	00e58023          	sb	a4,0(a1)
 5c0:	00168413          	addi	s0,a3,1
 5c4:	01166a63          	bltu	a2,a7,5d8 <xprintf+0x294>
 5c8:	00158593          	addi	a1,a1,1
 5cc:	00030613          	mv	a2,t1
 5d0:	07841a63          	bne	s0,s8,644 <xprintf+0x300>
 5d4:	00f00693          	li	a3,15
 5d8:	0087f713          	andi	a4,a5,8
 5dc:	00070c63          	beqz	a4,5f4 <xprintf+0x2b0>
 5e0:	03010713          	addi	a4,sp,48
 5e4:	00870833          	add	a6,a4,s0
 5e8:	02d00713          	li	a4,45
 5ec:	fee80823          	sb	a4,-16(a6)
 5f0:	00268413          	addi	s0,a3,2
 5f4:	0017f713          	andi	a4,a5,1
 5f8:	03000693          	li	a3,48
 5fc:	00071463          	bnez	a4,604 <xprintf+0x2c0>
 600:	02000693          	li	a3,32
 604:	00040d13          	mv	s10,s0
 608:	0027f793          	andi	a5,a5,2
 60c:	001d0d93          	addi	s11,s10,1
 610:	00079663          	bnez	a5,61c <xprintf+0x2d8>
 614:	032d6c63          	bltu	s10,s2,64c <xprintf+0x308>
 618:	000d8d13          	mv	s10,s11
 61c:	fff40413          	addi	s0,s0,-1
 620:	008c87b3          	add	a5,s9,s0
 624:	0007c503          	lbu	a0,0(a5)
 628:	cbdff0ef          	jal	ra,2e4 <xputc>
 62c:	fe0418e3          	bnez	s0,61c <xprintf+0x2d8>
 630:	eb2d7ae3          	bgeu	s10,s2,4e4 <xprintf+0x1a0>
 634:	02000513          	li	a0,32
 638:	cadff0ef          	jal	ra,2e4 <xputc>
 63c:	001d0d13          	addi	s10,s10,1
 640:	ff1ff06f          	j	630 <xprintf+0x2ec>
 644:	00040693          	mv	a3,s0
 648:	f59ff06f          	j	5a0 <xprintf+0x25c>
 64c:	00068513          	mv	a0,a3
 650:	00f12623          	sw	a5,12(sp)
 654:	00d12423          	sw	a3,8(sp)
 658:	c8dff0ef          	jal	ra,2e4 <xputc>
 65c:	000d8d13          	mv	s10,s11
 660:	00c12783          	lw	a5,12(sp)
 664:	00812683          	lw	a3,8(sp)
 668:	fa5ff06f          	j	60c <xprintf+0x2c8>
 66c:	06c12083          	lw	ra,108(sp)
 670:	06812403          	lw	s0,104(sp)
 674:	06412483          	lw	s1,100(sp)
 678:	06012903          	lw	s2,96(sp)
 67c:	05c12983          	lw	s3,92(sp)
 680:	05812a03          	lw	s4,88(sp)
 684:	05412a83          	lw	s5,84(sp)
 688:	05012b03          	lw	s6,80(sp)
 68c:	04c12b83          	lw	s7,76(sp)
 690:	04812c03          	lw	s8,72(sp)
 694:	04412c83          	lw	s9,68(sp)
 698:	04012d03          	lw	s10,64(sp)
 69c:	03c12d83          	lw	s11,60(sp)
 6a0:	09010113          	addi	sp,sp,144
 6a4:	00008067          	ret

000006a8 <uart_putc>:
 6a8:	30000737          	lui	a4,0x30000
 6ac:	00472783          	lw	a5,4(a4) # 30000004 <__freertos_irq_stack_top+0x1fff8004>
 6b0:	0017f793          	andi	a5,a5,1
 6b4:	fe079ce3          	bnez	a5,6ac <uart_putc+0x4>
 6b8:	00a72623          	sw	a0,12(a4)
 6bc:	00008067          	ret

000006c0 <uart_init>:
 6c0:	300007b7          	lui	a5,0x30000
 6c4:	00300713          	li	a4,3
 6c8:	00e7a023          	sw	a4,0(a5) # 30000000 <__freertos_irq_stack_top+0x1fff8000>
 6cc:	000007b7          	lui	a5,0x0
 6d0:	6a878793          	addi	a5,a5,1704 # 6a8 <uart_putc>
 6d4:	80f1a423          	sw	a5,-2040(gp) # 10000030 <xfunc_out>
 6d8:	00008067          	ret
