
spi_lcd:     file format elf32-littleriscv


Disassembly of section .init:

00000000 <_start>:
   0:	10005197          	auipc	gp,0x10005
   4:	fd018193          	addi	gp,gp,-48 # 10004fd0 <__global_pointer$>
   8:	10008117          	auipc	sp,0x10008
   c:	ff810113          	addi	sp,sp,-8 # 10008000 <__freertos_irq_stack_top>
  10:	00004517          	auipc	a0,0x4
  14:	8b450513          	addi	a0,a0,-1868 # 38c4 <_data_lma>
  18:	10000597          	auipc	a1,0x10000
  1c:	fe858593          	addi	a1,a1,-24 # 10000000 <_data>
  20:	10004617          	auipc	a2,0x10004
  24:	7b060613          	addi	a2,a2,1968 # 100047d0 <__bss_start>
  28:	00c5fc63          	bgeu	a1,a2,40 <_start+0x40>
  2c:	00052283          	lw	t0,0(a0)
  30:	0055a023          	sw	t0,0(a1)
  34:	00450513          	addi	a0,a0,4
  38:	00458593          	addi	a1,a1,4
  3c:	fec5e8e3          	bltu	a1,a2,2c <_start+0x2c>
  40:	10004517          	auipc	a0,0x10004
  44:	79050513          	addi	a0,a0,1936 # 100047d0 <__bss_start>
  48:	80818593          	addi	a1,gp,-2040 # 100047d8 <_end>
  4c:	00b57863          	bgeu	a0,a1,5c <_start+0x5c>
  50:	00052023          	sw	zero,0(a0)
  54:	00450513          	addi	a0,a0,4
  58:	feb56ce3          	bltu	a0,a1,50 <_start+0x50>
  5c:	150020ef          	jal	ra,21ac <_init>
  60:	6ad010ef          	jal	ra,1f0c <main>

00000064 <loop>:
  64:	0000006f          	j	64 <loop>

Disassembly of section .text:

00000068 <trap_entry>:
      68:	f8010113          	addi	sp,sp,-128
      6c:	00112223          	sw	ra,4(sp)
      70:	00212423          	sw	sp,8(sp)
      74:	00312623          	sw	gp,12(sp)
      78:	00412823          	sw	tp,16(sp)
      7c:	00512a23          	sw	t0,20(sp)
      80:	00612c23          	sw	t1,24(sp)
      84:	00712e23          	sw	t2,28(sp)
      88:	02812023          	sw	s0,32(sp)
      8c:	02912223          	sw	s1,36(sp)
      90:	02a12423          	sw	a0,40(sp)
      94:	02b12623          	sw	a1,44(sp)
      98:	02c12823          	sw	a2,48(sp)
      9c:	02d12a23          	sw	a3,52(sp)
      a0:	02e12c23          	sw	a4,56(sp)
      a4:	02f12e23          	sw	a5,60(sp)
      a8:	05012023          	sw	a6,64(sp)
      ac:	05112223          	sw	a7,68(sp)
      b0:	05212423          	sw	s2,72(sp)
      b4:	05312623          	sw	s3,76(sp)
      b8:	05412823          	sw	s4,80(sp)
      bc:	05512a23          	sw	s5,84(sp)
      c0:	05612c23          	sw	s6,88(sp)
      c4:	05712e23          	sw	s7,92(sp)
      c8:	07812023          	sw	s8,96(sp)
      cc:	07912223          	sw	s9,100(sp)
      d0:	07a12423          	sw	s10,104(sp)
      d4:	07b12623          	sw	s11,108(sp)
      d8:	07c12823          	sw	t3,112(sp)
      dc:	07d12a23          	sw	t4,116(sp)
      e0:	07e12c23          	sw	t5,120(sp)
      e4:	07f12e23          	sw	t6,124(sp)
      e8:	34202573          	csrr	a0,mcause
      ec:	341025f3          	csrr	a1,mepc

000000f0 <test_if_asynchronous>:
      f0:	01f55613          	srli	a2,a0,0x1f
      f4:	00060663          	beqz	a2,100 <handle_synchronous>
      f8:	0e8020ef          	jal	ra,21e0 <trap_handler>
      fc:	00c0006f          	j	108 <asynchronous_return>

00000100 <handle_synchronous>:
     100:	00458593          	addi	a1,a1,4
     104:	34159073          	csrw	mepc,a1

00000108 <asynchronous_return>:
     108:	00412083          	lw	ra,4(sp)
     10c:	00812103          	lw	sp,8(sp)
     110:	00c12183          	lw	gp,12(sp)
     114:	01012203          	lw	tp,16(sp)
     118:	01412283          	lw	t0,20(sp)
     11c:	01812303          	lw	t1,24(sp)
     120:	01c12383          	lw	t2,28(sp)
     124:	02012403          	lw	s0,32(sp)
     128:	02412483          	lw	s1,36(sp)
     12c:	02812503          	lw	a0,40(sp)
     130:	02c12583          	lw	a1,44(sp)
     134:	03012603          	lw	a2,48(sp)
     138:	03412683          	lw	a3,52(sp)
     13c:	03812703          	lw	a4,56(sp)
     140:	03c12783          	lw	a5,60(sp)
     144:	04012803          	lw	a6,64(sp)
     148:	04412883          	lw	a7,68(sp)
     14c:	04812903          	lw	s2,72(sp)
     150:	04c12983          	lw	s3,76(sp)
     154:	05012a03          	lw	s4,80(sp)
     158:	05412a83          	lw	s5,84(sp)
     15c:	05812b03          	lw	s6,88(sp)
     160:	05c12b83          	lw	s7,92(sp)
     164:	06012c03          	lw	s8,96(sp)
     168:	06412c83          	lw	s9,100(sp)
     16c:	06812d03          	lw	s10,104(sp)
     170:	06c12d83          	lw	s11,108(sp)
     174:	07012e03          	lw	t3,112(sp)
     178:	07412e83          	lw	t4,116(sp)
     17c:	07812f03          	lw	t5,120(sp)
     180:	07c12f83          	lw	t6,124(sp)
     184:	08010113          	addi	sp,sp,128
     188:	30200073          	mret
     18c:	0000006f          	j	18c <asynchronous_return+0x84>

00000190 <delay_ms>:
     190:	fd010113          	addi	sp,sp,-48
     194:	02812623          	sw	s0,44(sp)
     198:	03010413          	addi	s0,sp,48
     19c:	fca42e23          	sw	a0,-36(s0)
     1a0:	fe042623          	sw	zero,-20(s0)
     1a4:	0300006f          	j	1d4 <delay_ms+0x44>
     1a8:	fe042423          	sw	zero,-24(s0)
     1ac:	0100006f          	j	1bc <delay_ms+0x2c>
     1b0:	fe842783          	lw	a5,-24(s0)
     1b4:	00178793          	addi	a5,a5,1
     1b8:	fef42423          	sw	a5,-24(s0)
     1bc:	fe842703          	lw	a4,-24(s0)
     1c0:	3e700793          	li	a5,999
     1c4:	fee7d6e3          	bge	a5,a4,1b0 <delay_ms+0x20>
     1c8:	fec42783          	lw	a5,-20(s0)
     1cc:	00178793          	addi	a5,a5,1
     1d0:	fef42623          	sw	a5,-20(s0)
     1d4:	fec42783          	lw	a5,-20(s0)
     1d8:	fdc42703          	lw	a4,-36(s0)
     1dc:	fce7e6e3          	bltu	a5,a4,1a8 <delay_ms+0x18>
     1e0:	00000013          	nop
     1e4:	02c12403          	lw	s0,44(sp)
     1e8:	03010113          	addi	sp,sp,48
     1ec:	00008067          	ret

000001f0 <LCD_GPIO_Init>:
     1f0:	ff010113          	addi	sp,sp,-16
     1f4:	00812623          	sw	s0,12(sp)
     1f8:	01010413          	addi	s0,sp,16
     1fc:	400007b7          	lui	a5,0x40000
     200:	0007a703          	lw	a4,0(a5) # 40000000 <__freertos_irq_stack_top+0x2fff8000>
     204:	400007b7          	lui	a5,0x40000
     208:	40076713          	ori	a4,a4,1024
     20c:	00e7a023          	sw	a4,0(a5) # 40000000 <__freertos_irq_stack_top+0x2fff8000>
     210:	400007b7          	lui	a5,0x40000
     214:	0007a683          	lw	a3,0(a5) # 40000000 <__freertos_irq_stack_top+0x2fff8000>
     218:	400007b7          	lui	a5,0x40000
     21c:	00001737          	lui	a4,0x1
     220:	00e6e733          	or	a4,a3,a4
     224:	00e7a023          	sw	a4,0(a5) # 40000000 <__freertos_irq_stack_top+0x2fff8000>
     228:	400007b7          	lui	a5,0x40000
     22c:	0007a683          	lw	a3,0(a5) # 40000000 <__freertos_irq_stack_top+0x2fff8000>
     230:	400007b7          	lui	a5,0x40000
     234:	00040737          	lui	a4,0x40
     238:	00e6e733          	or	a4,a3,a4
     23c:	00e7a023          	sw	a4,0(a5) # 40000000 <__freertos_irq_stack_top+0x2fff8000>
     240:	00000013          	nop
     244:	00c12403          	lw	s0,12(sp)
     248:	01010113          	addi	sp,sp,16
     24c:	00008067          	ret

00000250 <LCD_WR_DATA8>:
     250:	fe010113          	addi	sp,sp,-32
     254:	00112e23          	sw	ra,28(sp)
     258:	00812c23          	sw	s0,24(sp)
     25c:	02010413          	addi	s0,sp,32
     260:	00050793          	mv	a5,a0
     264:	fef407a3          	sb	a5,-17(s0)
     268:	fef44783          	lbu	a5,-17(s0)
     26c:	00078513          	mv	a0,a5
     270:	600020ef          	jal	ra,2870 <spi_write_byte>
     274:	00000013          	nop
     278:	01c12083          	lw	ra,28(sp)
     27c:	01812403          	lw	s0,24(sp)
     280:	02010113          	addi	sp,sp,32
     284:	00008067          	ret

00000288 <LCD_WR_DATA>:
     288:	fe010113          	addi	sp,sp,-32
     28c:	00112e23          	sw	ra,28(sp)
     290:	00812c23          	sw	s0,24(sp)
     294:	02010413          	addi	s0,sp,32
     298:	00050793          	mv	a5,a0
     29c:	fef41723          	sh	a5,-18(s0)
     2a0:	fee45783          	lhu	a5,-18(s0)
     2a4:	0087d793          	srli	a5,a5,0x8
     2a8:	01079793          	slli	a5,a5,0x10
     2ac:	0107d793          	srli	a5,a5,0x10
     2b0:	0ff7f793          	andi	a5,a5,255
     2b4:	00078513          	mv	a0,a5
     2b8:	5b8020ef          	jal	ra,2870 <spi_write_byte>
     2bc:	fee45783          	lhu	a5,-18(s0)
     2c0:	0ff7f793          	andi	a5,a5,255
     2c4:	00078513          	mv	a0,a5
     2c8:	5a8020ef          	jal	ra,2870 <spi_write_byte>
     2cc:	00000013          	nop
     2d0:	01c12083          	lw	ra,28(sp)
     2d4:	01812403          	lw	s0,24(sp)
     2d8:	02010113          	addi	sp,sp,32
     2dc:	00008067          	ret

000002e0 <LCD_WR_REG>:
     2e0:	fe010113          	addi	sp,sp,-32
     2e4:	00112e23          	sw	ra,28(sp)
     2e8:	00812c23          	sw	s0,24(sp)
     2ec:	02010413          	addi	s0,sp,32
     2f0:	00050793          	mv	a5,a0
     2f4:	fef407a3          	sb	a5,-17(s0)
     2f8:	400007b7          	lui	a5,0x40000
     2fc:	00478793          	addi	a5,a5,4 # 40000004 <__freertos_irq_stack_top+0x2fff8004>
     300:	0007a703          	lw	a4,0(a5)
     304:	400007b7          	lui	a5,0x40000
     308:	00478793          	addi	a5,a5,4 # 40000004 <__freertos_irq_stack_top+0x2fff8004>
     30c:	fbf77713          	andi	a4,a4,-65
     310:	00e7a023          	sw	a4,0(a5)
     314:	fef44783          	lbu	a5,-17(s0)
     318:	00078513          	mv	a0,a5
     31c:	554020ef          	jal	ra,2870 <spi_write_byte>
     320:	400007b7          	lui	a5,0x40000
     324:	00478793          	addi	a5,a5,4 # 40000004 <__freertos_irq_stack_top+0x2fff8004>
     328:	0007a703          	lw	a4,0(a5)
     32c:	400007b7          	lui	a5,0x40000
     330:	00478793          	addi	a5,a5,4 # 40000004 <__freertos_irq_stack_top+0x2fff8004>
     334:	04076713          	ori	a4,a4,64
     338:	00e7a023          	sw	a4,0(a5)
     33c:	00000013          	nop
     340:	01c12083          	lw	ra,28(sp)
     344:	01812403          	lw	s0,24(sp)
     348:	02010113          	addi	sp,sp,32
     34c:	00008067          	ret

00000350 <LCD_Address_Set>:
     350:	fe010113          	addi	sp,sp,-32
     354:	00112e23          	sw	ra,28(sp)
     358:	00812c23          	sw	s0,24(sp)
     35c:	02010413          	addi	s0,sp,32
     360:	00050793          	mv	a5,a0
     364:	00068713          	mv	a4,a3
     368:	fef41723          	sh	a5,-18(s0)
     36c:	00058793          	mv	a5,a1
     370:	fef41623          	sh	a5,-20(s0)
     374:	00060793          	mv	a5,a2
     378:	fef41523          	sh	a5,-22(s0)
     37c:	00070793          	mv	a5,a4
     380:	fef41423          	sh	a5,-24(s0)
     384:	02a00513          	li	a0,42
     388:	f59ff0ef          	jal	ra,2e0 <LCD_WR_REG>
     38c:	fee45783          	lhu	a5,-18(s0)
     390:	00078513          	mv	a0,a5
     394:	ef5ff0ef          	jal	ra,288 <LCD_WR_DATA>
     398:	fea45783          	lhu	a5,-22(s0)
     39c:	00078513          	mv	a0,a5
     3a0:	ee9ff0ef          	jal	ra,288 <LCD_WR_DATA>
     3a4:	02b00513          	li	a0,43
     3a8:	f39ff0ef          	jal	ra,2e0 <LCD_WR_REG>
     3ac:	fec45783          	lhu	a5,-20(s0)
     3b0:	00078513          	mv	a0,a5
     3b4:	ed5ff0ef          	jal	ra,288 <LCD_WR_DATA>
     3b8:	fe845783          	lhu	a5,-24(s0)
     3bc:	00078513          	mv	a0,a5
     3c0:	ec9ff0ef          	jal	ra,288 <LCD_WR_DATA>
     3c4:	02c00513          	li	a0,44
     3c8:	f19ff0ef          	jal	ra,2e0 <LCD_WR_REG>
     3cc:	00000013          	nop
     3d0:	01c12083          	lw	ra,28(sp)
     3d4:	01812403          	lw	s0,24(sp)
     3d8:	02010113          	addi	sp,sp,32
     3dc:	00008067          	ret

000003e0 <LCD_Init>:
     3e0:	ff010113          	addi	sp,sp,-16
     3e4:	00112623          	sw	ra,12(sp)
     3e8:	00812423          	sw	s0,8(sp)
     3ec:	01010413          	addi	s0,sp,16
     3f0:	e01ff0ef          	jal	ra,1f0 <LCD_GPIO_Init>
     3f4:	400007b7          	lui	a5,0x40000
     3f8:	00478793          	addi	a5,a5,4 # 40000004 <__freertos_irq_stack_top+0x2fff8004>
     3fc:	0007a703          	lw	a4,0(a5)
     400:	400007b7          	lui	a5,0x40000
     404:	00478793          	addi	a5,a5,4 # 40000004 <__freertos_irq_stack_top+0x2fff8004>
     408:	fdf77713          	andi	a4,a4,-33
     40c:	00e7a023          	sw	a4,0(a5)
     410:	06400513          	li	a0,100
     414:	d7dff0ef          	jal	ra,190 <delay_ms>
     418:	400007b7          	lui	a5,0x40000
     41c:	00478793          	addi	a5,a5,4 # 40000004 <__freertos_irq_stack_top+0x2fff8004>
     420:	0007a703          	lw	a4,0(a5)
     424:	400007b7          	lui	a5,0x40000
     428:	00478793          	addi	a5,a5,4 # 40000004 <__freertos_irq_stack_top+0x2fff8004>
     42c:	02076713          	ori	a4,a4,32
     430:	00e7a023          	sw	a4,0(a5)
     434:	06400513          	li	a0,100
     438:	d59ff0ef          	jal	ra,190 <delay_ms>
     43c:	400007b7          	lui	a5,0x40000
     440:	00478793          	addi	a5,a5,4 # 40000004 <__freertos_irq_stack_top+0x2fff8004>
     444:	0007a703          	lw	a4,0(a5)
     448:	400007b7          	lui	a5,0x40000
     44c:	00478793          	addi	a5,a5,4 # 40000004 <__freertos_irq_stack_top+0x2fff8004>
     450:	20076713          	ori	a4,a4,512
     454:	00e7a023          	sw	a4,0(a5)
     458:	06400513          	li	a0,100
     45c:	d35ff0ef          	jal	ra,190 <delay_ms>
     460:	01100513          	li	a0,17
     464:	e7dff0ef          	jal	ra,2e0 <LCD_WR_REG>
     468:	07800513          	li	a0,120
     46c:	d25ff0ef          	jal	ra,190 <delay_ms>
     470:	0cf00513          	li	a0,207
     474:	e6dff0ef          	jal	ra,2e0 <LCD_WR_REG>
     478:	00000513          	li	a0,0
     47c:	dd5ff0ef          	jal	ra,250 <LCD_WR_DATA8>
     480:	0c100513          	li	a0,193
     484:	dcdff0ef          	jal	ra,250 <LCD_WR_DATA8>
     488:	03000513          	li	a0,48
     48c:	dc5ff0ef          	jal	ra,250 <LCD_WR_DATA8>
     490:	0ed00513          	li	a0,237
     494:	e4dff0ef          	jal	ra,2e0 <LCD_WR_REG>
     498:	06400513          	li	a0,100
     49c:	db5ff0ef          	jal	ra,250 <LCD_WR_DATA8>
     4a0:	00300513          	li	a0,3
     4a4:	dadff0ef          	jal	ra,250 <LCD_WR_DATA8>
     4a8:	01200513          	li	a0,18
     4ac:	da5ff0ef          	jal	ra,250 <LCD_WR_DATA8>
     4b0:	08100513          	li	a0,129
     4b4:	d9dff0ef          	jal	ra,250 <LCD_WR_DATA8>
     4b8:	0e800513          	li	a0,232
     4bc:	e25ff0ef          	jal	ra,2e0 <LCD_WR_REG>
     4c0:	08500513          	li	a0,133
     4c4:	d8dff0ef          	jal	ra,250 <LCD_WR_DATA8>
     4c8:	00000513          	li	a0,0
     4cc:	d85ff0ef          	jal	ra,250 <LCD_WR_DATA8>
     4d0:	07900513          	li	a0,121
     4d4:	d7dff0ef          	jal	ra,250 <LCD_WR_DATA8>
     4d8:	0cb00513          	li	a0,203
     4dc:	e05ff0ef          	jal	ra,2e0 <LCD_WR_REG>
     4e0:	03900513          	li	a0,57
     4e4:	d6dff0ef          	jal	ra,250 <LCD_WR_DATA8>
     4e8:	02c00513          	li	a0,44
     4ec:	d65ff0ef          	jal	ra,250 <LCD_WR_DATA8>
     4f0:	00000513          	li	a0,0
     4f4:	d5dff0ef          	jal	ra,250 <LCD_WR_DATA8>
     4f8:	03400513          	li	a0,52
     4fc:	d55ff0ef          	jal	ra,250 <LCD_WR_DATA8>
     500:	00200513          	li	a0,2
     504:	d4dff0ef          	jal	ra,250 <LCD_WR_DATA8>
     508:	0f700513          	li	a0,247
     50c:	dd5ff0ef          	jal	ra,2e0 <LCD_WR_REG>
     510:	02000513          	li	a0,32
     514:	d3dff0ef          	jal	ra,250 <LCD_WR_DATA8>
     518:	0ea00513          	li	a0,234
     51c:	dc5ff0ef          	jal	ra,2e0 <LCD_WR_REG>
     520:	00000513          	li	a0,0
     524:	d2dff0ef          	jal	ra,250 <LCD_WR_DATA8>
     528:	00000513          	li	a0,0
     52c:	d25ff0ef          	jal	ra,250 <LCD_WR_DATA8>
     530:	0c000513          	li	a0,192
     534:	dadff0ef          	jal	ra,2e0 <LCD_WR_REG>
     538:	01d00513          	li	a0,29
     53c:	d15ff0ef          	jal	ra,250 <LCD_WR_DATA8>
     540:	0c100513          	li	a0,193
     544:	d9dff0ef          	jal	ra,2e0 <LCD_WR_REG>
     548:	01200513          	li	a0,18
     54c:	d05ff0ef          	jal	ra,250 <LCD_WR_DATA8>
     550:	0c500513          	li	a0,197
     554:	d8dff0ef          	jal	ra,2e0 <LCD_WR_REG>
     558:	03300513          	li	a0,51
     55c:	cf5ff0ef          	jal	ra,250 <LCD_WR_DATA8>
     560:	03f00513          	li	a0,63
     564:	cedff0ef          	jal	ra,250 <LCD_WR_DATA8>
     568:	0c700513          	li	a0,199
     56c:	d75ff0ef          	jal	ra,2e0 <LCD_WR_REG>
     570:	09200513          	li	a0,146
     574:	cddff0ef          	jal	ra,250 <LCD_WR_DATA8>
     578:	03a00513          	li	a0,58
     57c:	d65ff0ef          	jal	ra,2e0 <LCD_WR_REG>
     580:	05500513          	li	a0,85
     584:	ccdff0ef          	jal	ra,250 <LCD_WR_DATA8>
     588:	03600513          	li	a0,54
     58c:	d55ff0ef          	jal	ra,2e0 <LCD_WR_REG>
     590:	00800513          	li	a0,8
     594:	cbdff0ef          	jal	ra,250 <LCD_WR_DATA8>
     598:	0b100513          	li	a0,177
     59c:	d45ff0ef          	jal	ra,2e0 <LCD_WR_REG>
     5a0:	00000513          	li	a0,0
     5a4:	cadff0ef          	jal	ra,250 <LCD_WR_DATA8>
     5a8:	01200513          	li	a0,18
     5ac:	ca5ff0ef          	jal	ra,250 <LCD_WR_DATA8>
     5b0:	0b600513          	li	a0,182
     5b4:	d2dff0ef          	jal	ra,2e0 <LCD_WR_REG>
     5b8:	00a00513          	li	a0,10
     5bc:	c95ff0ef          	jal	ra,250 <LCD_WR_DATA8>
     5c0:	0a200513          	li	a0,162
     5c4:	c8dff0ef          	jal	ra,250 <LCD_WR_DATA8>
     5c8:	04400513          	li	a0,68
     5cc:	d15ff0ef          	jal	ra,2e0 <LCD_WR_REG>
     5d0:	00200513          	li	a0,2
     5d4:	c7dff0ef          	jal	ra,250 <LCD_WR_DATA8>
     5d8:	0f200513          	li	a0,242
     5dc:	d05ff0ef          	jal	ra,2e0 <LCD_WR_REG>
     5e0:	00000513          	li	a0,0
     5e4:	c6dff0ef          	jal	ra,250 <LCD_WR_DATA8>
     5e8:	02600513          	li	a0,38
     5ec:	cf5ff0ef          	jal	ra,2e0 <LCD_WR_REG>
     5f0:	00100513          	li	a0,1
     5f4:	c5dff0ef          	jal	ra,250 <LCD_WR_DATA8>
     5f8:	0e000513          	li	a0,224
     5fc:	ce5ff0ef          	jal	ra,2e0 <LCD_WR_REG>
     600:	00f00513          	li	a0,15
     604:	c4dff0ef          	jal	ra,250 <LCD_WR_DATA8>
     608:	02200513          	li	a0,34
     60c:	c45ff0ef          	jal	ra,250 <LCD_WR_DATA8>
     610:	01c00513          	li	a0,28
     614:	c3dff0ef          	jal	ra,250 <LCD_WR_DATA8>
     618:	01b00513          	li	a0,27
     61c:	c35ff0ef          	jal	ra,250 <LCD_WR_DATA8>
     620:	00800513          	li	a0,8
     624:	c2dff0ef          	jal	ra,250 <LCD_WR_DATA8>
     628:	00f00513          	li	a0,15
     62c:	c25ff0ef          	jal	ra,250 <LCD_WR_DATA8>
     630:	04800513          	li	a0,72
     634:	c1dff0ef          	jal	ra,250 <LCD_WR_DATA8>
     638:	0b800513          	li	a0,184
     63c:	c15ff0ef          	jal	ra,250 <LCD_WR_DATA8>
     640:	03400513          	li	a0,52
     644:	c0dff0ef          	jal	ra,250 <LCD_WR_DATA8>
     648:	00500513          	li	a0,5
     64c:	c05ff0ef          	jal	ra,250 <LCD_WR_DATA8>
     650:	00c00513          	li	a0,12
     654:	bfdff0ef          	jal	ra,250 <LCD_WR_DATA8>
     658:	00900513          	li	a0,9
     65c:	bf5ff0ef          	jal	ra,250 <LCD_WR_DATA8>
     660:	00f00513          	li	a0,15
     664:	bedff0ef          	jal	ra,250 <LCD_WR_DATA8>
     668:	00700513          	li	a0,7
     66c:	be5ff0ef          	jal	ra,250 <LCD_WR_DATA8>
     670:	00000513          	li	a0,0
     674:	bddff0ef          	jal	ra,250 <LCD_WR_DATA8>
     678:	0e100513          	li	a0,225
     67c:	c65ff0ef          	jal	ra,2e0 <LCD_WR_REG>
     680:	00000513          	li	a0,0
     684:	bcdff0ef          	jal	ra,250 <LCD_WR_DATA8>
     688:	02300513          	li	a0,35
     68c:	bc5ff0ef          	jal	ra,250 <LCD_WR_DATA8>
     690:	02400513          	li	a0,36
     694:	bbdff0ef          	jal	ra,250 <LCD_WR_DATA8>
     698:	00700513          	li	a0,7
     69c:	bb5ff0ef          	jal	ra,250 <LCD_WR_DATA8>
     6a0:	01000513          	li	a0,16
     6a4:	badff0ef          	jal	ra,250 <LCD_WR_DATA8>
     6a8:	00700513          	li	a0,7
     6ac:	ba5ff0ef          	jal	ra,250 <LCD_WR_DATA8>
     6b0:	03800513          	li	a0,56
     6b4:	b9dff0ef          	jal	ra,250 <LCD_WR_DATA8>
     6b8:	04700513          	li	a0,71
     6bc:	b95ff0ef          	jal	ra,250 <LCD_WR_DATA8>
     6c0:	04b00513          	li	a0,75
     6c4:	b8dff0ef          	jal	ra,250 <LCD_WR_DATA8>
     6c8:	00a00513          	li	a0,10
     6cc:	b85ff0ef          	jal	ra,250 <LCD_WR_DATA8>
     6d0:	01300513          	li	a0,19
     6d4:	b7dff0ef          	jal	ra,250 <LCD_WR_DATA8>
     6d8:	00600513          	li	a0,6
     6dc:	b75ff0ef          	jal	ra,250 <LCD_WR_DATA8>
     6e0:	03000513          	li	a0,48
     6e4:	b6dff0ef          	jal	ra,250 <LCD_WR_DATA8>
     6e8:	03800513          	li	a0,56
     6ec:	b65ff0ef          	jal	ra,250 <LCD_WR_DATA8>
     6f0:	00f00513          	li	a0,15
     6f4:	b5dff0ef          	jal	ra,250 <LCD_WR_DATA8>
     6f8:	02900513          	li	a0,41
     6fc:	be5ff0ef          	jal	ra,2e0 <LCD_WR_REG>
     700:	00000013          	nop
     704:	00c12083          	lw	ra,12(sp)
     708:	00812403          	lw	s0,8(sp)
     70c:	01010113          	addi	sp,sp,16
     710:	00008067          	ret

00000714 <LCD_Fill>:
     714:	fd010113          	addi	sp,sp,-48
     718:	02112623          	sw	ra,44(sp)
     71c:	02812423          	sw	s0,40(sp)
     720:	03010413          	addi	s0,sp,48
     724:	00050793          	mv	a5,a0
     728:	fcf41f23          	sh	a5,-34(s0)
     72c:	00058793          	mv	a5,a1
     730:	fcf41e23          	sh	a5,-36(s0)
     734:	00060793          	mv	a5,a2
     738:	fcf41d23          	sh	a5,-38(s0)
     73c:	00068793          	mv	a5,a3
     740:	fcf41c23          	sh	a5,-40(s0)
     744:	00070793          	mv	a5,a4
     748:	fcf41b23          	sh	a5,-42(s0)
     74c:	fda45783          	lhu	a5,-38(s0)
     750:	fff78793          	addi	a5,a5,-1
     754:	01079613          	slli	a2,a5,0x10
     758:	01065613          	srli	a2,a2,0x10
     75c:	fd845783          	lhu	a5,-40(s0)
     760:	fff78793          	addi	a5,a5,-1
     764:	01079693          	slli	a3,a5,0x10
     768:	0106d693          	srli	a3,a3,0x10
     76c:	fdc45703          	lhu	a4,-36(s0)
     770:	fde45783          	lhu	a5,-34(s0)
     774:	00070593          	mv	a1,a4
     778:	00078513          	mv	a0,a5
     77c:	bd5ff0ef          	jal	ra,350 <LCD_Address_Set>
     780:	fdc45783          	lhu	a5,-36(s0)
     784:	fef41723          	sh	a5,-18(s0)
     788:	0400006f          	j	7c8 <LCD_Fill+0xb4>
     78c:	fde45783          	lhu	a5,-34(s0)
     790:	fef41623          	sh	a5,-20(s0)
     794:	01c0006f          	j	7b0 <LCD_Fill+0x9c>
     798:	fd645783          	lhu	a5,-42(s0)
     79c:	00078513          	mv	a0,a5
     7a0:	ae9ff0ef          	jal	ra,288 <LCD_WR_DATA>
     7a4:	fec45783          	lhu	a5,-20(s0)
     7a8:	00178793          	addi	a5,a5,1
     7ac:	fef41623          	sh	a5,-20(s0)
     7b0:	fec45703          	lhu	a4,-20(s0)
     7b4:	fda45783          	lhu	a5,-38(s0)
     7b8:	fef760e3          	bltu	a4,a5,798 <LCD_Fill+0x84>
     7bc:	fee45783          	lhu	a5,-18(s0)
     7c0:	00178793          	addi	a5,a5,1
     7c4:	fef41723          	sh	a5,-18(s0)
     7c8:	fee45703          	lhu	a4,-18(s0)
     7cc:	fd845783          	lhu	a5,-40(s0)
     7d0:	faf76ee3          	bltu	a4,a5,78c <LCD_Fill+0x78>
     7d4:	00000013          	nop
     7d8:	02c12083          	lw	ra,44(sp)
     7dc:	02812403          	lw	s0,40(sp)
     7e0:	03010113          	addi	sp,sp,48
     7e4:	00008067          	ret

000007e8 <LCD_DrawPoint>:
     7e8:	fe010113          	addi	sp,sp,-32
     7ec:	00112e23          	sw	ra,28(sp)
     7f0:	00812c23          	sw	s0,24(sp)
     7f4:	02010413          	addi	s0,sp,32
     7f8:	00050793          	mv	a5,a0
     7fc:	00058693          	mv	a3,a1
     800:	00060713          	mv	a4,a2
     804:	fef41723          	sh	a5,-18(s0)
     808:	00068793          	mv	a5,a3
     80c:	fef41623          	sh	a5,-20(s0)
     810:	00070793          	mv	a5,a4
     814:	fef41523          	sh	a5,-22(s0)
     818:	fec45683          	lhu	a3,-20(s0)
     81c:	fee45603          	lhu	a2,-18(s0)
     820:	fec45703          	lhu	a4,-20(s0)
     824:	fee45783          	lhu	a5,-18(s0)
     828:	00070593          	mv	a1,a4
     82c:	00078513          	mv	a0,a5
     830:	b21ff0ef          	jal	ra,350 <LCD_Address_Set>
     834:	fea45783          	lhu	a5,-22(s0)
     838:	00078513          	mv	a0,a5
     83c:	a4dff0ef          	jal	ra,288 <LCD_WR_DATA>
     840:	00000013          	nop
     844:	01c12083          	lw	ra,28(sp)
     848:	01812403          	lw	s0,24(sp)
     84c:	02010113          	addi	sp,sp,32
     850:	00008067          	ret

00000854 <LCD_ShowChinese>:
     854:	fe010113          	addi	sp,sp,-32
     858:	00112e23          	sw	ra,28(sp)
     85c:	00812c23          	sw	s0,24(sp)
     860:	02010413          	addi	s0,sp,32
     864:	00050893          	mv	a7,a0
     868:	00058513          	mv	a0,a1
     86c:	fec42423          	sw	a2,-24(s0)
     870:	00068593          	mv	a1,a3
     874:	00070613          	mv	a2,a4
     878:	00078693          	mv	a3,a5
     87c:	00080713          	mv	a4,a6
     880:	00088793          	mv	a5,a7
     884:	fef41723          	sh	a5,-18(s0)
     888:	00050793          	mv	a5,a0
     88c:	fef41623          	sh	a5,-20(s0)
     890:	00058793          	mv	a5,a1
     894:	fef41323          	sh	a5,-26(s0)
     898:	00060793          	mv	a5,a2
     89c:	fef41223          	sh	a5,-28(s0)
     8a0:	00068793          	mv	a5,a3
     8a4:	fef401a3          	sb	a5,-29(s0)
     8a8:	00070793          	mv	a5,a4
     8ac:	fef40123          	sb	a5,-30(s0)
     8b0:	0f40006f          	j	9a4 <LCD_ShowChinese+0x150>
     8b4:	fe344703          	lbu	a4,-29(s0)
     8b8:	00c00793          	li	a5,12
     8bc:	02f71663          	bne	a4,a5,8e8 <LCD_ShowChinese+0x94>
     8c0:	fe244603          	lbu	a2,-30(s0)
     8c4:	fe344783          	lbu	a5,-29(s0)
     8c8:	fe445703          	lhu	a4,-28(s0)
     8cc:	fe645683          	lhu	a3,-26(s0)
     8d0:	fec45583          	lhu	a1,-20(s0)
     8d4:	fee45503          	lhu	a0,-18(s0)
     8d8:	00060813          	mv	a6,a2
     8dc:	fe842603          	lw	a2,-24(s0)
     8e0:	0e8000ef          	jal	ra,9c8 <LCD_ShowChinese12x12>
     8e4:	09c0006f          	j	980 <LCD_ShowChinese+0x12c>
     8e8:	fe344703          	lbu	a4,-29(s0)
     8ec:	01000793          	li	a5,16
     8f0:	02f71663          	bne	a4,a5,91c <LCD_ShowChinese+0xc8>
     8f4:	fe244603          	lbu	a2,-30(s0)
     8f8:	fe344783          	lbu	a5,-29(s0)
     8fc:	fe445703          	lhu	a4,-28(s0)
     900:	fe645683          	lhu	a3,-26(s0)
     904:	fec45583          	lhu	a1,-20(s0)
     908:	fee45503          	lhu	a0,-18(s0)
     90c:	00060813          	mv	a6,a2
     910:	fe842603          	lw	a2,-24(s0)
     914:	3ac000ef          	jal	ra,cc0 <LCD_ShowChinese16x16>
     918:	0680006f          	j	980 <LCD_ShowChinese+0x12c>
     91c:	fe344703          	lbu	a4,-29(s0)
     920:	01800793          	li	a5,24
     924:	02f71663          	bne	a4,a5,950 <LCD_ShowChinese+0xfc>
     928:	fe244603          	lbu	a2,-30(s0)
     92c:	fe344783          	lbu	a5,-29(s0)
     930:	fe445703          	lhu	a4,-28(s0)
     934:	fe645683          	lhu	a3,-26(s0)
     938:	fec45583          	lhu	a1,-20(s0)
     93c:	fee45503          	lhu	a0,-18(s0)
     940:	00060813          	mv	a6,a2
     944:	fe842603          	lw	a2,-24(s0)
     948:	690000ef          	jal	ra,fd8 <LCD_ShowChinese24x24>
     94c:	0340006f          	j	980 <LCD_ShowChinese+0x12c>
     950:	fe344703          	lbu	a4,-29(s0)
     954:	02000793          	li	a5,32
     958:	04f71e63          	bne	a4,a5,9b4 <LCD_ShowChinese+0x160>
     95c:	fe244603          	lbu	a2,-30(s0)
     960:	fe344783          	lbu	a5,-29(s0)
     964:	fe445703          	lhu	a4,-28(s0)
     968:	fe645683          	lhu	a3,-26(s0)
     96c:	fec45583          	lhu	a1,-20(s0)
     970:	fee45503          	lhu	a0,-18(s0)
     974:	00060813          	mv	a6,a2
     978:	fe842603          	lw	a2,-24(s0)
     97c:	155000ef          	jal	ra,12d0 <LCD_ShowChinese32x32>
     980:	fe842783          	lw	a5,-24(s0)
     984:	00278793          	addi	a5,a5,2
     988:	fef42423          	sw	a5,-24(s0)
     98c:	fe344783          	lbu	a5,-29(s0)
     990:	01079713          	slli	a4,a5,0x10
     994:	01075713          	srli	a4,a4,0x10
     998:	fee45783          	lhu	a5,-18(s0)
     99c:	00f707b3          	add	a5,a4,a5
     9a0:	fef41723          	sh	a5,-18(s0)
     9a4:	fe842783          	lw	a5,-24(s0)
     9a8:	0007c783          	lbu	a5,0(a5)
     9ac:	f00794e3          	bnez	a5,8b4 <LCD_ShowChinese+0x60>
     9b0:	0080006f          	j	9b8 <LCD_ShowChinese+0x164>
     9b4:	00000013          	nop
     9b8:	01c12083          	lw	ra,28(sp)
     9bc:	01812403          	lw	s0,24(sp)
     9c0:	02010113          	addi	sp,sp,32
     9c4:	00008067          	ret

000009c8 <LCD_ShowChinese12x12>:
     9c8:	fd010113          	addi	sp,sp,-48
     9cc:	02112623          	sw	ra,44(sp)
     9d0:	02812423          	sw	s0,40(sp)
     9d4:	03010413          	addi	s0,sp,48
     9d8:	00050893          	mv	a7,a0
     9dc:	00058513          	mv	a0,a1
     9e0:	fcc42c23          	sw	a2,-40(s0)
     9e4:	00068593          	mv	a1,a3
     9e8:	00070613          	mv	a2,a4
     9ec:	00078693          	mv	a3,a5
     9f0:	00080713          	mv	a4,a6
     9f4:	00088793          	mv	a5,a7
     9f8:	fcf41f23          	sh	a5,-34(s0)
     9fc:	00050793          	mv	a5,a0
     a00:	fcf41e23          	sh	a5,-36(s0)
     a04:	00058793          	mv	a5,a1
     a08:	fcf41b23          	sh	a5,-42(s0)
     a0c:	00060793          	mv	a5,a2
     a10:	fcf41a23          	sh	a5,-44(s0)
     a14:	00068793          	mv	a5,a3
     a18:	fcf409a3          	sb	a5,-45(s0)
     a1c:	00070793          	mv	a5,a4
     a20:	fcf40923          	sb	a5,-46(s0)
     a24:	fe0406a3          	sb	zero,-19(s0)
     a28:	fde45783          	lhu	a5,-34(s0)
     a2c:	fef41423          	sh	a5,-24(s0)
     a30:	fd344783          	lbu	a5,-45(s0)
     a34:	0037d793          	srli	a5,a5,0x3
     a38:	0ff7f793          	andi	a5,a5,255
     a3c:	00078713          	mv	a4,a5
     a40:	fd344783          	lbu	a5,-45(s0)
     a44:	0077f793          	andi	a5,a5,7
     a48:	0ff7f793          	andi	a5,a5,255
     a4c:	00f037b3          	snez	a5,a5
     a50:	0ff7f793          	andi	a5,a5,255
     a54:	00f707b3          	add	a5,a4,a5
     a58:	01079713          	slli	a4,a5,0x10
     a5c:	01075713          	srli	a4,a4,0x10
     a60:	fd344783          	lbu	a5,-45(s0)
     a64:	01079793          	slli	a5,a5,0x10
     a68:	0107d793          	srli	a5,a5,0x10
     a6c:	02f707b3          	mul	a5,a4,a5
     a70:	fef41323          	sh	a5,-26(s0)
     a74:	00500793          	li	a5,5
     a78:	fef41223          	sh	a5,-28(s0)
     a7c:	fe041523          	sh	zero,-22(s0)
     a80:	2200006f          	j	ca0 <LCD_ShowChinese12x12+0x2d8>
     a84:	fea45683          	lhu	a3,-22(s0)
     a88:	100037b7          	lui	a5,0x10003
     a8c:	01a00713          	li	a4,26
     a90:	02e68733          	mul	a4,a3,a4
     a94:	3f478793          	addi	a5,a5,1012 # 100033f4 <tfont12>
     a98:	00f707b3          	add	a5,a4,a5
     a9c:	0007c703          	lbu	a4,0(a5)
     aa0:	fd842783          	lw	a5,-40(s0)
     aa4:	0007c783          	lbu	a5,0(a5)
     aa8:	1ef71663          	bne	a4,a5,c94 <LCD_ShowChinese12x12+0x2cc>
     aac:	fea45683          	lhu	a3,-22(s0)
     ab0:	100037b7          	lui	a5,0x10003
     ab4:	01a00713          	li	a4,26
     ab8:	02e68733          	mul	a4,a3,a4
     abc:	3f478793          	addi	a5,a5,1012 # 100033f4 <tfont12>
     ac0:	00f707b3          	add	a5,a4,a5
     ac4:	0017c703          	lbu	a4,1(a5)
     ac8:	fd842783          	lw	a5,-40(s0)
     acc:	00178793          	addi	a5,a5,1
     ad0:	0007c783          	lbu	a5,0(a5)
     ad4:	1cf71063          	bne	a4,a5,c94 <LCD_ShowChinese12x12+0x2cc>
     ad8:	fd344783          	lbu	a5,-45(s0)
     adc:	01079713          	slli	a4,a5,0x10
     ae0:	01075713          	srli	a4,a4,0x10
     ae4:	fde45783          	lhu	a5,-34(s0)
     ae8:	00f707b3          	add	a5,a4,a5
     aec:	01079793          	slli	a5,a5,0x10
     af0:	0107d793          	srli	a5,a5,0x10
     af4:	fff78793          	addi	a5,a5,-1
     af8:	01079613          	slli	a2,a5,0x10
     afc:	01065613          	srli	a2,a2,0x10
     b00:	fd344783          	lbu	a5,-45(s0)
     b04:	01079713          	slli	a4,a5,0x10
     b08:	01075713          	srli	a4,a4,0x10
     b0c:	fdc45783          	lhu	a5,-36(s0)
     b10:	00f707b3          	add	a5,a4,a5
     b14:	01079793          	slli	a5,a5,0x10
     b18:	0107d793          	srli	a5,a5,0x10
     b1c:	fff78793          	addi	a5,a5,-1
     b20:	01079693          	slli	a3,a5,0x10
     b24:	0106d693          	srli	a3,a3,0x10
     b28:	fdc45703          	lhu	a4,-36(s0)
     b2c:	fde45783          	lhu	a5,-34(s0)
     b30:	00070593          	mv	a1,a4
     b34:	00078513          	mv	a0,a5
     b38:	819ff0ef          	jal	ra,350 <LCD_Address_Set>
     b3c:	fe0407a3          	sb	zero,-17(s0)
     b40:	1400006f          	j	c80 <LCD_ShowChinese12x12+0x2b8>
     b44:	fe040723          	sb	zero,-18(s0)
     b48:	1200006f          	j	c68 <LCD_ShowChinese12x12+0x2a0>
     b4c:	fd244783          	lbu	a5,-46(s0)
     b50:	08079063          	bnez	a5,bd0 <LCD_ShowChinese12x12+0x208>
     b54:	fea45603          	lhu	a2,-22(s0)
     b58:	fef44703          	lbu	a4,-17(s0)
     b5c:	100037b7          	lui	a5,0x10003
     b60:	3f478693          	addi	a3,a5,1012 # 100033f4 <tfont12>
     b64:	01a00793          	li	a5,26
     b68:	02f607b3          	mul	a5,a2,a5
     b6c:	00f687b3          	add	a5,a3,a5
     b70:	00e787b3          	add	a5,a5,a4
     b74:	0027c783          	lbu	a5,2(a5)
     b78:	00078713          	mv	a4,a5
     b7c:	fee44783          	lbu	a5,-18(s0)
     b80:	40f757b3          	sra	a5,a4,a5
     b84:	0017f793          	andi	a5,a5,1
     b88:	00078a63          	beqz	a5,b9c <LCD_ShowChinese12x12+0x1d4>
     b8c:	fd645783          	lhu	a5,-42(s0)
     b90:	00078513          	mv	a0,a5
     b94:	ef4ff0ef          	jal	ra,288 <LCD_WR_DATA>
     b98:	0100006f          	j	ba8 <LCD_ShowChinese12x12+0x1e0>
     b9c:	fd445783          	lhu	a5,-44(s0)
     ba0:	00078513          	mv	a0,a5
     ba4:	ee4ff0ef          	jal	ra,288 <LCD_WR_DATA>
     ba8:	fed44783          	lbu	a5,-19(s0)
     bac:	00178793          	addi	a5,a5,1
     bb0:	fef406a3          	sb	a5,-19(s0)
     bb4:	fed44703          	lbu	a4,-19(s0)
     bb8:	fd344783          	lbu	a5,-45(s0)
     bbc:	02f777b3          	remu	a5,a4,a5
     bc0:	0ff7f793          	andi	a5,a5,255
     bc4:	08079c63          	bnez	a5,c5c <LCD_ShowChinese12x12+0x294>
     bc8:	fe0406a3          	sb	zero,-19(s0)
     bcc:	0a80006f          	j	c74 <LCD_ShowChinese12x12+0x2ac>
     bd0:	fea45603          	lhu	a2,-22(s0)
     bd4:	fef44703          	lbu	a4,-17(s0)
     bd8:	100037b7          	lui	a5,0x10003
     bdc:	3f478693          	addi	a3,a5,1012 # 100033f4 <tfont12>
     be0:	01a00793          	li	a5,26
     be4:	02f607b3          	mul	a5,a2,a5
     be8:	00f687b3          	add	a5,a3,a5
     bec:	00e787b3          	add	a5,a5,a4
     bf0:	0027c783          	lbu	a5,2(a5)
     bf4:	00078713          	mv	a4,a5
     bf8:	fee44783          	lbu	a5,-18(s0)
     bfc:	40f757b3          	sra	a5,a4,a5
     c00:	0017f793          	andi	a5,a5,1
     c04:	02078063          	beqz	a5,c24 <LCD_ShowChinese12x12+0x25c>
     c08:	fd645683          	lhu	a3,-42(s0)
     c0c:	fdc45703          	lhu	a4,-36(s0)
     c10:	fde45783          	lhu	a5,-34(s0)
     c14:	00068613          	mv	a2,a3
     c18:	00070593          	mv	a1,a4
     c1c:	00078513          	mv	a0,a5
     c20:	bc9ff0ef          	jal	ra,7e8 <LCD_DrawPoint>
     c24:	fde45783          	lhu	a5,-34(s0)
     c28:	00178793          	addi	a5,a5,1
     c2c:	fcf41f23          	sh	a5,-34(s0)
     c30:	fde45703          	lhu	a4,-34(s0)
     c34:	fe845783          	lhu	a5,-24(s0)
     c38:	40f70733          	sub	a4,a4,a5
     c3c:	fd344783          	lbu	a5,-45(s0)
     c40:	00f71e63          	bne	a4,a5,c5c <LCD_ShowChinese12x12+0x294>
     c44:	fe845783          	lhu	a5,-24(s0)
     c48:	fcf41f23          	sh	a5,-34(s0)
     c4c:	fdc45783          	lhu	a5,-36(s0)
     c50:	00178793          	addi	a5,a5,1
     c54:	fcf41e23          	sh	a5,-36(s0)
     c58:	01c0006f          	j	c74 <LCD_ShowChinese12x12+0x2ac>
     c5c:	fee44783          	lbu	a5,-18(s0)
     c60:	00178793          	addi	a5,a5,1
     c64:	fef40723          	sb	a5,-18(s0)
     c68:	fee44703          	lbu	a4,-18(s0)
     c6c:	00700793          	li	a5,7
     c70:	ece7fee3          	bgeu	a5,a4,b4c <LCD_ShowChinese12x12+0x184>
     c74:	fef44783          	lbu	a5,-17(s0)
     c78:	00178793          	addi	a5,a5,1
     c7c:	fef407a3          	sb	a5,-17(s0)
     c80:	fef44783          	lbu	a5,-17(s0)
     c84:	01079793          	slli	a5,a5,0x10
     c88:	0107d793          	srli	a5,a5,0x10
     c8c:	fe645703          	lhu	a4,-26(s0)
     c90:	eae7eae3          	bltu	a5,a4,b44 <LCD_ShowChinese12x12+0x17c>
     c94:	fea45783          	lhu	a5,-22(s0)
     c98:	00178793          	addi	a5,a5,1
     c9c:	fef41523          	sh	a5,-22(s0)
     ca0:	fea45703          	lhu	a4,-22(s0)
     ca4:	fe445783          	lhu	a5,-28(s0)
     ca8:	dcf76ee3          	bltu	a4,a5,a84 <LCD_ShowChinese12x12+0xbc>
     cac:	00000013          	nop
     cb0:	02c12083          	lw	ra,44(sp)
     cb4:	02812403          	lw	s0,40(sp)
     cb8:	03010113          	addi	sp,sp,48
     cbc:	00008067          	ret

00000cc0 <LCD_ShowChinese16x16>:
     cc0:	fd010113          	addi	sp,sp,-48
     cc4:	02112623          	sw	ra,44(sp)
     cc8:	02812423          	sw	s0,40(sp)
     ccc:	03010413          	addi	s0,sp,48
     cd0:	00050893          	mv	a7,a0
     cd4:	00058513          	mv	a0,a1
     cd8:	fcc42c23          	sw	a2,-40(s0)
     cdc:	00068593          	mv	a1,a3
     ce0:	00070613          	mv	a2,a4
     ce4:	00078693          	mv	a3,a5
     ce8:	00080713          	mv	a4,a6
     cec:	00088793          	mv	a5,a7
     cf0:	fcf41f23          	sh	a5,-34(s0)
     cf4:	00050793          	mv	a5,a0
     cf8:	fcf41e23          	sh	a5,-36(s0)
     cfc:	00058793          	mv	a5,a1
     d00:	fcf41b23          	sh	a5,-42(s0)
     d04:	00060793          	mv	a5,a2
     d08:	fcf41a23          	sh	a5,-44(s0)
     d0c:	00068793          	mv	a5,a3
     d10:	fcf409a3          	sb	a5,-45(s0)
     d14:	00070793          	mv	a5,a4
     d18:	fcf40923          	sb	a5,-46(s0)
     d1c:	fe0406a3          	sb	zero,-19(s0)
     d20:	fde45783          	lhu	a5,-34(s0)
     d24:	fef41423          	sh	a5,-24(s0)
     d28:	fd344783          	lbu	a5,-45(s0)
     d2c:	0037d793          	srli	a5,a5,0x3
     d30:	0ff7f793          	andi	a5,a5,255
     d34:	00078713          	mv	a4,a5
     d38:	fd344783          	lbu	a5,-45(s0)
     d3c:	0077f793          	andi	a5,a5,7
     d40:	0ff7f793          	andi	a5,a5,255
     d44:	00f037b3          	snez	a5,a5
     d48:	0ff7f793          	andi	a5,a5,255
     d4c:	00f707b3          	add	a5,a4,a5
     d50:	01079713          	slli	a4,a5,0x10
     d54:	01075713          	srli	a4,a4,0x10
     d58:	fd344783          	lbu	a5,-45(s0)
     d5c:	01079793          	slli	a5,a5,0x10
     d60:	0107d793          	srli	a5,a5,0x10
     d64:	02f707b3          	mul	a5,a4,a5
     d68:	fef41323          	sh	a5,-26(s0)
     d6c:	00500793          	li	a5,5
     d70:	fef41223          	sh	a5,-28(s0)
     d74:	fe041523          	sh	zero,-22(s0)
     d78:	2400006f          	j	fb8 <LCD_ShowChinese16x16+0x2f8>
     d7c:	fea45703          	lhu	a4,-22(s0)
     d80:	100036b7          	lui	a3,0x10003
     d84:	00070793          	mv	a5,a4
     d88:	00479793          	slli	a5,a5,0x4
     d8c:	00e787b3          	add	a5,a5,a4
     d90:	00179793          	slli	a5,a5,0x1
     d94:	47868713          	addi	a4,a3,1144 # 10003478 <tfont16>
     d98:	00e787b3          	add	a5,a5,a4
     d9c:	0007c703          	lbu	a4,0(a5)
     da0:	fd842783          	lw	a5,-40(s0)
     da4:	0007c783          	lbu	a5,0(a5)
     da8:	20f71263          	bne	a4,a5,fac <LCD_ShowChinese16x16+0x2ec>
     dac:	fea45703          	lhu	a4,-22(s0)
     db0:	100036b7          	lui	a3,0x10003
     db4:	00070793          	mv	a5,a4
     db8:	00479793          	slli	a5,a5,0x4
     dbc:	00e787b3          	add	a5,a5,a4
     dc0:	00179793          	slli	a5,a5,0x1
     dc4:	47868713          	addi	a4,a3,1144 # 10003478 <tfont16>
     dc8:	00e787b3          	add	a5,a5,a4
     dcc:	0017c703          	lbu	a4,1(a5)
     dd0:	fd842783          	lw	a5,-40(s0)
     dd4:	00178793          	addi	a5,a5,1
     dd8:	0007c783          	lbu	a5,0(a5)
     ddc:	1cf71863          	bne	a4,a5,fac <LCD_ShowChinese16x16+0x2ec>
     de0:	fd344783          	lbu	a5,-45(s0)
     de4:	01079713          	slli	a4,a5,0x10
     de8:	01075713          	srli	a4,a4,0x10
     dec:	fde45783          	lhu	a5,-34(s0)
     df0:	00f707b3          	add	a5,a4,a5
     df4:	01079793          	slli	a5,a5,0x10
     df8:	0107d793          	srli	a5,a5,0x10
     dfc:	fff78793          	addi	a5,a5,-1
     e00:	01079613          	slli	a2,a5,0x10
     e04:	01065613          	srli	a2,a2,0x10
     e08:	fd344783          	lbu	a5,-45(s0)
     e0c:	01079713          	slli	a4,a5,0x10
     e10:	01075713          	srli	a4,a4,0x10
     e14:	fdc45783          	lhu	a5,-36(s0)
     e18:	00f707b3          	add	a5,a4,a5
     e1c:	01079793          	slli	a5,a5,0x10
     e20:	0107d793          	srli	a5,a5,0x10
     e24:	fff78793          	addi	a5,a5,-1
     e28:	01079693          	slli	a3,a5,0x10
     e2c:	0106d693          	srli	a3,a3,0x10
     e30:	fdc45703          	lhu	a4,-36(s0)
     e34:	fde45783          	lhu	a5,-34(s0)
     e38:	00070593          	mv	a1,a4
     e3c:	00078513          	mv	a0,a5
     e40:	d10ff0ef          	jal	ra,350 <LCD_Address_Set>
     e44:	fe0407a3          	sb	zero,-17(s0)
     e48:	1500006f          	j	f98 <LCD_ShowChinese16x16+0x2d8>
     e4c:	fe040723          	sb	zero,-18(s0)
     e50:	1300006f          	j	f80 <LCD_ShowChinese16x16+0x2c0>
     e54:	fd244783          	lbu	a5,-46(s0)
     e58:	08079463          	bnez	a5,ee0 <LCD_ShowChinese16x16+0x220>
     e5c:	fea45703          	lhu	a4,-22(s0)
     e60:	fef44683          	lbu	a3,-17(s0)
     e64:	100037b7          	lui	a5,0x10003
     e68:	47878613          	addi	a2,a5,1144 # 10003478 <tfont16>
     e6c:	00070793          	mv	a5,a4
     e70:	00479793          	slli	a5,a5,0x4
     e74:	00e787b3          	add	a5,a5,a4
     e78:	00179793          	slli	a5,a5,0x1
     e7c:	00f607b3          	add	a5,a2,a5
     e80:	00d787b3          	add	a5,a5,a3
     e84:	0027c783          	lbu	a5,2(a5)
     e88:	00078713          	mv	a4,a5
     e8c:	fee44783          	lbu	a5,-18(s0)
     e90:	40f757b3          	sra	a5,a4,a5
     e94:	0017f793          	andi	a5,a5,1
     e98:	00078a63          	beqz	a5,eac <LCD_ShowChinese16x16+0x1ec>
     e9c:	fd645783          	lhu	a5,-42(s0)
     ea0:	00078513          	mv	a0,a5
     ea4:	be4ff0ef          	jal	ra,288 <LCD_WR_DATA>
     ea8:	0100006f          	j	eb8 <LCD_ShowChinese16x16+0x1f8>
     eac:	fd445783          	lhu	a5,-44(s0)
     eb0:	00078513          	mv	a0,a5
     eb4:	bd4ff0ef          	jal	ra,288 <LCD_WR_DATA>
     eb8:	fed44783          	lbu	a5,-19(s0)
     ebc:	00178793          	addi	a5,a5,1
     ec0:	fef406a3          	sb	a5,-19(s0)
     ec4:	fed44703          	lbu	a4,-19(s0)
     ec8:	fd344783          	lbu	a5,-45(s0)
     ecc:	02f777b3          	remu	a5,a4,a5
     ed0:	0ff7f793          	andi	a5,a5,255
     ed4:	0a079063          	bnez	a5,f74 <LCD_ShowChinese16x16+0x2b4>
     ed8:	fe0406a3          	sb	zero,-19(s0)
     edc:	0b00006f          	j	f8c <LCD_ShowChinese16x16+0x2cc>
     ee0:	fea45703          	lhu	a4,-22(s0)
     ee4:	fef44683          	lbu	a3,-17(s0)
     ee8:	100037b7          	lui	a5,0x10003
     eec:	47878613          	addi	a2,a5,1144 # 10003478 <tfont16>
     ef0:	00070793          	mv	a5,a4
     ef4:	00479793          	slli	a5,a5,0x4
     ef8:	00e787b3          	add	a5,a5,a4
     efc:	00179793          	slli	a5,a5,0x1
     f00:	00f607b3          	add	a5,a2,a5
     f04:	00d787b3          	add	a5,a5,a3
     f08:	0027c783          	lbu	a5,2(a5)
     f0c:	00078713          	mv	a4,a5
     f10:	fee44783          	lbu	a5,-18(s0)
     f14:	40f757b3          	sra	a5,a4,a5
     f18:	0017f793          	andi	a5,a5,1
     f1c:	02078063          	beqz	a5,f3c <LCD_ShowChinese16x16+0x27c>
     f20:	fd645683          	lhu	a3,-42(s0)
     f24:	fdc45703          	lhu	a4,-36(s0)
     f28:	fde45783          	lhu	a5,-34(s0)
     f2c:	00068613          	mv	a2,a3
     f30:	00070593          	mv	a1,a4
     f34:	00078513          	mv	a0,a5
     f38:	8b1ff0ef          	jal	ra,7e8 <LCD_DrawPoint>
     f3c:	fde45783          	lhu	a5,-34(s0)
     f40:	00178793          	addi	a5,a5,1
     f44:	fcf41f23          	sh	a5,-34(s0)
     f48:	fde45703          	lhu	a4,-34(s0)
     f4c:	fe845783          	lhu	a5,-24(s0)
     f50:	40f70733          	sub	a4,a4,a5
     f54:	fd344783          	lbu	a5,-45(s0)
     f58:	00f71e63          	bne	a4,a5,f74 <LCD_ShowChinese16x16+0x2b4>
     f5c:	fe845783          	lhu	a5,-24(s0)
     f60:	fcf41f23          	sh	a5,-34(s0)
     f64:	fdc45783          	lhu	a5,-36(s0)
     f68:	00178793          	addi	a5,a5,1
     f6c:	fcf41e23          	sh	a5,-36(s0)
     f70:	01c0006f          	j	f8c <LCD_ShowChinese16x16+0x2cc>
     f74:	fee44783          	lbu	a5,-18(s0)
     f78:	00178793          	addi	a5,a5,1
     f7c:	fef40723          	sb	a5,-18(s0)
     f80:	fee44703          	lbu	a4,-18(s0)
     f84:	00700793          	li	a5,7
     f88:	ece7f6e3          	bgeu	a5,a4,e54 <LCD_ShowChinese16x16+0x194>
     f8c:	fef44783          	lbu	a5,-17(s0)
     f90:	00178793          	addi	a5,a5,1
     f94:	fef407a3          	sb	a5,-17(s0)
     f98:	fef44783          	lbu	a5,-17(s0)
     f9c:	01079793          	slli	a5,a5,0x10
     fa0:	0107d793          	srli	a5,a5,0x10
     fa4:	fe645703          	lhu	a4,-26(s0)
     fa8:	eae7e2e3          	bltu	a5,a4,e4c <LCD_ShowChinese16x16+0x18c>
     fac:	fea45783          	lhu	a5,-22(s0)
     fb0:	00178793          	addi	a5,a5,1
     fb4:	fef41523          	sh	a5,-22(s0)
     fb8:	fea45703          	lhu	a4,-22(s0)
     fbc:	fe445783          	lhu	a5,-28(s0)
     fc0:	daf76ee3          	bltu	a4,a5,d7c <LCD_ShowChinese16x16+0xbc>
     fc4:	00000013          	nop
     fc8:	02c12083          	lw	ra,44(sp)
     fcc:	02812403          	lw	s0,40(sp)
     fd0:	03010113          	addi	sp,sp,48
     fd4:	00008067          	ret

00000fd8 <LCD_ShowChinese24x24>:
     fd8:	fd010113          	addi	sp,sp,-48
     fdc:	02112623          	sw	ra,44(sp)
     fe0:	02812423          	sw	s0,40(sp)
     fe4:	03010413          	addi	s0,sp,48
     fe8:	00050893          	mv	a7,a0
     fec:	00058513          	mv	a0,a1
     ff0:	fcc42c23          	sw	a2,-40(s0)
     ff4:	00068593          	mv	a1,a3
     ff8:	00070613          	mv	a2,a4
     ffc:	00078693          	mv	a3,a5
    1000:	00080713          	mv	a4,a6
    1004:	00088793          	mv	a5,a7
    1008:	fcf41f23          	sh	a5,-34(s0)
    100c:	00050793          	mv	a5,a0
    1010:	fcf41e23          	sh	a5,-36(s0)
    1014:	00058793          	mv	a5,a1
    1018:	fcf41b23          	sh	a5,-42(s0)
    101c:	00060793          	mv	a5,a2
    1020:	fcf41a23          	sh	a5,-44(s0)
    1024:	00068793          	mv	a5,a3
    1028:	fcf409a3          	sb	a5,-45(s0)
    102c:	00070793          	mv	a5,a4
    1030:	fcf40923          	sb	a5,-46(s0)
    1034:	fe0406a3          	sb	zero,-19(s0)
    1038:	fde45783          	lhu	a5,-34(s0)
    103c:	fef41423          	sh	a5,-24(s0)
    1040:	fd344783          	lbu	a5,-45(s0)
    1044:	0037d793          	srli	a5,a5,0x3
    1048:	0ff7f793          	andi	a5,a5,255
    104c:	00078713          	mv	a4,a5
    1050:	fd344783          	lbu	a5,-45(s0)
    1054:	0077f793          	andi	a5,a5,7
    1058:	0ff7f793          	andi	a5,a5,255
    105c:	00f037b3          	snez	a5,a5
    1060:	0ff7f793          	andi	a5,a5,255
    1064:	00f707b3          	add	a5,a4,a5
    1068:	01079713          	slli	a4,a5,0x10
    106c:	01075713          	srli	a4,a4,0x10
    1070:	fd344783          	lbu	a5,-45(s0)
    1074:	01079793          	slli	a5,a5,0x10
    1078:	0107d793          	srli	a5,a5,0x10
    107c:	02f707b3          	mul	a5,a4,a5
    1080:	fef41323          	sh	a5,-26(s0)
    1084:	00500793          	li	a5,5
    1088:	fef41223          	sh	a5,-28(s0)
    108c:	fe041523          	sh	zero,-22(s0)
    1090:	2200006f          	j	12b0 <LCD_ShowChinese24x24+0x2d8>
    1094:	fea45683          	lhu	a3,-22(s0)
    1098:	100037b7          	lui	a5,0x10003
    109c:	04a00713          	li	a4,74
    10a0:	02e68733          	mul	a4,a3,a4
    10a4:	52478793          	addi	a5,a5,1316 # 10003524 <tfont24>
    10a8:	00f707b3          	add	a5,a4,a5
    10ac:	0007c703          	lbu	a4,0(a5)
    10b0:	fd842783          	lw	a5,-40(s0)
    10b4:	0007c783          	lbu	a5,0(a5)
    10b8:	1ef71663          	bne	a4,a5,12a4 <LCD_ShowChinese24x24+0x2cc>
    10bc:	fea45683          	lhu	a3,-22(s0)
    10c0:	100037b7          	lui	a5,0x10003
    10c4:	04a00713          	li	a4,74
    10c8:	02e68733          	mul	a4,a3,a4
    10cc:	52478793          	addi	a5,a5,1316 # 10003524 <tfont24>
    10d0:	00f707b3          	add	a5,a4,a5
    10d4:	0017c703          	lbu	a4,1(a5)
    10d8:	fd842783          	lw	a5,-40(s0)
    10dc:	00178793          	addi	a5,a5,1
    10e0:	0007c783          	lbu	a5,0(a5)
    10e4:	1cf71063          	bne	a4,a5,12a4 <LCD_ShowChinese24x24+0x2cc>
    10e8:	fd344783          	lbu	a5,-45(s0)
    10ec:	01079713          	slli	a4,a5,0x10
    10f0:	01075713          	srli	a4,a4,0x10
    10f4:	fde45783          	lhu	a5,-34(s0)
    10f8:	00f707b3          	add	a5,a4,a5
    10fc:	01079793          	slli	a5,a5,0x10
    1100:	0107d793          	srli	a5,a5,0x10
    1104:	fff78793          	addi	a5,a5,-1
    1108:	01079613          	slli	a2,a5,0x10
    110c:	01065613          	srli	a2,a2,0x10
    1110:	fd344783          	lbu	a5,-45(s0)
    1114:	01079713          	slli	a4,a5,0x10
    1118:	01075713          	srli	a4,a4,0x10
    111c:	fdc45783          	lhu	a5,-36(s0)
    1120:	00f707b3          	add	a5,a4,a5
    1124:	01079793          	slli	a5,a5,0x10
    1128:	0107d793          	srli	a5,a5,0x10
    112c:	fff78793          	addi	a5,a5,-1
    1130:	01079693          	slli	a3,a5,0x10
    1134:	0106d693          	srli	a3,a3,0x10
    1138:	fdc45703          	lhu	a4,-36(s0)
    113c:	fde45783          	lhu	a5,-34(s0)
    1140:	00070593          	mv	a1,a4
    1144:	00078513          	mv	a0,a5
    1148:	a08ff0ef          	jal	ra,350 <LCD_Address_Set>
    114c:	fe0407a3          	sb	zero,-17(s0)
    1150:	1400006f          	j	1290 <LCD_ShowChinese24x24+0x2b8>
    1154:	fe040723          	sb	zero,-18(s0)
    1158:	1200006f          	j	1278 <LCD_ShowChinese24x24+0x2a0>
    115c:	fd244783          	lbu	a5,-46(s0)
    1160:	08079063          	bnez	a5,11e0 <LCD_ShowChinese24x24+0x208>
    1164:	fea45603          	lhu	a2,-22(s0)
    1168:	fef44703          	lbu	a4,-17(s0)
    116c:	100037b7          	lui	a5,0x10003
    1170:	52478693          	addi	a3,a5,1316 # 10003524 <tfont24>
    1174:	04a00793          	li	a5,74
    1178:	02f607b3          	mul	a5,a2,a5
    117c:	00f687b3          	add	a5,a3,a5
    1180:	00e787b3          	add	a5,a5,a4
    1184:	0027c783          	lbu	a5,2(a5)
    1188:	00078713          	mv	a4,a5
    118c:	fee44783          	lbu	a5,-18(s0)
    1190:	40f757b3          	sra	a5,a4,a5
    1194:	0017f793          	andi	a5,a5,1
    1198:	00078a63          	beqz	a5,11ac <LCD_ShowChinese24x24+0x1d4>
    119c:	fd645783          	lhu	a5,-42(s0)
    11a0:	00078513          	mv	a0,a5
    11a4:	8e4ff0ef          	jal	ra,288 <LCD_WR_DATA>
    11a8:	0100006f          	j	11b8 <LCD_ShowChinese24x24+0x1e0>
    11ac:	fd445783          	lhu	a5,-44(s0)
    11b0:	00078513          	mv	a0,a5
    11b4:	8d4ff0ef          	jal	ra,288 <LCD_WR_DATA>
    11b8:	fed44783          	lbu	a5,-19(s0)
    11bc:	00178793          	addi	a5,a5,1
    11c0:	fef406a3          	sb	a5,-19(s0)
    11c4:	fed44703          	lbu	a4,-19(s0)
    11c8:	fd344783          	lbu	a5,-45(s0)
    11cc:	02f777b3          	remu	a5,a4,a5
    11d0:	0ff7f793          	andi	a5,a5,255
    11d4:	08079c63          	bnez	a5,126c <LCD_ShowChinese24x24+0x294>
    11d8:	fe0406a3          	sb	zero,-19(s0)
    11dc:	0a80006f          	j	1284 <LCD_ShowChinese24x24+0x2ac>
    11e0:	fea45603          	lhu	a2,-22(s0)
    11e4:	fef44703          	lbu	a4,-17(s0)
    11e8:	100037b7          	lui	a5,0x10003
    11ec:	52478693          	addi	a3,a5,1316 # 10003524 <tfont24>
    11f0:	04a00793          	li	a5,74
    11f4:	02f607b3          	mul	a5,a2,a5
    11f8:	00f687b3          	add	a5,a3,a5
    11fc:	00e787b3          	add	a5,a5,a4
    1200:	0027c783          	lbu	a5,2(a5)
    1204:	00078713          	mv	a4,a5
    1208:	fee44783          	lbu	a5,-18(s0)
    120c:	40f757b3          	sra	a5,a4,a5
    1210:	0017f793          	andi	a5,a5,1
    1214:	02078063          	beqz	a5,1234 <LCD_ShowChinese24x24+0x25c>
    1218:	fd645683          	lhu	a3,-42(s0)
    121c:	fdc45703          	lhu	a4,-36(s0)
    1220:	fde45783          	lhu	a5,-34(s0)
    1224:	00068613          	mv	a2,a3
    1228:	00070593          	mv	a1,a4
    122c:	00078513          	mv	a0,a5
    1230:	db8ff0ef          	jal	ra,7e8 <LCD_DrawPoint>
    1234:	fde45783          	lhu	a5,-34(s0)
    1238:	00178793          	addi	a5,a5,1
    123c:	fcf41f23          	sh	a5,-34(s0)
    1240:	fde45703          	lhu	a4,-34(s0)
    1244:	fe845783          	lhu	a5,-24(s0)
    1248:	40f70733          	sub	a4,a4,a5
    124c:	fd344783          	lbu	a5,-45(s0)
    1250:	00f71e63          	bne	a4,a5,126c <LCD_ShowChinese24x24+0x294>
    1254:	fe845783          	lhu	a5,-24(s0)
    1258:	fcf41f23          	sh	a5,-34(s0)
    125c:	fdc45783          	lhu	a5,-36(s0)
    1260:	00178793          	addi	a5,a5,1
    1264:	fcf41e23          	sh	a5,-36(s0)
    1268:	01c0006f          	j	1284 <LCD_ShowChinese24x24+0x2ac>
    126c:	fee44783          	lbu	a5,-18(s0)
    1270:	00178793          	addi	a5,a5,1
    1274:	fef40723          	sb	a5,-18(s0)
    1278:	fee44703          	lbu	a4,-18(s0)
    127c:	00700793          	li	a5,7
    1280:	ece7fee3          	bgeu	a5,a4,115c <LCD_ShowChinese24x24+0x184>
    1284:	fef44783          	lbu	a5,-17(s0)
    1288:	00178793          	addi	a5,a5,1
    128c:	fef407a3          	sb	a5,-17(s0)
    1290:	fef44783          	lbu	a5,-17(s0)
    1294:	01079793          	slli	a5,a5,0x10
    1298:	0107d793          	srli	a5,a5,0x10
    129c:	fe645703          	lhu	a4,-26(s0)
    12a0:	eae7eae3          	bltu	a5,a4,1154 <LCD_ShowChinese24x24+0x17c>
    12a4:	fea45783          	lhu	a5,-22(s0)
    12a8:	00178793          	addi	a5,a5,1
    12ac:	fef41523          	sh	a5,-22(s0)
    12b0:	fea45703          	lhu	a4,-22(s0)
    12b4:	fe445783          	lhu	a5,-28(s0)
    12b8:	dcf76ee3          	bltu	a4,a5,1094 <LCD_ShowChinese24x24+0xbc>
    12bc:	00000013          	nop
    12c0:	02c12083          	lw	ra,44(sp)
    12c4:	02812403          	lw	s0,40(sp)
    12c8:	03010113          	addi	sp,sp,48
    12cc:	00008067          	ret

000012d0 <LCD_ShowChinese32x32>:
    12d0:	fd010113          	addi	sp,sp,-48
    12d4:	02112623          	sw	ra,44(sp)
    12d8:	02812423          	sw	s0,40(sp)
    12dc:	03010413          	addi	s0,sp,48
    12e0:	00050893          	mv	a7,a0
    12e4:	00058513          	mv	a0,a1
    12e8:	fcc42c23          	sw	a2,-40(s0)
    12ec:	00068593          	mv	a1,a3
    12f0:	00070613          	mv	a2,a4
    12f4:	00078693          	mv	a3,a5
    12f8:	00080713          	mv	a4,a6
    12fc:	00088793          	mv	a5,a7
    1300:	fcf41f23          	sh	a5,-34(s0)
    1304:	00050793          	mv	a5,a0
    1308:	fcf41e23          	sh	a5,-36(s0)
    130c:	00058793          	mv	a5,a1
    1310:	fcf41b23          	sh	a5,-42(s0)
    1314:	00060793          	mv	a5,a2
    1318:	fcf41a23          	sh	a5,-44(s0)
    131c:	00068793          	mv	a5,a3
    1320:	fcf409a3          	sb	a5,-45(s0)
    1324:	00070793          	mv	a5,a4
    1328:	fcf40923          	sb	a5,-46(s0)
    132c:	fe0406a3          	sb	zero,-19(s0)
    1330:	fde45783          	lhu	a5,-34(s0)
    1334:	fef41423          	sh	a5,-24(s0)
    1338:	fd344783          	lbu	a5,-45(s0)
    133c:	0037d793          	srli	a5,a5,0x3
    1340:	0ff7f793          	andi	a5,a5,255
    1344:	00078713          	mv	a4,a5
    1348:	fd344783          	lbu	a5,-45(s0)
    134c:	0077f793          	andi	a5,a5,7
    1350:	0ff7f793          	andi	a5,a5,255
    1354:	00f037b3          	snez	a5,a5
    1358:	0ff7f793          	andi	a5,a5,255
    135c:	00f707b3          	add	a5,a4,a5
    1360:	01079713          	slli	a4,a5,0x10
    1364:	01075713          	srli	a4,a4,0x10
    1368:	fd344783          	lbu	a5,-45(s0)
    136c:	01079793          	slli	a5,a5,0x10
    1370:	0107d793          	srli	a5,a5,0x10
    1374:	02f707b3          	mul	a5,a4,a5
    1378:	fef41323          	sh	a5,-26(s0)
    137c:	00500793          	li	a5,5
    1380:	fef41223          	sh	a5,-28(s0)
    1384:	fe041523          	sh	zero,-22(s0)
    1388:	2400006f          	j	15c8 <LCD_ShowChinese32x32+0x2f8>
    138c:	fea45703          	lhu	a4,-22(s0)
    1390:	100036b7          	lui	a3,0x10003
    1394:	00070793          	mv	a5,a4
    1398:	00679793          	slli	a5,a5,0x6
    139c:	00e787b3          	add	a5,a5,a4
    13a0:	00179793          	slli	a5,a5,0x1
    13a4:	69868713          	addi	a4,a3,1688 # 10003698 <tfont32>
    13a8:	00e787b3          	add	a5,a5,a4
    13ac:	0007c703          	lbu	a4,0(a5)
    13b0:	fd842783          	lw	a5,-40(s0)
    13b4:	0007c783          	lbu	a5,0(a5)
    13b8:	20f71263          	bne	a4,a5,15bc <LCD_ShowChinese32x32+0x2ec>
    13bc:	fea45703          	lhu	a4,-22(s0)
    13c0:	100036b7          	lui	a3,0x10003
    13c4:	00070793          	mv	a5,a4
    13c8:	00679793          	slli	a5,a5,0x6
    13cc:	00e787b3          	add	a5,a5,a4
    13d0:	00179793          	slli	a5,a5,0x1
    13d4:	69868713          	addi	a4,a3,1688 # 10003698 <tfont32>
    13d8:	00e787b3          	add	a5,a5,a4
    13dc:	0017c703          	lbu	a4,1(a5)
    13e0:	fd842783          	lw	a5,-40(s0)
    13e4:	00178793          	addi	a5,a5,1
    13e8:	0007c783          	lbu	a5,0(a5)
    13ec:	1cf71863          	bne	a4,a5,15bc <LCD_ShowChinese32x32+0x2ec>
    13f0:	fd344783          	lbu	a5,-45(s0)
    13f4:	01079713          	slli	a4,a5,0x10
    13f8:	01075713          	srli	a4,a4,0x10
    13fc:	fde45783          	lhu	a5,-34(s0)
    1400:	00f707b3          	add	a5,a4,a5
    1404:	01079793          	slli	a5,a5,0x10
    1408:	0107d793          	srli	a5,a5,0x10
    140c:	fff78793          	addi	a5,a5,-1
    1410:	01079613          	slli	a2,a5,0x10
    1414:	01065613          	srli	a2,a2,0x10
    1418:	fd344783          	lbu	a5,-45(s0)
    141c:	01079713          	slli	a4,a5,0x10
    1420:	01075713          	srli	a4,a4,0x10
    1424:	fdc45783          	lhu	a5,-36(s0)
    1428:	00f707b3          	add	a5,a4,a5
    142c:	01079793          	slli	a5,a5,0x10
    1430:	0107d793          	srli	a5,a5,0x10
    1434:	fff78793          	addi	a5,a5,-1
    1438:	01079693          	slli	a3,a5,0x10
    143c:	0106d693          	srli	a3,a3,0x10
    1440:	fdc45703          	lhu	a4,-36(s0)
    1444:	fde45783          	lhu	a5,-34(s0)
    1448:	00070593          	mv	a1,a4
    144c:	00078513          	mv	a0,a5
    1450:	f01fe0ef          	jal	ra,350 <LCD_Address_Set>
    1454:	fe0407a3          	sb	zero,-17(s0)
    1458:	1500006f          	j	15a8 <LCD_ShowChinese32x32+0x2d8>
    145c:	fe040723          	sb	zero,-18(s0)
    1460:	1300006f          	j	1590 <LCD_ShowChinese32x32+0x2c0>
    1464:	fd244783          	lbu	a5,-46(s0)
    1468:	08079463          	bnez	a5,14f0 <LCD_ShowChinese32x32+0x220>
    146c:	fea45703          	lhu	a4,-22(s0)
    1470:	fef44683          	lbu	a3,-17(s0)
    1474:	100037b7          	lui	a5,0x10003
    1478:	69878613          	addi	a2,a5,1688 # 10003698 <tfont32>
    147c:	00070793          	mv	a5,a4
    1480:	00679793          	slli	a5,a5,0x6
    1484:	00e787b3          	add	a5,a5,a4
    1488:	00179793          	slli	a5,a5,0x1
    148c:	00f607b3          	add	a5,a2,a5
    1490:	00d787b3          	add	a5,a5,a3
    1494:	0027c783          	lbu	a5,2(a5)
    1498:	00078713          	mv	a4,a5
    149c:	fee44783          	lbu	a5,-18(s0)
    14a0:	40f757b3          	sra	a5,a4,a5
    14a4:	0017f793          	andi	a5,a5,1
    14a8:	00078a63          	beqz	a5,14bc <LCD_ShowChinese32x32+0x1ec>
    14ac:	fd645783          	lhu	a5,-42(s0)
    14b0:	00078513          	mv	a0,a5
    14b4:	dd5fe0ef          	jal	ra,288 <LCD_WR_DATA>
    14b8:	0100006f          	j	14c8 <LCD_ShowChinese32x32+0x1f8>
    14bc:	fd445783          	lhu	a5,-44(s0)
    14c0:	00078513          	mv	a0,a5
    14c4:	dc5fe0ef          	jal	ra,288 <LCD_WR_DATA>
    14c8:	fed44783          	lbu	a5,-19(s0)
    14cc:	00178793          	addi	a5,a5,1
    14d0:	fef406a3          	sb	a5,-19(s0)
    14d4:	fed44703          	lbu	a4,-19(s0)
    14d8:	fd344783          	lbu	a5,-45(s0)
    14dc:	02f777b3          	remu	a5,a4,a5
    14e0:	0ff7f793          	andi	a5,a5,255
    14e4:	0a079063          	bnez	a5,1584 <LCD_ShowChinese32x32+0x2b4>
    14e8:	fe0406a3          	sb	zero,-19(s0)
    14ec:	0b00006f          	j	159c <LCD_ShowChinese32x32+0x2cc>
    14f0:	fea45703          	lhu	a4,-22(s0)
    14f4:	fef44683          	lbu	a3,-17(s0)
    14f8:	100037b7          	lui	a5,0x10003
    14fc:	69878613          	addi	a2,a5,1688 # 10003698 <tfont32>
    1500:	00070793          	mv	a5,a4
    1504:	00679793          	slli	a5,a5,0x6
    1508:	00e787b3          	add	a5,a5,a4
    150c:	00179793          	slli	a5,a5,0x1
    1510:	00f607b3          	add	a5,a2,a5
    1514:	00d787b3          	add	a5,a5,a3
    1518:	0027c783          	lbu	a5,2(a5)
    151c:	00078713          	mv	a4,a5
    1520:	fee44783          	lbu	a5,-18(s0)
    1524:	40f757b3          	sra	a5,a4,a5
    1528:	0017f793          	andi	a5,a5,1
    152c:	02078063          	beqz	a5,154c <LCD_ShowChinese32x32+0x27c>
    1530:	fd645683          	lhu	a3,-42(s0)
    1534:	fdc45703          	lhu	a4,-36(s0)
    1538:	fde45783          	lhu	a5,-34(s0)
    153c:	00068613          	mv	a2,a3
    1540:	00070593          	mv	a1,a4
    1544:	00078513          	mv	a0,a5
    1548:	aa0ff0ef          	jal	ra,7e8 <LCD_DrawPoint>
    154c:	fde45783          	lhu	a5,-34(s0)
    1550:	00178793          	addi	a5,a5,1
    1554:	fcf41f23          	sh	a5,-34(s0)
    1558:	fde45703          	lhu	a4,-34(s0)
    155c:	fe845783          	lhu	a5,-24(s0)
    1560:	40f70733          	sub	a4,a4,a5
    1564:	fd344783          	lbu	a5,-45(s0)
    1568:	00f71e63          	bne	a4,a5,1584 <LCD_ShowChinese32x32+0x2b4>
    156c:	fe845783          	lhu	a5,-24(s0)
    1570:	fcf41f23          	sh	a5,-34(s0)
    1574:	fdc45783          	lhu	a5,-36(s0)
    1578:	00178793          	addi	a5,a5,1
    157c:	fcf41e23          	sh	a5,-36(s0)
    1580:	01c0006f          	j	159c <LCD_ShowChinese32x32+0x2cc>
    1584:	fee44783          	lbu	a5,-18(s0)
    1588:	00178793          	addi	a5,a5,1
    158c:	fef40723          	sb	a5,-18(s0)
    1590:	fee44703          	lbu	a4,-18(s0)
    1594:	00700793          	li	a5,7
    1598:	ece7f6e3          	bgeu	a5,a4,1464 <LCD_ShowChinese32x32+0x194>
    159c:	fef44783          	lbu	a5,-17(s0)
    15a0:	00178793          	addi	a5,a5,1
    15a4:	fef407a3          	sb	a5,-17(s0)
    15a8:	fef44783          	lbu	a5,-17(s0)
    15ac:	01079793          	slli	a5,a5,0x10
    15b0:	0107d793          	srli	a5,a5,0x10
    15b4:	fe645703          	lhu	a4,-26(s0)
    15b8:	eae7e2e3          	bltu	a5,a4,145c <LCD_ShowChinese32x32+0x18c>
    15bc:	fea45783          	lhu	a5,-22(s0)
    15c0:	00178793          	addi	a5,a5,1
    15c4:	fef41523          	sh	a5,-22(s0)
    15c8:	fea45703          	lhu	a4,-22(s0)
    15cc:	fe445783          	lhu	a5,-28(s0)
    15d0:	daf76ee3          	bltu	a4,a5,138c <LCD_ShowChinese32x32+0xbc>
    15d4:	00000013          	nop
    15d8:	02c12083          	lw	ra,44(sp)
    15dc:	02812403          	lw	s0,40(sp)
    15e0:	03010113          	addi	sp,sp,48
    15e4:	00008067          	ret

000015e8 <LCD_ShowChar>:
    15e8:	fd010113          	addi	sp,sp,-48
    15ec:	02112623          	sw	ra,44(sp)
    15f0:	02812423          	sw	s0,40(sp)
    15f4:	03010413          	addi	s0,sp,48
    15f8:	00050313          	mv	t1,a0
    15fc:	00058893          	mv	a7,a1
    1600:	00060513          	mv	a0,a2
    1604:	00068593          	mv	a1,a3
    1608:	00070613          	mv	a2,a4
    160c:	00078693          	mv	a3,a5
    1610:	00080713          	mv	a4,a6
    1614:	00030793          	mv	a5,t1
    1618:	fcf41f23          	sh	a5,-34(s0)
    161c:	00088793          	mv	a5,a7
    1620:	fcf41e23          	sh	a5,-36(s0)
    1624:	00050793          	mv	a5,a0
    1628:	fcf40da3          	sb	a5,-37(s0)
    162c:	00058793          	mv	a5,a1
    1630:	fcf41c23          	sh	a5,-40(s0)
    1634:	00060793          	mv	a5,a2
    1638:	fcf41b23          	sh	a5,-42(s0)
    163c:	00068793          	mv	a5,a3
    1640:	fcf40d23          	sb	a5,-38(s0)
    1644:	00070793          	mv	a5,a4
    1648:	fcf40aa3          	sb	a5,-43(s0)
    164c:	fe0406a3          	sb	zero,-19(s0)
    1650:	fde45783          	lhu	a5,-34(s0)
    1654:	fef41423          	sh	a5,-24(s0)
    1658:	fda44783          	lbu	a5,-38(s0)
    165c:	0017d793          	srli	a5,a5,0x1
    1660:	fef403a3          	sb	a5,-25(s0)
    1664:	fe744783          	lbu	a5,-25(s0)
    1668:	0037d793          	srli	a5,a5,0x3
    166c:	0ff7f793          	andi	a5,a5,255
    1670:	00078713          	mv	a4,a5
    1674:	fe744783          	lbu	a5,-25(s0)
    1678:	0077f793          	andi	a5,a5,7
    167c:	0ff7f793          	andi	a5,a5,255
    1680:	00f037b3          	snez	a5,a5
    1684:	0ff7f793          	andi	a5,a5,255
    1688:	00f707b3          	add	a5,a4,a5
    168c:	01079713          	slli	a4,a5,0x10
    1690:	01075713          	srli	a4,a4,0x10
    1694:	fda44783          	lbu	a5,-38(s0)
    1698:	01079793          	slli	a5,a5,0x10
    169c:	0107d793          	srli	a5,a5,0x10
    16a0:	02f707b3          	mul	a5,a4,a5
    16a4:	fef41223          	sh	a5,-28(s0)
    16a8:	fdb44783          	lbu	a5,-37(s0)
    16ac:	fe078793          	addi	a5,a5,-32
    16b0:	fcf40da3          	sb	a5,-37(s0)
    16b4:	fe744783          	lbu	a5,-25(s0)
    16b8:	01079713          	slli	a4,a5,0x10
    16bc:	01075713          	srli	a4,a4,0x10
    16c0:	fde45783          	lhu	a5,-34(s0)
    16c4:	00f707b3          	add	a5,a4,a5
    16c8:	01079793          	slli	a5,a5,0x10
    16cc:	0107d793          	srli	a5,a5,0x10
    16d0:	fff78793          	addi	a5,a5,-1
    16d4:	01079613          	slli	a2,a5,0x10
    16d8:	01065613          	srli	a2,a2,0x10
    16dc:	fda44783          	lbu	a5,-38(s0)
    16e0:	01079713          	slli	a4,a5,0x10
    16e4:	01075713          	srli	a4,a4,0x10
    16e8:	fdc45783          	lhu	a5,-36(s0)
    16ec:	00f707b3          	add	a5,a4,a5
    16f0:	01079793          	slli	a5,a5,0x10
    16f4:	0107d793          	srli	a5,a5,0x10
    16f8:	fff78793          	addi	a5,a5,-1
    16fc:	01079693          	slli	a3,a5,0x10
    1700:	0106d693          	srli	a3,a3,0x10
    1704:	fdc45703          	lhu	a4,-36(s0)
    1708:	fde45783          	lhu	a5,-34(s0)
    170c:	00070593          	mv	a1,a4
    1710:	00078513          	mv	a0,a5
    1714:	c3dfe0ef          	jal	ra,350 <LCD_Address_Set>
    1718:	fe041523          	sh	zero,-22(s0)
    171c:	1dc0006f          	j	18f8 <LCD_ShowChar+0x310>
    1720:	fda44703          	lbu	a4,-38(s0)
    1724:	00c00793          	li	a5,12
    1728:	02f71c63          	bne	a4,a5,1760 <LCD_ShowChar+0x178>
    172c:	fdb44703          	lbu	a4,-37(s0)
    1730:	fea45683          	lhu	a3,-22(s0)
    1734:	10000637          	lui	a2,0x10000
    1738:	00070793          	mv	a5,a4
    173c:	00179793          	slli	a5,a5,0x1
    1740:	00e787b3          	add	a5,a5,a4
    1744:	00279793          	slli	a5,a5,0x2
    1748:	00060713          	mv	a4,a2
    174c:	00e787b3          	add	a5,a5,a4
    1750:	00d787b3          	add	a5,a5,a3
    1754:	0007c783          	lbu	a5,0(a5)
    1758:	fef407a3          	sb	a5,-17(s0)
    175c:	0a80006f          	j	1804 <LCD_ShowChar+0x21c>
    1760:	fda44703          	lbu	a4,-38(s0)
    1764:	01000793          	li	a5,16
    1768:	02f71663          	bne	a4,a5,1794 <LCD_ShowChar+0x1ac>
    176c:	fdb44683          	lbu	a3,-37(s0)
    1770:	fea45783          	lhu	a5,-22(s0)
    1774:	10000737          	lui	a4,0x10000
    1778:	00469693          	slli	a3,a3,0x4
    177c:	47470713          	addi	a4,a4,1140 # 10000474 <ascii_1608>
    1780:	00e68733          	add	a4,a3,a4
    1784:	00f707b3          	add	a5,a4,a5
    1788:	0007c783          	lbu	a5,0(a5)
    178c:	fef407a3          	sb	a5,-17(s0)
    1790:	0740006f          	j	1804 <LCD_ShowChar+0x21c>
    1794:	fda44703          	lbu	a4,-38(s0)
    1798:	01800793          	li	a5,24
    179c:	02f71c63          	bne	a4,a5,17d4 <LCD_ShowChar+0x1ec>
    17a0:	fdb44703          	lbu	a4,-37(s0)
    17a4:	fea45683          	lhu	a3,-22(s0)
    17a8:	10001637          	lui	a2,0x10001
    17ac:	00070793          	mv	a5,a4
    17b0:	00179793          	slli	a5,a5,0x1
    17b4:	00e787b3          	add	a5,a5,a4
    17b8:	00479793          	slli	a5,a5,0x4
    17bc:	a6460713          	addi	a4,a2,-1436 # 10000a64 <ascii_2412>
    17c0:	00e787b3          	add	a5,a5,a4
    17c4:	00d787b3          	add	a5,a5,a3
    17c8:	0007c783          	lbu	a5,0(a5)
    17cc:	fef407a3          	sb	a5,-17(s0)
    17d0:	0340006f          	j	1804 <LCD_ShowChar+0x21c>
    17d4:	fda44703          	lbu	a4,-38(s0)
    17d8:	02000793          	li	a5,32
    17dc:	12f71663          	bne	a4,a5,1908 <LCD_ShowChar+0x320>
    17e0:	fdb44683          	lbu	a3,-37(s0)
    17e4:	fea45783          	lhu	a5,-22(s0)
    17e8:	10002737          	lui	a4,0x10002
    17ec:	00669693          	slli	a3,a3,0x6
    17f0:	c3470713          	addi	a4,a4,-972 # 10001c34 <ascii_3216>
    17f4:	00e68733          	add	a4,a3,a4
    17f8:	00f707b3          	add	a5,a4,a5
    17fc:	0007c783          	lbu	a5,0(a5)
    1800:	fef407a3          	sb	a5,-17(s0)
    1804:	fe040723          	sb	zero,-18(s0)
    1808:	0d80006f          	j	18e0 <LCD_ShowChar+0x2f8>
    180c:	fd544783          	lbu	a5,-43(s0)
    1810:	04079e63          	bnez	a5,186c <LCD_ShowChar+0x284>
    1814:	fef44703          	lbu	a4,-17(s0)
    1818:	fee44783          	lbu	a5,-18(s0)
    181c:	40f757b3          	sra	a5,a4,a5
    1820:	0017f793          	andi	a5,a5,1
    1824:	00078a63          	beqz	a5,1838 <LCD_ShowChar+0x250>
    1828:	fd845783          	lhu	a5,-40(s0)
    182c:	00078513          	mv	a0,a5
    1830:	a59fe0ef          	jal	ra,288 <LCD_WR_DATA>
    1834:	0100006f          	j	1844 <LCD_ShowChar+0x25c>
    1838:	fd645783          	lhu	a5,-42(s0)
    183c:	00078513          	mv	a0,a5
    1840:	a49fe0ef          	jal	ra,288 <LCD_WR_DATA>
    1844:	fed44783          	lbu	a5,-19(s0)
    1848:	00178793          	addi	a5,a5,1
    184c:	fef406a3          	sb	a5,-19(s0)
    1850:	fed44703          	lbu	a4,-19(s0)
    1854:	fe744783          	lbu	a5,-25(s0)
    1858:	02f777b3          	remu	a5,a4,a5
    185c:	0ff7f793          	andi	a5,a5,255
    1860:	06079a63          	bnez	a5,18d4 <LCD_ShowChar+0x2ec>
    1864:	fe0406a3          	sb	zero,-19(s0)
    1868:	0840006f          	j	18ec <LCD_ShowChar+0x304>
    186c:	fef44703          	lbu	a4,-17(s0)
    1870:	fee44783          	lbu	a5,-18(s0)
    1874:	40f757b3          	sra	a5,a4,a5
    1878:	0017f793          	andi	a5,a5,1
    187c:	02078063          	beqz	a5,189c <LCD_ShowChar+0x2b4>
    1880:	fd845683          	lhu	a3,-40(s0)
    1884:	fdc45703          	lhu	a4,-36(s0)
    1888:	fde45783          	lhu	a5,-34(s0)
    188c:	00068613          	mv	a2,a3
    1890:	00070593          	mv	a1,a4
    1894:	00078513          	mv	a0,a5
    1898:	f51fe0ef          	jal	ra,7e8 <LCD_DrawPoint>
    189c:	fde45783          	lhu	a5,-34(s0)
    18a0:	00178793          	addi	a5,a5,1
    18a4:	fcf41f23          	sh	a5,-34(s0)
    18a8:	fde45703          	lhu	a4,-34(s0)
    18ac:	fe845783          	lhu	a5,-24(s0)
    18b0:	40f70733          	sub	a4,a4,a5
    18b4:	fe744783          	lbu	a5,-25(s0)
    18b8:	00f71e63          	bne	a4,a5,18d4 <LCD_ShowChar+0x2ec>
    18bc:	fe845783          	lhu	a5,-24(s0)
    18c0:	fcf41f23          	sh	a5,-34(s0)
    18c4:	fdc45783          	lhu	a5,-36(s0)
    18c8:	00178793          	addi	a5,a5,1
    18cc:	fcf41e23          	sh	a5,-36(s0)
    18d0:	01c0006f          	j	18ec <LCD_ShowChar+0x304>
    18d4:	fee44783          	lbu	a5,-18(s0)
    18d8:	00178793          	addi	a5,a5,1
    18dc:	fef40723          	sb	a5,-18(s0)
    18e0:	fee44703          	lbu	a4,-18(s0)
    18e4:	00700793          	li	a5,7
    18e8:	f2e7f2e3          	bgeu	a5,a4,180c <LCD_ShowChar+0x224>
    18ec:	fea45783          	lhu	a5,-22(s0)
    18f0:	00178793          	addi	a5,a5,1
    18f4:	fef41523          	sh	a5,-22(s0)
    18f8:	fea45703          	lhu	a4,-22(s0)
    18fc:	fe445783          	lhu	a5,-28(s0)
    1900:	e2f760e3          	bltu	a4,a5,1720 <LCD_ShowChar+0x138>
    1904:	0080006f          	j	190c <LCD_ShowChar+0x324>
    1908:	00000013          	nop
    190c:	02c12083          	lw	ra,44(sp)
    1910:	02812403          	lw	s0,40(sp)
    1914:	03010113          	addi	sp,sp,48
    1918:	00008067          	ret

0000191c <LCD_ShowString>:
    191c:	fe010113          	addi	sp,sp,-32
    1920:	00112e23          	sw	ra,28(sp)
    1924:	00812c23          	sw	s0,24(sp)
    1928:	02010413          	addi	s0,sp,32
    192c:	00050893          	mv	a7,a0
    1930:	00058513          	mv	a0,a1
    1934:	fec42423          	sw	a2,-24(s0)
    1938:	00068593          	mv	a1,a3
    193c:	00070613          	mv	a2,a4
    1940:	00078693          	mv	a3,a5
    1944:	00080713          	mv	a4,a6
    1948:	00088793          	mv	a5,a7
    194c:	fef41723          	sh	a5,-18(s0)
    1950:	00050793          	mv	a5,a0
    1954:	fef41623          	sh	a5,-20(s0)
    1958:	00058793          	mv	a5,a1
    195c:	fef41323          	sh	a5,-26(s0)
    1960:	00060793          	mv	a5,a2
    1964:	fef41223          	sh	a5,-28(s0)
    1968:	00068793          	mv	a5,a3
    196c:	fef401a3          	sb	a5,-29(s0)
    1970:	00070793          	mv	a5,a4
    1974:	fef40123          	sb	a5,-30(s0)
    1978:	0540006f          	j	19cc <LCD_ShowString+0xb0>
    197c:	fe842783          	lw	a5,-24(s0)
    1980:	0007c603          	lbu	a2,0(a5)
    1984:	fe244803          	lbu	a6,-30(s0)
    1988:	fe344783          	lbu	a5,-29(s0)
    198c:	fe445703          	lhu	a4,-28(s0)
    1990:	fe645683          	lhu	a3,-26(s0)
    1994:	fec45583          	lhu	a1,-20(s0)
    1998:	fee45503          	lhu	a0,-18(s0)
    199c:	c4dff0ef          	jal	ra,15e8 <LCD_ShowChar>
    19a0:	fe344783          	lbu	a5,-29(s0)
    19a4:	0017d793          	srli	a5,a5,0x1
    19a8:	0ff7f793          	andi	a5,a5,255
    19ac:	01079713          	slli	a4,a5,0x10
    19b0:	01075713          	srli	a4,a4,0x10
    19b4:	fee45783          	lhu	a5,-18(s0)
    19b8:	00f707b3          	add	a5,a4,a5
    19bc:	fef41723          	sh	a5,-18(s0)
    19c0:	fe842783          	lw	a5,-24(s0)
    19c4:	00178793          	addi	a5,a5,1
    19c8:	fef42423          	sw	a5,-24(s0)
    19cc:	fe842783          	lw	a5,-24(s0)
    19d0:	0007c783          	lbu	a5,0(a5)
    19d4:	fa0794e3          	bnez	a5,197c <LCD_ShowString+0x60>
    19d8:	00000013          	nop
    19dc:	01c12083          	lw	ra,28(sp)
    19e0:	01812403          	lw	s0,24(sp)
    19e4:	02010113          	addi	sp,sp,32
    19e8:	00008067          	ret

000019ec <mypow>:
    19ec:	fd010113          	addi	sp,sp,-48
    19f0:	02812623          	sw	s0,44(sp)
    19f4:	03010413          	addi	s0,sp,48
    19f8:	00050793          	mv	a5,a0
    19fc:	00058713          	mv	a4,a1
    1a00:	fcf40fa3          	sb	a5,-33(s0)
    1a04:	00070793          	mv	a5,a4
    1a08:	fcf40f23          	sb	a5,-34(s0)
    1a0c:	00100793          	li	a5,1
    1a10:	fef42623          	sw	a5,-20(s0)
    1a14:	0140006f          	j	1a28 <mypow+0x3c>
    1a18:	fdf44783          	lbu	a5,-33(s0)
    1a1c:	fec42703          	lw	a4,-20(s0)
    1a20:	02f707b3          	mul	a5,a4,a5
    1a24:	fef42623          	sw	a5,-20(s0)
    1a28:	fde44783          	lbu	a5,-34(s0)
    1a2c:	fff78713          	addi	a4,a5,-1
    1a30:	fce40f23          	sb	a4,-34(s0)
    1a34:	fe0792e3          	bnez	a5,1a18 <mypow+0x2c>
    1a38:	fec42783          	lw	a5,-20(s0)
    1a3c:	00078513          	mv	a0,a5
    1a40:	02c12403          	lw	s0,44(sp)
    1a44:	03010113          	addi	sp,sp,48
    1a48:	00008067          	ret

00001a4c <LCD_ShowIntNum>:
    1a4c:	fd010113          	addi	sp,sp,-48
    1a50:	02112623          	sw	ra,44(sp)
    1a54:	02812423          	sw	s0,40(sp)
    1a58:	02912223          	sw	s1,36(sp)
    1a5c:	03010413          	addi	s0,sp,48
    1a60:	00050313          	mv	t1,a0
    1a64:	00058893          	mv	a7,a1
    1a68:	00060513          	mv	a0,a2
    1a6c:	00068593          	mv	a1,a3
    1a70:	00070613          	mv	a2,a4
    1a74:	00078693          	mv	a3,a5
    1a78:	00080713          	mv	a4,a6
    1a7c:	00030793          	mv	a5,t1
    1a80:	fcf41f23          	sh	a5,-34(s0)
    1a84:	00088793          	mv	a5,a7
    1a88:	fcf41e23          	sh	a5,-36(s0)
    1a8c:	00050793          	mv	a5,a0
    1a90:	fcf41d23          	sh	a5,-38(s0)
    1a94:	00058793          	mv	a5,a1
    1a98:	fcf40ca3          	sb	a5,-39(s0)
    1a9c:	00060793          	mv	a5,a2
    1aa0:	fcf41b23          	sh	a5,-42(s0)
    1aa4:	00068793          	mv	a5,a3
    1aa8:	fcf41a23          	sh	a5,-44(s0)
    1aac:	00070793          	mv	a5,a4
    1ab0:	fcf40c23          	sb	a5,-40(s0)
    1ab4:	fe040723          	sb	zero,-18(s0)
    1ab8:	fd844783          	lbu	a5,-40(s0)
    1abc:	0017d793          	srli	a5,a5,0x1
    1ac0:	fef406a3          	sb	a5,-19(s0)
    1ac4:	fe0407a3          	sb	zero,-17(s0)
    1ac8:	1200006f          	j	1be8 <LCD_ShowIntNum+0x19c>
    1acc:	fda45483          	lhu	s1,-38(s0)
    1ad0:	fd944703          	lbu	a4,-39(s0)
    1ad4:	fef44783          	lbu	a5,-17(s0)
    1ad8:	40f707b3          	sub	a5,a4,a5
    1adc:	0ff7f793          	andi	a5,a5,255
    1ae0:	fff78793          	addi	a5,a5,-1
    1ae4:	0ff7f793          	andi	a5,a5,255
    1ae8:	00078593          	mv	a1,a5
    1aec:	00a00513          	li	a0,10
    1af0:	efdff0ef          	jal	ra,19ec <mypow>
    1af4:	00050793          	mv	a5,a0
    1af8:	02f4d733          	divu	a4,s1,a5
    1afc:	00a00793          	li	a5,10
    1b00:	02f777b3          	remu	a5,a4,a5
    1b04:	fef40623          	sb	a5,-20(s0)
    1b08:	fee44783          	lbu	a5,-18(s0)
    1b0c:	06079c63          	bnez	a5,1b84 <LCD_ShowIntNum+0x138>
    1b10:	fef44703          	lbu	a4,-17(s0)
    1b14:	fd944783          	lbu	a5,-39(s0)
    1b18:	fff78793          	addi	a5,a5,-1
    1b1c:	06f75463          	bge	a4,a5,1b84 <LCD_ShowIntNum+0x138>
    1b20:	fec44783          	lbu	a5,-20(s0)
    1b24:	04079c63          	bnez	a5,1b7c <LCD_ShowIntNum+0x130>
    1b28:	fef44783          	lbu	a5,-17(s0)
    1b2c:	01079713          	slli	a4,a5,0x10
    1b30:	01075713          	srli	a4,a4,0x10
    1b34:	fed44783          	lbu	a5,-19(s0)
    1b38:	01079793          	slli	a5,a5,0x10
    1b3c:	0107d793          	srli	a5,a5,0x10
    1b40:	02f707b3          	mul	a5,a4,a5
    1b44:	01079713          	slli	a4,a5,0x10
    1b48:	01075713          	srli	a4,a4,0x10
    1b4c:	fde45783          	lhu	a5,-34(s0)
    1b50:	00f707b3          	add	a5,a4,a5
    1b54:	01079513          	slli	a0,a5,0x10
    1b58:	01055513          	srli	a0,a0,0x10
    1b5c:	fd844783          	lbu	a5,-40(s0)
    1b60:	fd445703          	lhu	a4,-44(s0)
    1b64:	fd645683          	lhu	a3,-42(s0)
    1b68:	fdc45583          	lhu	a1,-36(s0)
    1b6c:	00000813          	li	a6,0
    1b70:	02000613          	li	a2,32
    1b74:	a75ff0ef          	jal	ra,15e8 <LCD_ShowChar>
    1b78:	0640006f          	j	1bdc <LCD_ShowIntNum+0x190>
    1b7c:	00100793          	li	a5,1
    1b80:	fef40723          	sb	a5,-18(s0)
    1b84:	fef44783          	lbu	a5,-17(s0)
    1b88:	01079713          	slli	a4,a5,0x10
    1b8c:	01075713          	srli	a4,a4,0x10
    1b90:	fed44783          	lbu	a5,-19(s0)
    1b94:	01079793          	slli	a5,a5,0x10
    1b98:	0107d793          	srli	a5,a5,0x10
    1b9c:	02f707b3          	mul	a5,a4,a5
    1ba0:	01079713          	slli	a4,a5,0x10
    1ba4:	01075713          	srli	a4,a4,0x10
    1ba8:	fde45783          	lhu	a5,-34(s0)
    1bac:	00f707b3          	add	a5,a4,a5
    1bb0:	01079513          	slli	a0,a5,0x10
    1bb4:	01055513          	srli	a0,a0,0x10
    1bb8:	fec44783          	lbu	a5,-20(s0)
    1bbc:	03078793          	addi	a5,a5,48
    1bc0:	0ff7f613          	andi	a2,a5,255
    1bc4:	fd844783          	lbu	a5,-40(s0)
    1bc8:	fd445703          	lhu	a4,-44(s0)
    1bcc:	fd645683          	lhu	a3,-42(s0)
    1bd0:	fdc45583          	lhu	a1,-36(s0)
    1bd4:	00000813          	li	a6,0
    1bd8:	a11ff0ef          	jal	ra,15e8 <LCD_ShowChar>
    1bdc:	fef44783          	lbu	a5,-17(s0)
    1be0:	00178793          	addi	a5,a5,1
    1be4:	fef407a3          	sb	a5,-17(s0)
    1be8:	fef44703          	lbu	a4,-17(s0)
    1bec:	fd944783          	lbu	a5,-39(s0)
    1bf0:	ecf76ee3          	bltu	a4,a5,1acc <LCD_ShowIntNum+0x80>
    1bf4:	00000013          	nop
    1bf8:	02c12083          	lw	ra,44(sp)
    1bfc:	02812403          	lw	s0,40(sp)
    1c00:	02412483          	lw	s1,36(sp)
    1c04:	03010113          	addi	sp,sp,48
    1c08:	00008067          	ret

00001c0c <LCD_ShowFloatNum1>:
    1c0c:	fd010113          	addi	sp,sp,-48
    1c10:	02112623          	sw	ra,44(sp)
    1c14:	02812423          	sw	s0,40(sp)
    1c18:	02912223          	sw	s1,36(sp)
    1c1c:	03010413          	addi	s0,sp,48
    1c20:	00050893          	mv	a7,a0
    1c24:	00058513          	mv	a0,a1
    1c28:	fcc42c23          	sw	a2,-40(s0)
    1c2c:	00068593          	mv	a1,a3
    1c30:	00070613          	mv	a2,a4
    1c34:	00078693          	mv	a3,a5
    1c38:	00080713          	mv	a4,a6
    1c3c:	00088793          	mv	a5,a7
    1c40:	fcf41f23          	sh	a5,-34(s0)
    1c44:	00050793          	mv	a5,a0
    1c48:	fcf41e23          	sh	a5,-36(s0)
    1c4c:	00058793          	mv	a5,a1
    1c50:	fcf40ba3          	sb	a5,-41(s0)
    1c54:	00060793          	mv	a5,a2
    1c58:	fcf41a23          	sh	a5,-44(s0)
    1c5c:	00068793          	mv	a5,a3
    1c60:	fcf41923          	sh	a5,-46(s0)
    1c64:	00070793          	mv	a5,a4
    1c68:	fcf40b23          	sb	a5,-42(s0)
    1c6c:	fd644783          	lbu	a5,-42(s0)
    1c70:	0017d793          	srli	a5,a5,0x1
    1c74:	fef40723          	sb	a5,-18(s0)
    1c78:	100047b7          	lui	a5,0x10004
    1c7c:	6247a583          	lw	a1,1572(a5) # 10004624 <gImage_1+0xd00>
    1c80:	fd842503          	lw	a0,-40(s0)
    1c84:	4d0010ef          	jal	ra,3154 <__mulsf3>
    1c88:	00050793          	mv	a5,a0
    1c8c:	00078513          	mv	a0,a5
    1c90:	049010ef          	jal	ra,34d8 <__fixunssfsi>
    1c94:	00050793          	mv	a5,a0
    1c98:	fef41623          	sh	a5,-20(s0)
    1c9c:	fe0407a3          	sb	zero,-17(s0)
    1ca0:	1200006f          	j	1dc0 <LCD_ShowFloatNum1+0x1b4>
    1ca4:	fec45483          	lhu	s1,-20(s0)
    1ca8:	fd744703          	lbu	a4,-41(s0)
    1cac:	fef44783          	lbu	a5,-17(s0)
    1cb0:	40f707b3          	sub	a5,a4,a5
    1cb4:	0ff7f793          	andi	a5,a5,255
    1cb8:	fff78793          	addi	a5,a5,-1
    1cbc:	0ff7f793          	andi	a5,a5,255
    1cc0:	00078593          	mv	a1,a5
    1cc4:	00a00513          	li	a0,10
    1cc8:	d25ff0ef          	jal	ra,19ec <mypow>
    1ccc:	00050793          	mv	a5,a0
    1cd0:	02f4d733          	divu	a4,s1,a5
    1cd4:	00a00793          	li	a5,10
    1cd8:	02f777b3          	remu	a5,a4,a5
    1cdc:	fef405a3          	sb	a5,-21(s0)
    1ce0:	fef44703          	lbu	a4,-17(s0)
    1ce4:	fd744783          	lbu	a5,-41(s0)
    1ce8:	ffe78793          	addi	a5,a5,-2
    1cec:	06f71863          	bne	a4,a5,1d5c <LCD_ShowFloatNum1+0x150>
    1cf0:	fd744783          	lbu	a5,-41(s0)
    1cf4:	ffe78793          	addi	a5,a5,-2
    1cf8:	01079713          	slli	a4,a5,0x10
    1cfc:	01075713          	srli	a4,a4,0x10
    1d00:	fee44783          	lbu	a5,-18(s0)
    1d04:	01079793          	slli	a5,a5,0x10
    1d08:	0107d793          	srli	a5,a5,0x10
    1d0c:	02f707b3          	mul	a5,a4,a5
    1d10:	01079713          	slli	a4,a5,0x10
    1d14:	01075713          	srli	a4,a4,0x10
    1d18:	fde45783          	lhu	a5,-34(s0)
    1d1c:	00f707b3          	add	a5,a4,a5
    1d20:	01079513          	slli	a0,a5,0x10
    1d24:	01055513          	srli	a0,a0,0x10
    1d28:	fd644783          	lbu	a5,-42(s0)
    1d2c:	fd245703          	lhu	a4,-46(s0)
    1d30:	fd445683          	lhu	a3,-44(s0)
    1d34:	fdc45583          	lhu	a1,-36(s0)
    1d38:	00000813          	li	a6,0
    1d3c:	02e00613          	li	a2,46
    1d40:	8a9ff0ef          	jal	ra,15e8 <LCD_ShowChar>
    1d44:	fef44783          	lbu	a5,-17(s0)
    1d48:	00178793          	addi	a5,a5,1
    1d4c:	fef407a3          	sb	a5,-17(s0)
    1d50:	fd744783          	lbu	a5,-41(s0)
    1d54:	00178793          	addi	a5,a5,1
    1d58:	fcf40ba3          	sb	a5,-41(s0)
    1d5c:	fef44783          	lbu	a5,-17(s0)
    1d60:	01079713          	slli	a4,a5,0x10
    1d64:	01075713          	srli	a4,a4,0x10
    1d68:	fee44783          	lbu	a5,-18(s0)
    1d6c:	01079793          	slli	a5,a5,0x10
    1d70:	0107d793          	srli	a5,a5,0x10
    1d74:	02f707b3          	mul	a5,a4,a5
    1d78:	01079713          	slli	a4,a5,0x10
    1d7c:	01075713          	srli	a4,a4,0x10
    1d80:	fde45783          	lhu	a5,-34(s0)
    1d84:	00f707b3          	add	a5,a4,a5
    1d88:	01079513          	slli	a0,a5,0x10
    1d8c:	01055513          	srli	a0,a0,0x10
    1d90:	feb44783          	lbu	a5,-21(s0)
    1d94:	03078793          	addi	a5,a5,48
    1d98:	0ff7f613          	andi	a2,a5,255
    1d9c:	fd644783          	lbu	a5,-42(s0)
    1da0:	fd245703          	lhu	a4,-46(s0)
    1da4:	fd445683          	lhu	a3,-44(s0)
    1da8:	fdc45583          	lhu	a1,-36(s0)
    1dac:	00000813          	li	a6,0
    1db0:	839ff0ef          	jal	ra,15e8 <LCD_ShowChar>
    1db4:	fef44783          	lbu	a5,-17(s0)
    1db8:	00178793          	addi	a5,a5,1
    1dbc:	fef407a3          	sb	a5,-17(s0)
    1dc0:	fef44703          	lbu	a4,-17(s0)
    1dc4:	fd744783          	lbu	a5,-41(s0)
    1dc8:	ecf76ee3          	bltu	a4,a5,1ca4 <LCD_ShowFloatNum1+0x98>
    1dcc:	00000013          	nop
    1dd0:	02c12083          	lw	ra,44(sp)
    1dd4:	02812403          	lw	s0,40(sp)
    1dd8:	02412483          	lw	s1,36(sp)
    1ddc:	03010113          	addi	sp,sp,48
    1de0:	00008067          	ret

00001de4 <LCD_ShowPicture>:
    1de4:	fd010113          	addi	sp,sp,-48
    1de8:	02112623          	sw	ra,44(sp)
    1dec:	02812423          	sw	s0,40(sp)
    1df0:	03010413          	addi	s0,sp,48
    1df4:	00050793          	mv	a5,a0
    1df8:	fce42a23          	sw	a4,-44(s0)
    1dfc:	fcf41f23          	sh	a5,-34(s0)
    1e00:	00058793          	mv	a5,a1
    1e04:	fcf41e23          	sh	a5,-36(s0)
    1e08:	00060793          	mv	a5,a2
    1e0c:	fcf41d23          	sh	a5,-38(s0)
    1e10:	00068793          	mv	a5,a3
    1e14:	fcf41c23          	sh	a5,-40(s0)
    1e18:	fe042423          	sw	zero,-24(s0)
    1e1c:	fde45703          	lhu	a4,-34(s0)
    1e20:	fda45783          	lhu	a5,-38(s0)
    1e24:	00f707b3          	add	a5,a4,a5
    1e28:	01079793          	slli	a5,a5,0x10
    1e2c:	0107d793          	srli	a5,a5,0x10
    1e30:	fff78793          	addi	a5,a5,-1
    1e34:	01079613          	slli	a2,a5,0x10
    1e38:	01065613          	srli	a2,a2,0x10
    1e3c:	fdc45703          	lhu	a4,-36(s0)
    1e40:	fd845783          	lhu	a5,-40(s0)
    1e44:	00f707b3          	add	a5,a4,a5
    1e48:	01079793          	slli	a5,a5,0x10
    1e4c:	0107d793          	srli	a5,a5,0x10
    1e50:	fff78793          	addi	a5,a5,-1
    1e54:	01079693          	slli	a3,a5,0x10
    1e58:	0106d693          	srli	a3,a3,0x10
    1e5c:	fdc45703          	lhu	a4,-36(s0)
    1e60:	fde45783          	lhu	a5,-34(s0)
    1e64:	00070593          	mv	a1,a4
    1e68:	00078513          	mv	a0,a5
    1e6c:	ce4fe0ef          	jal	ra,350 <LCD_Address_Set>
    1e70:	fe041723          	sh	zero,-18(s0)
    1e74:	0780006f          	j	1eec <LCD_ShowPicture+0x108>
    1e78:	fe041623          	sh	zero,-20(s0)
    1e7c:	0580006f          	j	1ed4 <LCD_ShowPicture+0xf0>
    1e80:	fe842783          	lw	a5,-24(s0)
    1e84:	00179793          	slli	a5,a5,0x1
    1e88:	fd442703          	lw	a4,-44(s0)
    1e8c:	00f707b3          	add	a5,a4,a5
    1e90:	0007c783          	lbu	a5,0(a5)
    1e94:	00078513          	mv	a0,a5
    1e98:	bb8fe0ef          	jal	ra,250 <LCD_WR_DATA8>
    1e9c:	fe842783          	lw	a5,-24(s0)
    1ea0:	00179793          	slli	a5,a5,0x1
    1ea4:	00178793          	addi	a5,a5,1
    1ea8:	fd442703          	lw	a4,-44(s0)
    1eac:	00f707b3          	add	a5,a4,a5
    1eb0:	0007c783          	lbu	a5,0(a5)
    1eb4:	00078513          	mv	a0,a5
    1eb8:	b98fe0ef          	jal	ra,250 <LCD_WR_DATA8>
    1ebc:	fe842783          	lw	a5,-24(s0)
    1ec0:	00178793          	addi	a5,a5,1
    1ec4:	fef42423          	sw	a5,-24(s0)
    1ec8:	fec45783          	lhu	a5,-20(s0)
    1ecc:	00178793          	addi	a5,a5,1
    1ed0:	fef41623          	sh	a5,-20(s0)
    1ed4:	fec45703          	lhu	a4,-20(s0)
    1ed8:	fd845783          	lhu	a5,-40(s0)
    1edc:	faf762e3          	bltu	a4,a5,1e80 <LCD_ShowPicture+0x9c>
    1ee0:	fee45783          	lhu	a5,-18(s0)
    1ee4:	00178793          	addi	a5,a5,1
    1ee8:	fef41723          	sh	a5,-18(s0)
    1eec:	fee45703          	lhu	a4,-18(s0)
    1ef0:	fda45783          	lhu	a5,-38(s0)
    1ef4:	f8f762e3          	bltu	a4,a5,1e78 <LCD_ShowPicture+0x94>
    1ef8:	00000013          	nop
    1efc:	02c12083          	lw	ra,44(sp)
    1f00:	02812403          	lw	s0,40(sp)
    1f04:	03010113          	addi	sp,sp,48
    1f08:	00008067          	ret

00001f0c <main>:
    1f0c:	fe010113          	addi	sp,sp,-32
    1f10:	00112e23          	sw	ra,28(sp)
    1f14:	00812c23          	sw	s0,24(sp)
    1f18:	02010413          	addi	s0,sp,32
    1f1c:	00000793          	li	a5,0
    1f20:	fef42423          	sw	a5,-24(s0)
    1f24:	0ed000ef          	jal	ra,2810 <uart_init>
    1f28:	100047b7          	lui	a5,0x10004
    1f2c:	5a878513          	addi	a0,a5,1448 # 100045a8 <gImage_1+0xc84>
    1f30:	035000ef          	jal	ra,2764 <xprintf>
    1f34:	115000ef          	jal	ra,2848 <spi_init>
    1f38:	100047b7          	lui	a5,0x10004
    1f3c:	5c078513          	addi	a0,a5,1472 # 100045c0 <gImage_1+0xc9c>
    1f40:	025000ef          	jal	ra,2764 <xprintf>
    1f44:	c9cfe0ef          	jal	ra,3e0 <LCD_Init>
    1f48:	100047b7          	lui	a5,0x10004
    1f4c:	5d878513          	addi	a0,a5,1496 # 100045d8 <gImage_1+0xcb4>
    1f50:	015000ef          	jal	ra,2764 <xprintf>
    1f54:	000107b7          	lui	a5,0x10
    1f58:	fff78713          	addi	a4,a5,-1 # ffff <_data_lma+0xc73b>
    1f5c:	14000693          	li	a3,320
    1f60:	0f000613          	li	a2,240
    1f64:	00000593          	li	a1,0
    1f68:	00000513          	li	a0,0
    1f6c:	fa8fe0ef          	jal	ra,714 <LCD_Fill>
    1f70:	00000813          	li	a6,0
    1f74:	02000793          	li	a5,32
    1f78:	00010737          	lui	a4,0x10
    1f7c:	fff70713          	addi	a4,a4,-1 # ffff <_data_lma+0xc73b>
    1f80:	000106b7          	lui	a3,0x10
    1f84:	80068693          	addi	a3,a3,-2048 # f800 <_data_lma+0xbf3c>
    1f88:	10004637          	lui	a2,0x10004
    1f8c:	5f060613          	addi	a2,a2,1520 # 100045f0 <gImage_1+0xccc>
    1f90:	00000593          	li	a1,0
    1f94:	00000513          	li	a0,0
    1f98:	8bdfe0ef          	jal	ra,854 <LCD_ShowChinese>
    1f9c:	00000813          	li	a6,0
    1fa0:	01000793          	li	a5,16
    1fa4:	00010737          	lui	a4,0x10
    1fa8:	fff70713          	addi	a4,a4,-1 # ffff <_data_lma+0xc73b>
    1fac:	000106b7          	lui	a3,0x10
    1fb0:	80068693          	addi	a3,a3,-2048 # f800 <_data_lma+0xbf3c>
    1fb4:	10004637          	lui	a2,0x10004
    1fb8:	60060613          	addi	a2,a2,1536 # 10004600 <gImage_1+0xcdc>
    1fbc:	02800593          	li	a1,40
    1fc0:	00000513          	li	a0,0
    1fc4:	959ff0ef          	jal	ra,191c <LCD_ShowString>
    1fc8:	01000813          	li	a6,16
    1fcc:	000107b7          	lui	a5,0x10
    1fd0:	fff78793          	addi	a5,a5,-1 # ffff <_data_lma+0xc73b>
    1fd4:	00010737          	lui	a4,0x10
    1fd8:	80070713          	addi	a4,a4,-2048 # f800 <_data_lma+0xbf3c>
    1fdc:	00300693          	li	a3,3
    1fe0:	0f000613          	li	a2,240
    1fe4:	02800593          	li	a1,40
    1fe8:	03000513          	li	a0,48
    1fec:	a61ff0ef          	jal	ra,1a4c <LCD_ShowIntNum>
    1ff0:	00000813          	li	a6,0
    1ff4:	01000793          	li	a5,16
    1ff8:	00010737          	lui	a4,0x10
    1ffc:	fff70713          	addi	a4,a4,-1 # ffff <_data_lma+0xc73b>
    2000:	000106b7          	lui	a3,0x10
    2004:	80068693          	addi	a3,a3,-2048 # f800 <_data_lma+0xbf3c>
    2008:	10004637          	lui	a2,0x10004
    200c:	60860613          	addi	a2,a2,1544 # 10004608 <gImage_1+0xce4>
    2010:	02800593          	li	a1,40
    2014:	05000513          	li	a0,80
    2018:	905ff0ef          	jal	ra,191c <LCD_ShowString>
    201c:	01000813          	li	a6,16
    2020:	000107b7          	lui	a5,0x10
    2024:	fff78793          	addi	a5,a5,-1 # ffff <_data_lma+0xc73b>
    2028:	00010737          	lui	a4,0x10
    202c:	80070713          	addi	a4,a4,-2048 # f800 <_data_lma+0xbf3c>
    2030:	00300693          	li	a3,3
    2034:	14000613          	li	a2,320
    2038:	02800593          	li	a1,40
    203c:	08000513          	li	a0,128
    2040:	a0dff0ef          	jal	ra,1a4c <LCD_ShowIntNum>
    2044:	00000813          	li	a6,0
    2048:	01000793          	li	a5,16
    204c:	00010737          	lui	a4,0x10
    2050:	fff70713          	addi	a4,a4,-1 # ffff <_data_lma+0xc73b>
    2054:	000106b7          	lui	a3,0x10
    2058:	80068693          	addi	a3,a3,-2048 # f800 <_data_lma+0xbf3c>
    205c:	10004637          	lui	a2,0x10004
    2060:	60860613          	addi	a2,a2,1544 # 10004608 <gImage_1+0xce4>
    2064:	02800593          	li	a1,40
    2068:	05000513          	li	a0,80
    206c:	8b1ff0ef          	jal	ra,191c <LCD_ShowString>
    2070:	00000813          	li	a6,0
    2074:	01000793          	li	a5,16
    2078:	00010737          	lui	a4,0x10
    207c:	fff70713          	addi	a4,a4,-1 # ffff <_data_lma+0xc73b>
    2080:	000106b7          	lui	a3,0x10
    2084:	80068693          	addi	a3,a3,-2048 # f800 <_data_lma+0xbf3c>
    2088:	10004637          	lui	a2,0x10004
    208c:	61060613          	addi	a2,a2,1552 # 10004610 <gImage_1+0xcec>
    2090:	04600593          	li	a1,70
    2094:	00000513          	li	a0,0
    2098:	885ff0ef          	jal	ra,191c <LCD_ShowString>
    209c:	01000813          	li	a6,16
    20a0:	000107b7          	lui	a5,0x10
    20a4:	fff78793          	addi	a5,a5,-1 # ffff <_data_lma+0xc73b>
    20a8:	00010737          	lui	a4,0x10
    20ac:	80070713          	addi	a4,a4,-2048 # f800 <_data_lma+0xbf3c>
    20b0:	00400693          	li	a3,4
    20b4:	fe842603          	lw	a2,-24(s0)
    20b8:	04600593          	li	a1,70
    20bc:	08000513          	li	a0,128
    20c0:	b4dff0ef          	jal	ra,1c0c <LCD_ShowFloatNum1>
    20c4:	fe842503          	lw	a0,-24(s0)
    20c8:	474010ef          	jal	ra,353c <__extendsfdf2>
    20cc:	100047b7          	lui	a5,0x10004
    20d0:	6287a603          	lw	a2,1576(a5) # 10004628 <gImage_1+0xd04>
    20d4:	62c7a683          	lw	a3,1580(a5)
    20d8:	7f8000ef          	jal	ra,28d0 <__adddf3>
    20dc:	00050793          	mv	a5,a0
    20e0:	00058813          	mv	a6,a1
    20e4:	00078513          	mv	a0,a5
    20e8:	00080593          	mv	a1,a6
    20ec:	550010ef          	jal	ra,363c <__truncdfsf2>
    20f0:	00050793          	mv	a5,a0
    20f4:	fef42423          	sw	a5,-24(s0)
    20f8:	fe040723          	sb	zero,-18(s0)
    20fc:	0a00006f          	j	219c <__stack_size+0x19c>
    2100:	fe0407a3          	sb	zero,-17(s0)
    2104:	0800006f          	j	2184 <__stack_size+0x184>
    2108:	fef44783          	lbu	a5,-17(s0)
    210c:	01079793          	slli	a5,a5,0x10
    2110:	0107d793          	srli	a5,a5,0x10
    2114:	00078713          	mv	a4,a5
    2118:	00070793          	mv	a5,a4
    211c:	00279793          	slli	a5,a5,0x2
    2120:	00e787b3          	add	a5,a5,a4
    2124:	00379793          	slli	a5,a5,0x3
    2128:	01079513          	slli	a0,a5,0x10
    212c:	01055513          	srli	a0,a0,0x10
    2130:	fee44783          	lbu	a5,-18(s0)
    2134:	01079793          	slli	a5,a5,0x10
    2138:	0107d793          	srli	a5,a5,0x10
    213c:	00078713          	mv	a4,a5
    2140:	00070793          	mv	a5,a4
    2144:	00279793          	slli	a5,a5,0x2
    2148:	00e787b3          	add	a5,a5,a4
    214c:	00379793          	slli	a5,a5,0x3
    2150:	01079793          	slli	a5,a5,0x10
    2154:	0107d793          	srli	a5,a5,0x10
    2158:	07878793          	addi	a5,a5,120
    215c:	01079593          	slli	a1,a5,0x10
    2160:	0105d593          	srli	a1,a1,0x10
    2164:	100047b7          	lui	a5,0x10004
    2168:	92478713          	addi	a4,a5,-1756 # 10003924 <gImage_1>
    216c:	02800693          	li	a3,40
    2170:	02800613          	li	a2,40
    2174:	c71ff0ef          	jal	ra,1de4 <LCD_ShowPicture>
    2178:	fef44783          	lbu	a5,-17(s0)
    217c:	00178793          	addi	a5,a5,1
    2180:	fef407a3          	sb	a5,-17(s0)
    2184:	fef44703          	lbu	a4,-17(s0)
    2188:	00500793          	li	a5,5
    218c:	f6e7fee3          	bgeu	a5,a4,2108 <__stack_size+0x108>
    2190:	fee44783          	lbu	a5,-18(s0)
    2194:	00178793          	addi	a5,a5,1
    2198:	fef40723          	sb	a5,-18(s0)
    219c:	fee44703          	lbu	a4,-18(s0)
    21a0:	00400793          	li	a5,4
    21a4:	f4e7fee3          	bgeu	a5,a4,2100 <__stack_size+0x100>
    21a8:	dc9ff06f          	j	1f70 <main+0x64>

000021ac <_init>:
    21ac:	ff010113          	addi	sp,sp,-16
    21b0:	00812623          	sw	s0,12(sp)
    21b4:	01010413          	addi	s0,sp,16
    21b8:	000007b7          	lui	a5,0x0
    21bc:	06878793          	addi	a5,a5,104 # 68 <trap_entry>
    21c0:	30579073          	csrw	mtvec,a5
    21c4:	000027b7          	lui	a5,0x2
    21c8:	88878793          	addi	a5,a5,-1912 # 1888 <LCD_ShowChar+0x2a0>
    21cc:	30079073          	csrw	mstatus,a5
    21d0:	00000013          	nop
    21d4:	00c12403          	lw	s0,12(sp)
    21d8:	01010113          	addi	sp,sp,16
    21dc:	00008067          	ret

000021e0 <trap_handler>:
    21e0:	fe010113          	addi	sp,sp,-32
    21e4:	00112e23          	sw	ra,28(sp)
    21e8:	00812c23          	sw	s0,24(sp)
    21ec:	02010413          	addi	s0,sp,32
    21f0:	fea42623          	sw	a0,-20(s0)
    21f4:	feb42423          	sw	a1,-24(s0)
    21f8:	00000097          	auipc	ra,0x0
    21fc:	000000e7          	jalr	zero # 0 <_start>
    2200:	00000013          	nop
    2204:	01c12083          	lw	ra,28(sp)
    2208:	01812403          	lw	s0,24(sp)
    220c:	02010113          	addi	sp,sp,32
    2210:	00008067          	ret

00002214 <xputc>:
    2214:	fe010113          	addi	sp,sp,-32
    2218:	00112e23          	sw	ra,28(sp)
    221c:	00812c23          	sw	s0,24(sp)
    2220:	02010413          	addi	s0,sp,32
    2224:	00050793          	mv	a5,a0
    2228:	fef407a3          	sb	a5,-17(s0)
    222c:	100047b7          	lui	a5,0x10004
    2230:	7d07a783          	lw	a5,2000(a5) # 100047d0 <__bss_start>
    2234:	02078263          	beqz	a5,2258 <xputc+0x44>
    2238:	100047b7          	lui	a5,0x10004
    223c:	7d07a783          	lw	a5,2000(a5) # 100047d0 <__bss_start>
    2240:	00178693          	addi	a3,a5,1
    2244:	10004737          	lui	a4,0x10004
    2248:	7cd72823          	sw	a3,2000(a4) # 100047d0 <__bss_start>
    224c:	fef44703          	lbu	a4,-17(s0)
    2250:	00e78023          	sb	a4,0(a5)
    2254:	0240006f          	j	2278 <xputc+0x64>
    2258:	100047b7          	lui	a5,0x10004
    225c:	7d47a783          	lw	a5,2004(a5) # 100047d4 <xfunc_out>
    2260:	00078c63          	beqz	a5,2278 <xputc+0x64>
    2264:	100047b7          	lui	a5,0x10004
    2268:	7d47a703          	lw	a4,2004(a5) # 100047d4 <xfunc_out>
    226c:	fef44783          	lbu	a5,-17(s0)
    2270:	00078513          	mv	a0,a5
    2274:	000700e7          	jalr	a4
    2278:	01c12083          	lw	ra,28(sp)
    227c:	01812403          	lw	s0,24(sp)
    2280:	02010113          	addi	sp,sp,32
    2284:	00008067          	ret

00002288 <xputs>:
    2288:	fe010113          	addi	sp,sp,-32
    228c:	00112e23          	sw	ra,28(sp)
    2290:	00812c23          	sw	s0,24(sp)
    2294:	02010413          	addi	s0,sp,32
    2298:	fea42623          	sw	a0,-20(s0)
    229c:	01c0006f          	j	22b8 <xputs+0x30>
    22a0:	fec42783          	lw	a5,-20(s0)
    22a4:	00178713          	addi	a4,a5,1
    22a8:	fee42623          	sw	a4,-20(s0)
    22ac:	0007c783          	lbu	a5,0(a5)
    22b0:	00078513          	mv	a0,a5
    22b4:	f61ff0ef          	jal	ra,2214 <xputc>
    22b8:	fec42783          	lw	a5,-20(s0)
    22bc:	0007c783          	lbu	a5,0(a5)
    22c0:	fe0790e3          	bnez	a5,22a0 <xputs+0x18>
    22c4:	00000013          	nop
    22c8:	01c12083          	lw	ra,28(sp)
    22cc:	01812403          	lw	s0,24(sp)
    22d0:	02010113          	addi	sp,sp,32
    22d4:	00008067          	ret

000022d8 <xvprintf>:
    22d8:	fb010113          	addi	sp,sp,-80
    22dc:	04112623          	sw	ra,76(sp)
    22e0:	04812423          	sw	s0,72(sp)
    22e4:	05010413          	addi	s0,sp,80
    22e8:	faa42e23          	sw	a0,-68(s0)
    22ec:	fab42c23          	sw	a1,-72(s0)
    22f0:	fbc42783          	lw	a5,-68(s0)
    22f4:	00178713          	addi	a4,a5,1
    22f8:	fae42e23          	sw	a4,-68(s0)
    22fc:	0007c783          	lbu	a5,0(a5)
    2300:	fcf40ba3          	sb	a5,-41(s0)
    2304:	fd744783          	lbu	a5,-41(s0)
    2308:	42078e63          	beqz	a5,2744 <xvprintf+0x46c>
    230c:	fd744703          	lbu	a4,-41(s0)
    2310:	02500793          	li	a5,37
    2314:	00f70a63          	beq	a4,a5,2328 <xvprintf+0x50>
    2318:	fd744783          	lbu	a5,-41(s0)
    231c:	00078513          	mv	a0,a5
    2320:	ef5ff0ef          	jal	ra,2214 <xputc>
    2324:	41c0006f          	j	2740 <xvprintf+0x468>
    2328:	fc042e23          	sw	zero,-36(s0)
    232c:	fbc42783          	lw	a5,-68(s0)
    2330:	00178713          	addi	a4,a5,1
    2334:	fae42e23          	sw	a4,-68(s0)
    2338:	0007c783          	lbu	a5,0(a5)
    233c:	fcf40ba3          	sb	a5,-41(s0)
    2340:	fd744703          	lbu	a4,-41(s0)
    2344:	03000793          	li	a5,48
    2348:	02f71263          	bne	a4,a5,236c <xvprintf+0x94>
    234c:	00100793          	li	a5,1
    2350:	fcf42e23          	sw	a5,-36(s0)
    2354:	fbc42783          	lw	a5,-68(s0)
    2358:	00178713          	addi	a4,a5,1
    235c:	fae42e23          	sw	a4,-68(s0)
    2360:	0007c783          	lbu	a5,0(a5)
    2364:	fcf40ba3          	sb	a5,-41(s0)
    2368:	02c0006f          	j	2394 <xvprintf+0xbc>
    236c:	fd744703          	lbu	a4,-41(s0)
    2370:	02d00793          	li	a5,45
    2374:	02f71063          	bne	a4,a5,2394 <xvprintf+0xbc>
    2378:	00200793          	li	a5,2
    237c:	fcf42e23          	sw	a5,-36(s0)
    2380:	fbc42783          	lw	a5,-68(s0)
    2384:	00178713          	addi	a4,a5,1
    2388:	fae42e23          	sw	a4,-68(s0)
    238c:	0007c783          	lbu	a5,0(a5)
    2390:	fcf40ba3          	sb	a5,-41(s0)
    2394:	fe042023          	sw	zero,-32(s0)
    2398:	0400006f          	j	23d8 <xvprintf+0x100>
    239c:	fe042703          	lw	a4,-32(s0)
    23a0:	00070793          	mv	a5,a4
    23a4:	00279793          	slli	a5,a5,0x2
    23a8:	00e787b3          	add	a5,a5,a4
    23ac:	00179793          	slli	a5,a5,0x1
    23b0:	00078713          	mv	a4,a5
    23b4:	fd744783          	lbu	a5,-41(s0)
    23b8:	00f707b3          	add	a5,a4,a5
    23bc:	fd078793          	addi	a5,a5,-48
    23c0:	fef42023          	sw	a5,-32(s0)
    23c4:	fbc42783          	lw	a5,-68(s0)
    23c8:	00178713          	addi	a4,a5,1
    23cc:	fae42e23          	sw	a4,-68(s0)
    23d0:	0007c783          	lbu	a5,0(a5)
    23d4:	fcf40ba3          	sb	a5,-41(s0)
    23d8:	fd744703          	lbu	a4,-41(s0)
    23dc:	02f00793          	li	a5,47
    23e0:	00e7f863          	bgeu	a5,a4,23f0 <xvprintf+0x118>
    23e4:	fd744703          	lbu	a4,-41(s0)
    23e8:	03900793          	li	a5,57
    23ec:	fae7f8e3          	bgeu	a5,a4,239c <xvprintf+0xc4>
    23f0:	fd744703          	lbu	a4,-41(s0)
    23f4:	06c00793          	li	a5,108
    23f8:	00f70863          	beq	a4,a5,2408 <xvprintf+0x130>
    23fc:	fd744703          	lbu	a4,-41(s0)
    2400:	04c00793          	li	a5,76
    2404:	02f71263          	bne	a4,a5,2428 <xvprintf+0x150>
    2408:	fdc42783          	lw	a5,-36(s0)
    240c:	0047e793          	ori	a5,a5,4
    2410:	fcf42e23          	sw	a5,-36(s0)
    2414:	fbc42783          	lw	a5,-68(s0)
    2418:	00178713          	addi	a4,a5,1
    241c:	fae42e23          	sw	a4,-68(s0)
    2420:	0007c783          	lbu	a5,0(a5)
    2424:	fcf40ba3          	sb	a5,-41(s0)
    2428:	fd744783          	lbu	a5,-41(s0)
    242c:	32078063          	beqz	a5,274c <xvprintf+0x474>
    2430:	fd744783          	lbu	a5,-41(s0)
    2434:	fcf40b23          	sb	a5,-42(s0)
    2438:	fd644703          	lbu	a4,-42(s0)
    243c:	06000793          	li	a5,96
    2440:	00e7f863          	bgeu	a5,a4,2450 <xvprintf+0x178>
    2444:	fd644783          	lbu	a5,-42(s0)
    2448:	fe078793          	addi	a5,a5,-32
    244c:	fcf40b23          	sb	a5,-42(s0)
    2450:	fd644783          	lbu	a5,-42(s0)
    2454:	fbe78793          	addi	a5,a5,-66
    2458:	01600713          	li	a4,22
    245c:	10f76063          	bltu	a4,a5,255c <xvprintf+0x284>
    2460:	00279713          	slli	a4,a5,0x2
    2464:	100047b7          	lui	a5,0x10004
    2468:	63078793          	addi	a5,a5,1584 # 10004630 <gImage_1+0xd0c>
    246c:	00f707b3          	add	a5,a4,a5
    2470:	0007a783          	lw	a5,0(a5)
    2474:	00078067          	jr	a5
    2478:	fb842783          	lw	a5,-72(s0)
    247c:	00478713          	addi	a4,a5,4
    2480:	fae42c23          	sw	a4,-72(s0)
    2484:	0007a783          	lw	a5,0(a5)
    2488:	fcf42823          	sw	a5,-48(s0)
    248c:	fe042223          	sw	zero,-28(s0)
    2490:	0100006f          	j	24a0 <xvprintf+0x1c8>
    2494:	fe442783          	lw	a5,-28(s0)
    2498:	00178793          	addi	a5,a5,1
    249c:	fef42223          	sw	a5,-28(s0)
    24a0:	fd042703          	lw	a4,-48(s0)
    24a4:	fe442783          	lw	a5,-28(s0)
    24a8:	00f707b3          	add	a5,a4,a5
    24ac:	0007c783          	lbu	a5,0(a5)
    24b0:	fe0792e3          	bnez	a5,2494 <xvprintf+0x1bc>
    24b4:	00c0006f          	j	24c0 <xvprintf+0x1e8>
    24b8:	02000513          	li	a0,32
    24bc:	d59ff0ef          	jal	ra,2214 <xputc>
    24c0:	fdc42783          	lw	a5,-36(s0)
    24c4:	0027f793          	andi	a5,a5,2
    24c8:	00079c63          	bnez	a5,24e0 <xvprintf+0x208>
    24cc:	fe442783          	lw	a5,-28(s0)
    24d0:	00178713          	addi	a4,a5,1
    24d4:	fee42223          	sw	a4,-28(s0)
    24d8:	fe042703          	lw	a4,-32(s0)
    24dc:	fce7eee3          	bltu	a5,a4,24b8 <xvprintf+0x1e0>
    24e0:	fd042503          	lw	a0,-48(s0)
    24e4:	da5ff0ef          	jal	ra,2288 <xputs>
    24e8:	00c0006f          	j	24f4 <xvprintf+0x21c>
    24ec:	02000513          	li	a0,32
    24f0:	d25ff0ef          	jal	ra,2214 <xputc>
    24f4:	fe442783          	lw	a5,-28(s0)
    24f8:	00178713          	addi	a4,a5,1
    24fc:	fee42223          	sw	a4,-28(s0)
    2500:	fe042703          	lw	a4,-32(s0)
    2504:	fee7e4e3          	bltu	a5,a4,24ec <xvprintf+0x214>
    2508:	2380006f          	j	2740 <xvprintf+0x468>
    250c:	fb842783          	lw	a5,-72(s0)
    2510:	00478713          	addi	a4,a5,4
    2514:	fae42c23          	sw	a4,-72(s0)
    2518:	0007a783          	lw	a5,0(a5)
    251c:	0ff7f793          	andi	a5,a5,255
    2520:	00078513          	mv	a0,a5
    2524:	cf1ff0ef          	jal	ra,2214 <xputc>
    2528:	2180006f          	j	2740 <xvprintf+0x468>
    252c:	00200793          	li	a5,2
    2530:	fef42623          	sw	a5,-20(s0)
    2534:	0380006f          	j	256c <xvprintf+0x294>
    2538:	00800793          	li	a5,8
    253c:	fef42623          	sw	a5,-20(s0)
    2540:	02c0006f          	j	256c <xvprintf+0x294>
    2544:	00a00793          	li	a5,10
    2548:	fef42623          	sw	a5,-20(s0)
    254c:	0200006f          	j	256c <xvprintf+0x294>
    2550:	01000793          	li	a5,16
    2554:	fef42623          	sw	a5,-20(s0)
    2558:	0140006f          	j	256c <xvprintf+0x294>
    255c:	fd744783          	lbu	a5,-41(s0)
    2560:	00078513          	mv	a0,a5
    2564:	cb1ff0ef          	jal	ra,2214 <xputc>
    2568:	1d80006f          	j	2740 <xvprintf+0x468>
    256c:	fdc42783          	lw	a5,-36(s0)
    2570:	0047f793          	andi	a5,a5,4
    2574:	00078c63          	beqz	a5,258c <xvprintf+0x2b4>
    2578:	fb842783          	lw	a5,-72(s0)
    257c:	00478713          	addi	a4,a5,4
    2580:	fae42c23          	sw	a4,-72(s0)
    2584:	0007a783          	lw	a5,0(a5)
    2588:	0340006f          	j	25bc <xvprintf+0x2e4>
    258c:	fd644703          	lbu	a4,-42(s0)
    2590:	04400793          	li	a5,68
    2594:	00f71c63          	bne	a4,a5,25ac <xvprintf+0x2d4>
    2598:	fb842783          	lw	a5,-72(s0)
    259c:	00478713          	addi	a4,a5,4
    25a0:	fae42c23          	sw	a4,-72(s0)
    25a4:	0007a783          	lw	a5,0(a5)
    25a8:	0140006f          	j	25bc <xvprintf+0x2e4>
    25ac:	fb842783          	lw	a5,-72(s0)
    25b0:	00478713          	addi	a4,a5,4
    25b4:	fae42c23          	sw	a4,-72(s0)
    25b8:	0007a783          	lw	a5,0(a5)
    25bc:	fcf42c23          	sw	a5,-40(s0)
    25c0:	fd644703          	lbu	a4,-42(s0)
    25c4:	04400793          	li	a5,68
    25c8:	02f71263          	bne	a4,a5,25ec <xvprintf+0x314>
    25cc:	fd842783          	lw	a5,-40(s0)
    25d0:	0007de63          	bgez	a5,25ec <xvprintf+0x314>
    25d4:	fd842783          	lw	a5,-40(s0)
    25d8:	40f007b3          	neg	a5,a5
    25dc:	fcf42c23          	sw	a5,-40(s0)
    25e0:	fdc42783          	lw	a5,-36(s0)
    25e4:	0087e793          	ori	a5,a5,8
    25e8:	fcf42e23          	sw	a5,-36(s0)
    25ec:	fe042423          	sw	zero,-24(s0)
    25f0:	fd842703          	lw	a4,-40(s0)
    25f4:	fec42783          	lw	a5,-20(s0)
    25f8:	02f777b3          	remu	a5,a4,a5
    25fc:	fcf40b23          	sb	a5,-42(s0)
    2600:	fd842703          	lw	a4,-40(s0)
    2604:	fec42783          	lw	a5,-20(s0)
    2608:	02f757b3          	divu	a5,a4,a5
    260c:	fcf42c23          	sw	a5,-40(s0)
    2610:	fd644703          	lbu	a4,-42(s0)
    2614:	00900793          	li	a5,9
    2618:	02e7f463          	bgeu	a5,a4,2640 <xvprintf+0x368>
    261c:	fd744703          	lbu	a4,-41(s0)
    2620:	07800793          	li	a5,120
    2624:	00f71663          	bne	a4,a5,2630 <xvprintf+0x358>
    2628:	02700793          	li	a5,39
    262c:	0080006f          	j	2634 <xvprintf+0x35c>
    2630:	00700793          	li	a5,7
    2634:	fd644703          	lbu	a4,-42(s0)
    2638:	00e787b3          	add	a5,a5,a4
    263c:	fcf40b23          	sb	a5,-42(s0)
    2640:	fe842783          	lw	a5,-24(s0)
    2644:	00178713          	addi	a4,a5,1
    2648:	fee42423          	sw	a4,-24(s0)
    264c:	fd644703          	lbu	a4,-42(s0)
    2650:	03070713          	addi	a4,a4,48
    2654:	0ff77713          	andi	a4,a4,255
    2658:	ff040693          	addi	a3,s0,-16
    265c:	00f687b3          	add	a5,a3,a5
    2660:	fce78823          	sb	a4,-48(a5)
    2664:	fd842783          	lw	a5,-40(s0)
    2668:	00078863          	beqz	a5,2678 <xvprintf+0x3a0>
    266c:	fe842703          	lw	a4,-24(s0)
    2670:	00f00793          	li	a5,15
    2674:	f6e7fee3          	bgeu	a5,a4,25f0 <xvprintf+0x318>
    2678:	fdc42783          	lw	a5,-36(s0)
    267c:	0087f793          	andi	a5,a5,8
    2680:	02078063          	beqz	a5,26a0 <xvprintf+0x3c8>
    2684:	fe842783          	lw	a5,-24(s0)
    2688:	00178713          	addi	a4,a5,1
    268c:	fee42423          	sw	a4,-24(s0)
    2690:	ff040713          	addi	a4,s0,-16
    2694:	00f707b3          	add	a5,a4,a5
    2698:	02d00713          	li	a4,45
    269c:	fce78823          	sb	a4,-48(a5)
    26a0:	fe842783          	lw	a5,-24(s0)
    26a4:	fef42223          	sw	a5,-28(s0)
    26a8:	fdc42783          	lw	a5,-36(s0)
    26ac:	0017f793          	andi	a5,a5,1
    26b0:	00078663          	beqz	a5,26bc <xvprintf+0x3e4>
    26b4:	03000793          	li	a5,48
    26b8:	0080006f          	j	26c0 <xvprintf+0x3e8>
    26bc:	02000793          	li	a5,32
    26c0:	fcf40b23          	sb	a5,-42(s0)
    26c4:	0100006f          	j	26d4 <xvprintf+0x3fc>
    26c8:	fd644783          	lbu	a5,-42(s0)
    26cc:	00078513          	mv	a0,a5
    26d0:	b45ff0ef          	jal	ra,2214 <xputc>
    26d4:	fdc42783          	lw	a5,-36(s0)
    26d8:	0027f793          	andi	a5,a5,2
    26dc:	00079c63          	bnez	a5,26f4 <xvprintf+0x41c>
    26e0:	fe442783          	lw	a5,-28(s0)
    26e4:	00178713          	addi	a4,a5,1
    26e8:	fee42223          	sw	a4,-28(s0)
    26ec:	fe042703          	lw	a4,-32(s0)
    26f0:	fce7ece3          	bltu	a5,a4,26c8 <xvprintf+0x3f0>
    26f4:	fe842783          	lw	a5,-24(s0)
    26f8:	fff78793          	addi	a5,a5,-1
    26fc:	fef42423          	sw	a5,-24(s0)
    2700:	fe842783          	lw	a5,-24(s0)
    2704:	ff040713          	addi	a4,s0,-16
    2708:	00f707b3          	add	a5,a4,a5
    270c:	fd07c783          	lbu	a5,-48(a5)
    2710:	00078513          	mv	a0,a5
    2714:	b01ff0ef          	jal	ra,2214 <xputc>
    2718:	fe842783          	lw	a5,-24(s0)
    271c:	fc079ce3          	bnez	a5,26f4 <xvprintf+0x41c>
    2720:	00c0006f          	j	272c <xvprintf+0x454>
    2724:	02000513          	li	a0,32
    2728:	aedff0ef          	jal	ra,2214 <xputc>
    272c:	fe442783          	lw	a5,-28(s0)
    2730:	00178713          	addi	a4,a5,1
    2734:	fee42223          	sw	a4,-28(s0)
    2738:	fe042703          	lw	a4,-32(s0)
    273c:	fee7e4e3          	bltu	a5,a4,2724 <xvprintf+0x44c>
    2740:	bb1ff06f          	j	22f0 <xvprintf+0x18>
    2744:	00000013          	nop
    2748:	0080006f          	j	2750 <xvprintf+0x478>
    274c:	00000013          	nop
    2750:	00000013          	nop
    2754:	04c12083          	lw	ra,76(sp)
    2758:	04812403          	lw	s0,72(sp)
    275c:	05010113          	addi	sp,sp,80
    2760:	00008067          	ret

00002764 <xprintf>:
    2764:	fb010113          	addi	sp,sp,-80
    2768:	02112623          	sw	ra,44(sp)
    276c:	02812423          	sw	s0,40(sp)
    2770:	03010413          	addi	s0,sp,48
    2774:	fca42e23          	sw	a0,-36(s0)
    2778:	00b42223          	sw	a1,4(s0)
    277c:	00c42423          	sw	a2,8(s0)
    2780:	00d42623          	sw	a3,12(s0)
    2784:	00e42823          	sw	a4,16(s0)
    2788:	00f42a23          	sw	a5,20(s0)
    278c:	01042c23          	sw	a6,24(s0)
    2790:	01142e23          	sw	a7,28(s0)
    2794:	02040793          	addi	a5,s0,32
    2798:	fe478793          	addi	a5,a5,-28
    279c:	fef42623          	sw	a5,-20(s0)
    27a0:	fec42783          	lw	a5,-20(s0)
    27a4:	00078593          	mv	a1,a5
    27a8:	fdc42503          	lw	a0,-36(s0)
    27ac:	b2dff0ef          	jal	ra,22d8 <xvprintf>
    27b0:	00000013          	nop
    27b4:	02c12083          	lw	ra,44(sp)
    27b8:	02812403          	lw	s0,40(sp)
    27bc:	05010113          	addi	sp,sp,80
    27c0:	00008067          	ret

000027c4 <uart_putc>:
    27c4:	fe010113          	addi	sp,sp,-32
    27c8:	00812e23          	sw	s0,28(sp)
    27cc:	02010413          	addi	s0,sp,32
    27d0:	00050793          	mv	a5,a0
    27d4:	fef407a3          	sb	a5,-17(s0)
    27d8:	00000013          	nop
    27dc:	300007b7          	lui	a5,0x30000
    27e0:	00478793          	addi	a5,a5,4 # 30000004 <__freertos_irq_stack_top+0x1fff8004>
    27e4:	0007a783          	lw	a5,0(a5)
    27e8:	0017f793          	andi	a5,a5,1
    27ec:	fe0798e3          	bnez	a5,27dc <uart_putc+0x18>
    27f0:	300007b7          	lui	a5,0x30000
    27f4:	00c78793          	addi	a5,a5,12 # 3000000c <__freertos_irq_stack_top+0x1fff800c>
    27f8:	fef44703          	lbu	a4,-17(s0)
    27fc:	00e7a023          	sw	a4,0(a5)
    2800:	00000013          	nop
    2804:	01c12403          	lw	s0,28(sp)
    2808:	02010113          	addi	sp,sp,32
    280c:	00008067          	ret

00002810 <uart_init>:
    2810:	ff010113          	addi	sp,sp,-16
    2814:	00812623          	sw	s0,12(sp)
    2818:	01010413          	addi	s0,sp,16
    281c:	300007b7          	lui	a5,0x30000
    2820:	00300713          	li	a4,3
    2824:	00e7a023          	sw	a4,0(a5) # 30000000 <__freertos_irq_stack_top+0x1fff8000>
    2828:	100047b7          	lui	a5,0x10004
    282c:	00002737          	lui	a4,0x2
    2830:	7c470713          	addi	a4,a4,1988 # 27c4 <uart_putc>
    2834:	7ce7aa23          	sw	a4,2004(a5) # 100047d4 <xfunc_out>
    2838:	00000013          	nop
    283c:	00c12403          	lw	s0,12(sp)
    2840:	01010113          	addi	sp,sp,16
    2844:	00008067          	ret

00002848 <spi_init>:
    2848:	ff010113          	addi	sp,sp,-16
    284c:	00812623          	sw	s0,12(sp)
    2850:	01010413          	addi	s0,sp,16
    2854:	500007b7          	lui	a5,0x50000
    2858:	00600713          	li	a4,6
    285c:	00e7a023          	sw	a4,0(a5) # 50000000 <__freertos_irq_stack_top+0x3fff8000>
    2860:	00000013          	nop
    2864:	00c12403          	lw	s0,12(sp)
    2868:	01010113          	addi	sp,sp,16
    286c:	00008067          	ret

00002870 <spi_write_byte>:
    2870:	fe010113          	addi	sp,sp,-32
    2874:	00812e23          	sw	s0,28(sp)
    2878:	02010413          	addi	s0,sp,32
    287c:	00050793          	mv	a5,a0
    2880:	fef407a3          	sb	a5,-17(s0)
    2884:	500007b7          	lui	a5,0x50000
    2888:	00478793          	addi	a5,a5,4 # 50000004 <__freertos_irq_stack_top+0x3fff8004>
    288c:	fef44703          	lbu	a4,-17(s0)
    2890:	00e7a023          	sw	a4,0(a5)
    2894:	500007b7          	lui	a5,0x50000
    2898:	0007a703          	lw	a4,0(a5) # 50000000 <__freertos_irq_stack_top+0x3fff8000>
    289c:	500007b7          	lui	a5,0x50000
    28a0:	00176713          	ori	a4,a4,1
    28a4:	00e7a023          	sw	a4,0(a5) # 50000000 <__freertos_irq_stack_top+0x3fff8000>
    28a8:	00000013          	nop
    28ac:	500007b7          	lui	a5,0x50000
    28b0:	00878793          	addi	a5,a5,8 # 50000008 <__freertos_irq_stack_top+0x3fff8008>
    28b4:	0007a783          	lw	a5,0(a5)
    28b8:	0017f793          	andi	a5,a5,1
    28bc:	fe0798e3          	bnez	a5,28ac <spi_write_byte+0x3c>
    28c0:	00000013          	nop
    28c4:	01c12403          	lw	s0,28(sp)
    28c8:	02010113          	addi	sp,sp,32
    28cc:	00008067          	ret

000028d0 <__adddf3>:
    28d0:	00100837          	lui	a6,0x100
    28d4:	fe010113          	addi	sp,sp,-32
    28d8:	fff80813          	addi	a6,a6,-1 # fffff <_data_lma+0xfc73b>
    28dc:	00b87733          	and	a4,a6,a1
    28e0:	00912a23          	sw	s1,20(sp)
    28e4:	00d87833          	and	a6,a6,a3
    28e8:	0145d493          	srli	s1,a1,0x14
    28ec:	0146d313          	srli	t1,a3,0x14
    28f0:	00371e13          	slli	t3,a4,0x3
    28f4:	01312623          	sw	s3,12(sp)
    28f8:	01d55713          	srli	a4,a0,0x1d
    28fc:	00381813          	slli	a6,a6,0x3
    2900:	01d65793          	srli	a5,a2,0x1d
    2904:	7ff4f493          	andi	s1,s1,2047
    2908:	7ff37313          	andi	t1,t1,2047
    290c:	00112e23          	sw	ra,28(sp)
    2910:	00812c23          	sw	s0,24(sp)
    2914:	01212823          	sw	s2,16(sp)
    2918:	01f5d993          	srli	s3,a1,0x1f
    291c:	01f6de93          	srli	t4,a3,0x1f
    2920:	01c76733          	or	a4,a4,t3
    2924:	00351f13          	slli	t5,a0,0x3
    2928:	0107e833          	or	a6,a5,a6
    292c:	00361f93          	slli	t6,a2,0x3
    2930:	40648e33          	sub	t3,s1,t1
    2934:	1dd98463          	beq	s3,t4,2afc <__adddf3+0x22c>
    2938:	17c05863          	blez	t3,2aa8 <__adddf3+0x1d8>
    293c:	20030a63          	beqz	t1,2b50 <__adddf3+0x280>
    2940:	008006b7          	lui	a3,0x800
    2944:	7ff00793          	li	a5,2047
    2948:	00d86833          	or	a6,a6,a3
    294c:	40f48e63          	beq	s1,a5,2d68 <__adddf3+0x498>
    2950:	03800793          	li	a5,56
    2954:	3dc7ca63          	blt	a5,t3,2d28 <__adddf3+0x458>
    2958:	01f00793          	li	a5,31
    295c:	55c7c663          	blt	a5,t3,2ea8 <__adddf3+0x5d8>
    2960:	02000513          	li	a0,32
    2964:	41c50533          	sub	a0,a0,t3
    2968:	01cfd7b3          	srl	a5,t6,t3
    296c:	00a816b3          	sll	a3,a6,a0
    2970:	00af9933          	sll	s2,t6,a0
    2974:	00f6e6b3          	or	a3,a3,a5
    2978:	01203933          	snez	s2,s2
    297c:	01c857b3          	srl	a5,a6,t3
    2980:	0126e933          	or	s2,a3,s2
    2984:	40f70733          	sub	a4,a4,a5
    2988:	412f0933          	sub	s2,t5,s2
    298c:	012f37b3          	sltu	a5,t5,s2
    2990:	40f70633          	sub	a2,a4,a5
    2994:	00861793          	slli	a5,a2,0x8
    2998:	2a07d263          	bgez	a5,2c3c <__adddf3+0x36c>
    299c:	00800737          	lui	a4,0x800
    29a0:	fff70713          	addi	a4,a4,-1 # 7fffff <_data_lma+0x7fc73b>
    29a4:	00e67433          	and	s0,a2,a4
    29a8:	34040e63          	beqz	s0,2d04 <__adddf3+0x434>
    29ac:	00040513          	mv	a0,s0
    29b0:	681000ef          	jal	ra,3830 <__clzsi2>
    29b4:	ff850713          	addi	a4,a0,-8
    29b8:	02000793          	li	a5,32
    29bc:	40e787b3          	sub	a5,a5,a4
    29c0:	00f957b3          	srl	a5,s2,a5
    29c4:	00e41633          	sll	a2,s0,a4
    29c8:	00c7e7b3          	or	a5,a5,a2
    29cc:	00e91933          	sll	s2,s2,a4
    29d0:	30974c63          	blt	a4,s1,2ce8 <__adddf3+0x418>
    29d4:	40970533          	sub	a0,a4,s1
    29d8:	00150613          	addi	a2,a0,1
    29dc:	01f00713          	li	a4,31
    29e0:	44c74663          	blt	a4,a2,2e2c <__adddf3+0x55c>
    29e4:	02000713          	li	a4,32
    29e8:	40c70733          	sub	a4,a4,a2
    29ec:	00c956b3          	srl	a3,s2,a2
    29f0:	00e91933          	sll	s2,s2,a4
    29f4:	00e79733          	sll	a4,a5,a4
    29f8:	00d76733          	or	a4,a4,a3
    29fc:	01203933          	snez	s2,s2
    2a00:	01276933          	or	s2,a4,s2
    2a04:	00c7d633          	srl	a2,a5,a2
    2a08:	00000493          	li	s1,0
    2a0c:	00797793          	andi	a5,s2,7
    2a10:	02078063          	beqz	a5,2a30 <__adddf3+0x160>
    2a14:	00f97713          	andi	a4,s2,15
    2a18:	00400793          	li	a5,4
    2a1c:	00f70a63          	beq	a4,a5,2a30 <__adddf3+0x160>
    2a20:	00490713          	addi	a4,s2,4
    2a24:	01273933          	sltu	s2,a4,s2
    2a28:	01260633          	add	a2,a2,s2
    2a2c:	00070913          	mv	s2,a4
    2a30:	00861793          	slli	a5,a2,0x8
    2a34:	2007d863          	bgez	a5,2c44 <__adddf3+0x374>
    2a38:	00148513          	addi	a0,s1,1
    2a3c:	7ff00793          	li	a5,2047
    2a40:	00098593          	mv	a1,s3
    2a44:	24f50c63          	beq	a0,a5,2c9c <__adddf3+0x3cc>
    2a48:	ff8007b7          	lui	a5,0xff800
    2a4c:	fff78793          	addi	a5,a5,-1 # ff7fffff <__freertos_irq_stack_top+0xef7f7fff>
    2a50:	00f677b3          	and	a5,a2,a5
    2a54:	01d79893          	slli	a7,a5,0x1d
    2a58:	00395913          	srli	s2,s2,0x3
    2a5c:	00979793          	slli	a5,a5,0x9
    2a60:	0128e8b3          	or	a7,a7,s2
    2a64:	00c7d793          	srli	a5,a5,0xc
    2a68:	7ff57513          	andi	a0,a0,2047
    2a6c:	00c79693          	slli	a3,a5,0xc
    2a70:	01451513          	slli	a0,a0,0x14
    2a74:	01c12083          	lw	ra,28(sp)
    2a78:	01812403          	lw	s0,24(sp)
    2a7c:	00c6d693          	srli	a3,a3,0xc
    2a80:	01f59593          	slli	a1,a1,0x1f
    2a84:	00a6e6b3          	or	a3,a3,a0
    2a88:	00b6e6b3          	or	a3,a3,a1
    2a8c:	01412483          	lw	s1,20(sp)
    2a90:	01012903          	lw	s2,16(sp)
    2a94:	00c12983          	lw	s3,12(sp)
    2a98:	00088513          	mv	a0,a7
    2a9c:	00068593          	mv	a1,a3
    2aa0:	02010113          	addi	sp,sp,32
    2aa4:	00008067          	ret
    2aa8:	0c0e1463          	bnez	t3,2b70 <__adddf3+0x2a0>
    2aac:	00148313          	addi	t1,s1,1
    2ab0:	7fe37313          	andi	t1,t1,2046
    2ab4:	28031063          	bnez	t1,2d34 <__adddf3+0x464>
    2ab8:	01e767b3          	or	a5,a4,t5
    2abc:	01f868b3          	or	a7,a6,t6
    2ac0:	1e049663          	bnez	s1,2cac <__adddf3+0x3dc>
    2ac4:	4c078063          	beqz	a5,2f84 <__adddf3+0x6b4>
    2ac8:	50088863          	beqz	a7,2fd8 <__adddf3+0x708>
    2acc:	41ff0933          	sub	s2,t5,t6
    2ad0:	410707b3          	sub	a5,a4,a6
    2ad4:	012f3633          	sltu	a2,t5,s2
    2ad8:	40c78633          	sub	a2,a5,a2
    2adc:	00861793          	slli	a5,a2,0x8
    2ae0:	5a07d463          	bgez	a5,3088 <__adddf3+0x7b8>
    2ae4:	41ef8933          	sub	s2,t6,t5
    2ae8:	40e807b3          	sub	a5,a6,a4
    2aec:	012fb633          	sltu	a2,t6,s2
    2af0:	40c78633          	sub	a2,a5,a2
    2af4:	000e8993          	mv	s3,t4
    2af8:	f15ff06f          	j	2a0c <__adddf3+0x13c>
    2afc:	0fc05a63          	blez	t3,2bf0 <__adddf3+0x320>
    2b00:	0c030863          	beqz	t1,2bd0 <__adddf3+0x300>
    2b04:	008006b7          	lui	a3,0x800
    2b08:	7ff00793          	li	a5,2047
    2b0c:	00d86833          	or	a6,a6,a3
    2b10:	44f48e63          	beq	s1,a5,2f6c <__adddf3+0x69c>
    2b14:	03800793          	li	a5,56
    2b18:	15c7cc63          	blt	a5,t3,2c70 <__adddf3+0x3a0>
    2b1c:	01f00793          	li	a5,31
    2b20:	3fc7da63          	bge	a5,t3,2f14 <__adddf3+0x644>
    2b24:	fe0e0913          	addi	s2,t3,-32
    2b28:	02000793          	li	a5,32
    2b2c:	012856b3          	srl	a3,a6,s2
    2b30:	00fe0a63          	beq	t3,a5,2b44 <__adddf3+0x274>
    2b34:	04000913          	li	s2,64
    2b38:	41c90933          	sub	s2,s2,t3
    2b3c:	01281933          	sll	s2,a6,s2
    2b40:	012fefb3          	or	t6,t6,s2
    2b44:	01f03933          	snez	s2,t6
    2b48:	00d96933          	or	s2,s2,a3
    2b4c:	12c0006f          	j	2c78 <__adddf3+0x3a8>
    2b50:	01f867b3          	or	a5,a6,t6
    2b54:	22078663          	beqz	a5,2d80 <__adddf3+0x4b0>
    2b58:	fffe0793          	addi	a5,t3,-1
    2b5c:	44078463          	beqz	a5,2fa4 <__adddf3+0x6d4>
    2b60:	7ff00693          	li	a3,2047
    2b64:	20de0263          	beq	t3,a3,2d68 <__adddf3+0x498>
    2b68:	00078e13          	mv	t3,a5
    2b6c:	de5ff06f          	j	2950 <__adddf3+0x80>
    2b70:	409305b3          	sub	a1,t1,s1
    2b74:	28049663          	bnez	s1,2e00 <__adddf3+0x530>
    2b78:	01e767b3          	or	a5,a4,t5
    2b7c:	3c078263          	beqz	a5,2f40 <__adddf3+0x670>
    2b80:	fff58793          	addi	a5,a1,-1
    2b84:	50078c63          	beqz	a5,309c <__adddf3+0x7cc>
    2b88:	7ff00693          	li	a3,2047
    2b8c:	28d58263          	beq	a1,a3,2e10 <__adddf3+0x540>
    2b90:	00078593          	mv	a1,a5
    2b94:	03800793          	li	a5,56
    2b98:	32b7ce63          	blt	a5,a1,2ed4 <__adddf3+0x604>
    2b9c:	01f00793          	li	a5,31
    2ba0:	4ab7c263          	blt	a5,a1,3044 <__adddf3+0x774>
    2ba4:	02000793          	li	a5,32
    2ba8:	40b787b3          	sub	a5,a5,a1
    2bac:	00f71933          	sll	s2,a4,a5
    2bb0:	00bf56b3          	srl	a3,t5,a1
    2bb4:	00ff17b3          	sll	a5,t5,a5
    2bb8:	00d96933          	or	s2,s2,a3
    2bbc:	00f037b3          	snez	a5,a5
    2bc0:	00b75733          	srl	a4,a4,a1
    2bc4:	00f96933          	or	s2,s2,a5
    2bc8:	40e80833          	sub	a6,a6,a4
    2bcc:	3100006f          	j	2edc <__adddf3+0x60c>
    2bd0:	01f867b3          	or	a5,a6,t6
    2bd4:	3e078463          	beqz	a5,2fbc <__adddf3+0x6ec>
    2bd8:	fffe0793          	addi	a5,t3,-1
    2bdc:	28078263          	beqz	a5,2e60 <__adddf3+0x590>
    2be0:	7ff00693          	li	a3,2047
    2be4:	38de0463          	beq	t3,a3,2f6c <__adddf3+0x69c>
    2be8:	00078e13          	mv	t3,a5
    2bec:	f29ff06f          	j	2b14 <__adddf3+0x244>
    2bf0:	1a0e1663          	bnez	t3,2d9c <__adddf3+0x4cc>
    2bf4:	00148693          	addi	a3,s1,1
    2bf8:	7fe6f793          	andi	a5,a3,2046
    2bfc:	3e079a63          	bnez	a5,2ff0 <__adddf3+0x720>
    2c00:	01e767b3          	or	a5,a4,t5
    2c04:	34049e63          	bnez	s1,2f60 <__adddf3+0x690>
    2c08:	4a078863          	beqz	a5,30b8 <__adddf3+0x7e8>
    2c0c:	01f867b3          	or	a5,a6,t6
    2c10:	3c078463          	beqz	a5,2fd8 <__adddf3+0x708>
    2c14:	01ff0933          	add	s2,t5,t6
    2c18:	010707b3          	add	a5,a4,a6
    2c1c:	01e93f33          	sltu	t5,s2,t5
    2c20:	01e78633          	add	a2,a5,t5
    2c24:	00861793          	slli	a5,a2,0x8
    2c28:	0007da63          	bgez	a5,2c3c <__adddf3+0x36c>
    2c2c:	ff8007b7          	lui	a5,0xff800
    2c30:	fff78793          	addi	a5,a5,-1 # ff7fffff <__freertos_irq_stack_top+0xef7f7fff>
    2c34:	00f67633          	and	a2,a2,a5
    2c38:	00100493          	li	s1,1
    2c3c:	00797793          	andi	a5,s2,7
    2c40:	dc079ae3          	bnez	a5,2a14 <__adddf3+0x144>
    2c44:	01d61793          	slli	a5,a2,0x1d
    2c48:	00395893          	srli	a7,s2,0x3
    2c4c:	00f8e8b3          	or	a7,a7,a5
    2c50:	00365793          	srli	a5,a2,0x3
    2c54:	7ff00713          	li	a4,2047
    2c58:	06e48a63          	beq	s1,a4,2ccc <__adddf3+0x3fc>
    2c5c:	00c79793          	slli	a5,a5,0xc
    2c60:	00c7d793          	srli	a5,a5,0xc
    2c64:	7ff4f513          	andi	a0,s1,2047
    2c68:	00098593          	mv	a1,s3
    2c6c:	e01ff06f          	j	2a6c <__adddf3+0x19c>
    2c70:	01f86933          	or	s2,a6,t6
    2c74:	01203933          	snez	s2,s2
    2c78:	01e90933          	add	s2,s2,t5
    2c7c:	01e937b3          	sltu	a5,s2,t5
    2c80:	00e78633          	add	a2,a5,a4
    2c84:	00861793          	slli	a5,a2,0x8
    2c88:	fa07dae3          	bgez	a5,2c3c <__adddf3+0x36c>
    2c8c:	00148493          	addi	s1,s1,1
    2c90:	7ff00793          	li	a5,2047
    2c94:	1ef49663          	bne	s1,a5,2e80 <__adddf3+0x5b0>
    2c98:	00098593          	mv	a1,s3
    2c9c:	7ff00513          	li	a0,2047
    2ca0:	00000793          	li	a5,0
    2ca4:	00000893          	li	a7,0
    2ca8:	dc5ff06f          	j	2a6c <__adddf3+0x19c>
    2cac:	0a079c63          	bnez	a5,2d64 <__adddf3+0x494>
    2cb0:	46088463          	beqz	a7,3118 <__adddf3+0x848>
    2cb4:	00361693          	slli	a3,a2,0x3
    2cb8:	01d81793          	slli	a5,a6,0x1d
    2cbc:	0036d693          	srli	a3,a3,0x3
    2cc0:	00d7e8b3          	or	a7,a5,a3
    2cc4:	000e8993          	mv	s3,t4
    2cc8:	00385793          	srli	a5,a6,0x3
    2ccc:	00f8e7b3          	or	a5,a7,a5
    2cd0:	fc0784e3          	beqz	a5,2c98 <__adddf3+0x3c8>
    2cd4:	00000593          	li	a1,0
    2cd8:	7ff00513          	li	a0,2047
    2cdc:	000807b7          	lui	a5,0x80
    2ce0:	00000893          	li	a7,0
    2ce4:	d89ff06f          	j	2a6c <__adddf3+0x19c>
    2ce8:	ff800637          	lui	a2,0xff800
    2cec:	fff60613          	addi	a2,a2,-1 # ff7fffff <__freertos_irq_stack_top+0xef7f7fff>
    2cf0:	00c7f633          	and	a2,a5,a2
    2cf4:	00797793          	andi	a5,s2,7
    2cf8:	40e484b3          	sub	s1,s1,a4
    2cfc:	d0079ce3          	bnez	a5,2a14 <__adddf3+0x144>
    2d00:	f45ff06f          	j	2c44 <__adddf3+0x374>
    2d04:	00090513          	mv	a0,s2
    2d08:	329000ef          	jal	ra,3830 <__clzsi2>
    2d0c:	01850713          	addi	a4,a0,24
    2d10:	01f00793          	li	a5,31
    2d14:	cae7d2e3          	bge	a5,a4,29b8 <__adddf3+0xe8>
    2d18:	ff850613          	addi	a2,a0,-8
    2d1c:	00c917b3          	sll	a5,s2,a2
    2d20:	00000913          	li	s2,0
    2d24:	cadff06f          	j	29d0 <__adddf3+0x100>
    2d28:	01f86933          	or	s2,a6,t6
    2d2c:	01203933          	snez	s2,s2
    2d30:	c59ff06f          	j	2988 <__adddf3+0xb8>
    2d34:	41ff0933          	sub	s2,t5,t6
    2d38:	41070633          	sub	a2,a4,a6
    2d3c:	012f3433          	sltu	s0,t5,s2
    2d40:	40860433          	sub	s0,a2,s0
    2d44:	00841793          	slli	a5,s0,0x8
    2d48:	2c07cc63          	bltz	a5,3020 <__adddf3+0x750>
    2d4c:	008968b3          	or	a7,s2,s0
    2d50:	c4089ce3          	bnez	a7,29a8 <__adddf3+0xd8>
    2d54:	00000793          	li	a5,0
    2d58:	00000993          	li	s3,0
    2d5c:	00000493          	li	s1,0
    2d60:	efdff06f          	j	2c5c <__adddf3+0x38c>
    2d64:	f60898e3          	bnez	a7,2cd4 <__adddf3+0x404>
    2d68:	00351513          	slli	a0,a0,0x3
    2d6c:	01d71793          	slli	a5,a4,0x1d
    2d70:	00355513          	srli	a0,a0,0x3
    2d74:	00a7e8b3          	or	a7,a5,a0
    2d78:	00375793          	srli	a5,a4,0x3
    2d7c:	f51ff06f          	j	2ccc <__adddf3+0x3fc>
    2d80:	00351513          	slli	a0,a0,0x3
    2d84:	01d71793          	slli	a5,a4,0x1d
    2d88:	00355513          	srli	a0,a0,0x3
    2d8c:	00a7e8b3          	or	a7,a5,a0
    2d90:	000e0493          	mv	s1,t3
    2d94:	00375793          	srli	a5,a4,0x3
    2d98:	ebdff06f          	j	2c54 <__adddf3+0x384>
    2d9c:	40930533          	sub	a0,t1,s1
    2da0:	14048a63          	beqz	s1,2ef4 <__adddf3+0x624>
    2da4:	008006b7          	lui	a3,0x800
    2da8:	7ff00793          	li	a5,2047
    2dac:	00d76733          	or	a4,a4,a3
    2db0:	38f30663          	beq	t1,a5,313c <__adddf3+0x86c>
    2db4:	03800793          	li	a5,56
    2db8:	28a7c063          	blt	a5,a0,3038 <__adddf3+0x768>
    2dbc:	01f00793          	li	a5,31
    2dc0:	32a7c663          	blt	a5,a0,30ec <__adddf3+0x81c>
    2dc4:	02000793          	li	a5,32
    2dc8:	40a787b3          	sub	a5,a5,a0
    2dcc:	00f71933          	sll	s2,a4,a5
    2dd0:	00af56b3          	srl	a3,t5,a0
    2dd4:	00ff17b3          	sll	a5,t5,a5
    2dd8:	00d96933          	or	s2,s2,a3
    2ddc:	00f037b3          	snez	a5,a5
    2de0:	00a75733          	srl	a4,a4,a0
    2de4:	00f96933          	or	s2,s2,a5
    2de8:	00e80833          	add	a6,a6,a4
    2dec:	01f90933          	add	s2,s2,t6
    2df0:	01f937b3          	sltu	a5,s2,t6
    2df4:	01078633          	add	a2,a5,a6
    2df8:	00030493          	mv	s1,t1
    2dfc:	e89ff06f          	j	2c84 <__adddf3+0x3b4>
    2e00:	008006b7          	lui	a3,0x800
    2e04:	7ff00793          	li	a5,2047
    2e08:	00d76733          	or	a4,a4,a3
    2e0c:	d8f314e3          	bne	t1,a5,2b94 <__adddf3+0x2c4>
    2e10:	00361793          	slli	a5,a2,0x3
    2e14:	0037d793          	srli	a5,a5,0x3
    2e18:	01d81893          	slli	a7,a6,0x1d
    2e1c:	0117e8b3          	or	a7,a5,a7
    2e20:	000e8993          	mv	s3,t4
    2e24:	00385793          	srli	a5,a6,0x3
    2e28:	ea5ff06f          	j	2ccc <__adddf3+0x3fc>
    2e2c:	fe150713          	addi	a4,a0,-31
    2e30:	02000693          	li	a3,32
    2e34:	00e7d733          	srl	a4,a5,a4
    2e38:	00d60a63          	beq	a2,a3,2e4c <__adddf3+0x57c>
    2e3c:	04000693          	li	a3,64
    2e40:	40c68633          	sub	a2,a3,a2
    2e44:	00c79633          	sll	a2,a5,a2
    2e48:	00c96933          	or	s2,s2,a2
    2e4c:	01203933          	snez	s2,s2
    2e50:	00e96933          	or	s2,s2,a4
    2e54:	00000613          	li	a2,0
    2e58:	00000493          	li	s1,0
    2e5c:	de1ff06f          	j	2c3c <__adddf3+0x36c>
    2e60:	01ff0933          	add	s2,t5,t6
    2e64:	010707b3          	add	a5,a4,a6
    2e68:	01e93633          	sltu	a2,s2,t5
    2e6c:	00c78633          	add	a2,a5,a2
    2e70:	00861793          	slli	a5,a2,0x8
    2e74:	00100493          	li	s1,1
    2e78:	dc07d2e3          	bgez	a5,2c3c <__adddf3+0x36c>
    2e7c:	00200493          	li	s1,2
    2e80:	ff8007b7          	lui	a5,0xff800
    2e84:	fff78793          	addi	a5,a5,-1 # ff7fffff <__freertos_irq_stack_top+0xef7f7fff>
    2e88:	00f677b3          	and	a5,a2,a5
    2e8c:	00195713          	srli	a4,s2,0x1
    2e90:	00197913          	andi	s2,s2,1
    2e94:	01276933          	or	s2,a4,s2
    2e98:	01f79893          	slli	a7,a5,0x1f
    2e9c:	0128e933          	or	s2,a7,s2
    2ea0:	0017d613          	srli	a2,a5,0x1
    2ea4:	b69ff06f          	j	2a0c <__adddf3+0x13c>
    2ea8:	fe0e0913          	addi	s2,t3,-32
    2eac:	02000793          	li	a5,32
    2eb0:	012856b3          	srl	a3,a6,s2
    2eb4:	00fe0a63          	beq	t3,a5,2ec8 <__adddf3+0x5f8>
    2eb8:	04000913          	li	s2,64
    2ebc:	41c90933          	sub	s2,s2,t3
    2ec0:	01281933          	sll	s2,a6,s2
    2ec4:	012fefb3          	or	t6,t6,s2
    2ec8:	01f03933          	snez	s2,t6
    2ecc:	00d96933          	or	s2,s2,a3
    2ed0:	ab9ff06f          	j	2988 <__adddf3+0xb8>
    2ed4:	01e76933          	or	s2,a4,t5
    2ed8:	01203933          	snez	s2,s2
    2edc:	412f8933          	sub	s2,t6,s2
    2ee0:	012fb7b3          	sltu	a5,t6,s2
    2ee4:	40f80633          	sub	a2,a6,a5
    2ee8:	00030493          	mv	s1,t1
    2eec:	000e8993          	mv	s3,t4
    2ef0:	aa5ff06f          	j	2994 <__adddf3+0xc4>
    2ef4:	01e767b3          	or	a5,a4,t5
    2ef8:	1c078c63          	beqz	a5,30d0 <__adddf3+0x800>
    2efc:	fff50793          	addi	a5,a0,-1
    2f00:	22078463          	beqz	a5,3128 <__adddf3+0x858>
    2f04:	7ff00693          	li	a3,2047
    2f08:	16d50463          	beq	a0,a3,3070 <__adddf3+0x7a0>
    2f0c:	00078513          	mv	a0,a5
    2f10:	ea5ff06f          	j	2db4 <__adddf3+0x4e4>
    2f14:	02000793          	li	a5,32
    2f18:	41c787b3          	sub	a5,a5,t3
    2f1c:	00f816b3          	sll	a3,a6,a5
    2f20:	00ff9933          	sll	s2,t6,a5
    2f24:	01cfd633          	srl	a2,t6,t3
    2f28:	00c6e6b3          	or	a3,a3,a2
    2f2c:	01203933          	snez	s2,s2
    2f30:	01c857b3          	srl	a5,a6,t3
    2f34:	0126e933          	or	s2,a3,s2
    2f38:	00f70733          	add	a4,a4,a5
    2f3c:	d3dff06f          	j	2c78 <__adddf3+0x3a8>
    2f40:	00361793          	slli	a5,a2,0x3
    2f44:	0037d793          	srli	a5,a5,0x3
    2f48:	01d81893          	slli	a7,a6,0x1d
    2f4c:	0117e8b3          	or	a7,a5,a7
    2f50:	00058493          	mv	s1,a1
    2f54:	00385793          	srli	a5,a6,0x3
    2f58:	000e8993          	mv	s3,t4
    2f5c:	cf9ff06f          	j	2c54 <__adddf3+0x384>
    2f60:	10078863          	beqz	a5,3070 <__adddf3+0x7a0>
    2f64:	01f86933          	or	s2,a6,t6
    2f68:	d60916e3          	bnez	s2,2cd4 <__adddf3+0x404>
    2f6c:	00351513          	slli	a0,a0,0x3
    2f70:	01d71793          	slli	a5,a4,0x1d
    2f74:	00355513          	srli	a0,a0,0x3
    2f78:	00f568b3          	or	a7,a0,a5
    2f7c:	00375793          	srli	a5,a4,0x3
    2f80:	d4dff06f          	j	2ccc <__adddf3+0x3fc>
    2f84:	10088663          	beqz	a7,3090 <__adddf3+0x7c0>
    2f88:	00361693          	slli	a3,a2,0x3
    2f8c:	01d81793          	slli	a5,a6,0x1d
    2f90:	0036d693          	srli	a3,a3,0x3
    2f94:	00d7e8b3          	or	a7,a5,a3
    2f98:	000e8993          	mv	s3,t4
    2f9c:	00385793          	srli	a5,a6,0x3
    2fa0:	cbdff06f          	j	2c5c <__adddf3+0x38c>
    2fa4:	41ff0933          	sub	s2,t5,t6
    2fa8:	410707b3          	sub	a5,a4,a6
    2fac:	012f3f33          	sltu	t5,t5,s2
    2fb0:	41e78633          	sub	a2,a5,t5
    2fb4:	00100493          	li	s1,1
    2fb8:	9ddff06f          	j	2994 <__adddf3+0xc4>
    2fbc:	00351513          	slli	a0,a0,0x3
    2fc0:	01d71793          	slli	a5,a4,0x1d
    2fc4:	00355513          	srli	a0,a0,0x3
    2fc8:	00f568b3          	or	a7,a0,a5
    2fcc:	000e0493          	mv	s1,t3
    2fd0:	00375793          	srli	a5,a4,0x3
    2fd4:	c81ff06f          	j	2c54 <__adddf3+0x384>
    2fd8:	00351513          	slli	a0,a0,0x3
    2fdc:	01d71793          	slli	a5,a4,0x1d
    2fe0:	00355513          	srli	a0,a0,0x3
    2fe4:	00a7e8b3          	or	a7,a5,a0
    2fe8:	00375793          	srli	a5,a4,0x3
    2fec:	c71ff06f          	j	2c5c <__adddf3+0x38c>
    2ff0:	7ff00793          	li	a5,2047
    2ff4:	caf682e3          	beq	a3,a5,2c98 <__adddf3+0x3c8>
    2ff8:	01ff0933          	add	s2,t5,t6
    2ffc:	01e93633          	sltu	a2,s2,t5
    3000:	010707b3          	add	a5,a4,a6
    3004:	00c787b3          	add	a5,a5,a2
    3008:	01f79893          	slli	a7,a5,0x1f
    300c:	00195913          	srli	s2,s2,0x1
    3010:	0128e933          	or	s2,a7,s2
    3014:	0017d613          	srli	a2,a5,0x1
    3018:	00068493          	mv	s1,a3
    301c:	c21ff06f          	j	2c3c <__adddf3+0x36c>
    3020:	41ef8933          	sub	s2,t6,t5
    3024:	40e80733          	sub	a4,a6,a4
    3028:	012fb633          	sltu	a2,t6,s2
    302c:	40c70433          	sub	s0,a4,a2
    3030:	000e8993          	mv	s3,t4
    3034:	975ff06f          	j	29a8 <__adddf3+0xd8>
    3038:	01e76933          	or	s2,a4,t5
    303c:	01203933          	snez	s2,s2
    3040:	dadff06f          	j	2dec <__adddf3+0x51c>
    3044:	fe058793          	addi	a5,a1,-32
    3048:	02000693          	li	a3,32
    304c:	00f757b3          	srl	a5,a4,a5
    3050:	00d58a63          	beq	a1,a3,3064 <__adddf3+0x794>
    3054:	04000693          	li	a3,64
    3058:	40b685b3          	sub	a1,a3,a1
    305c:	00b71733          	sll	a4,a4,a1
    3060:	00ef6f33          	or	t5,t5,a4
    3064:	01e03933          	snez	s2,t5
    3068:	00f96933          	or	s2,s2,a5
    306c:	e71ff06f          	j	2edc <__adddf3+0x60c>
    3070:	00361793          	slli	a5,a2,0x3
    3074:	0037d793          	srli	a5,a5,0x3
    3078:	01d81893          	slli	a7,a6,0x1d
    307c:	0117e8b3          	or	a7,a5,a7
    3080:	00385793          	srli	a5,a6,0x3
    3084:	c49ff06f          	j	2ccc <__adddf3+0x3fc>
    3088:	00c968b3          	or	a7,s2,a2
    308c:	ba0898e3          	bnez	a7,2c3c <__adddf3+0x36c>
    3090:	00000793          	li	a5,0
    3094:	00000993          	li	s3,0
    3098:	bc5ff06f          	j	2c5c <__adddf3+0x38c>
    309c:	41ef8933          	sub	s2,t6,t5
    30a0:	40e807b3          	sub	a5,a6,a4
    30a4:	012fb633          	sltu	a2,t6,s2
    30a8:	40c78633          	sub	a2,a5,a2
    30ac:	000e8993          	mv	s3,t4
    30b0:	00100493          	li	s1,1
    30b4:	8e1ff06f          	j	2994 <__adddf3+0xc4>
    30b8:	00361693          	slli	a3,a2,0x3
    30bc:	01d81793          	slli	a5,a6,0x1d
    30c0:	0036d693          	srli	a3,a3,0x3
    30c4:	00d7e8b3          	or	a7,a5,a3
    30c8:	00385793          	srli	a5,a6,0x3
    30cc:	b91ff06f          	j	2c5c <__adddf3+0x38c>
    30d0:	00361693          	slli	a3,a2,0x3
    30d4:	01d81793          	slli	a5,a6,0x1d
    30d8:	0036d693          	srli	a3,a3,0x3
    30dc:	00d7e8b3          	or	a7,a5,a3
    30e0:	00050493          	mv	s1,a0
    30e4:	00385793          	srli	a5,a6,0x3
    30e8:	b6dff06f          	j	2c54 <__adddf3+0x384>
    30ec:	fe050793          	addi	a5,a0,-32
    30f0:	02000693          	li	a3,32
    30f4:	00f757b3          	srl	a5,a4,a5
    30f8:	00d50a63          	beq	a0,a3,310c <__adddf3+0x83c>
    30fc:	04000693          	li	a3,64
    3100:	40a68533          	sub	a0,a3,a0
    3104:	00a71733          	sll	a4,a4,a0
    3108:	00ef6f33          	or	t5,t5,a4
    310c:	01e03933          	snez	s2,t5
    3110:	00f96933          	or	s2,s2,a5
    3114:	cd9ff06f          	j	2dec <__adddf3+0x51c>
    3118:	00000593          	li	a1,0
    311c:	7ff00513          	li	a0,2047
    3120:	000807b7          	lui	a5,0x80
    3124:	949ff06f          	j	2a6c <__adddf3+0x19c>
    3128:	01ff0933          	add	s2,t5,t6
    312c:	010707b3          	add	a5,a4,a6
    3130:	01f93633          	sltu	a2,s2,t6
    3134:	00c78633          	add	a2,a5,a2
    3138:	d39ff06f          	j	2e70 <__adddf3+0x5a0>
    313c:	00361693          	slli	a3,a2,0x3
    3140:	01d81793          	slli	a5,a6,0x1d
    3144:	0036d693          	srli	a3,a3,0x3
    3148:	00d7e8b3          	or	a7,a5,a3
    314c:	00385793          	srli	a5,a6,0x3
    3150:	b7dff06f          	j	2ccc <__adddf3+0x3fc>

00003154 <__mulsf3>:
    3154:	fd010113          	addi	sp,sp,-48
    3158:	02812423          	sw	s0,40(sp)
    315c:	01755413          	srli	s0,a0,0x17
    3160:	01312e23          	sw	s3,28(sp)
    3164:	01412c23          	sw	s4,24(sp)
    3168:	00951993          	slli	s3,a0,0x9
    316c:	02112623          	sw	ra,44(sp)
    3170:	02912223          	sw	s1,36(sp)
    3174:	03212023          	sw	s2,32(sp)
    3178:	01512a23          	sw	s5,20(sp)
    317c:	01612823          	sw	s6,16(sp)
    3180:	0ff47413          	andi	s0,s0,255
    3184:	0099d993          	srli	s3,s3,0x9
    3188:	01f55a13          	srli	s4,a0,0x1f
    318c:	12040063          	beqz	s0,32ac <__mulsf3+0x158>
    3190:	0ff00793          	li	a5,255
    3194:	14f40863          	beq	s0,a5,32e4 <__mulsf3+0x190>
    3198:	00399793          	slli	a5,s3,0x3
    319c:	04000737          	lui	a4,0x4000
    31a0:	00e7e9b3          	or	s3,a5,a4
    31a4:	f8140413          	addi	s0,s0,-127
    31a8:	00000493          	li	s1,0
    31ac:	00000b13          	li	s6,0
    31b0:	0175d713          	srli	a4,a1,0x17
    31b4:	00959a93          	slli	s5,a1,0x9
    31b8:	0ff77713          	andi	a4,a4,255
    31bc:	009ada93          	srli	s5,s5,0x9
    31c0:	01f5d913          	srli	s2,a1,0x1f
    31c4:	10070863          	beqz	a4,32d4 <__mulsf3+0x180>
    31c8:	0ff00793          	li	a5,255
    31cc:	04f70663          	beq	a4,a5,3218 <__mulsf3+0xc4>
    31d0:	003a9a93          	slli	s5,s5,0x3
    31d4:	f8170713          	addi	a4,a4,-127 # 3ffff81 <_data_lma+0x3ffc6bd>
    31d8:	040007b7          	lui	a5,0x4000
    31dc:	00faeab3          	or	s5,s5,a5
    31e0:	00e40433          	add	s0,s0,a4
    31e4:	00000613          	li	a2,0
    31e8:	012a4533          	xor	a0,s4,s2
    31ec:	00f00793          	li	a5,15
    31f0:	00050693          	mv	a3,a0
    31f4:	00140593          	addi	a1,s0,1
    31f8:	1897e263          	bltu	a5,s1,337c <__mulsf3+0x228>
    31fc:	10001717          	auipc	a4,0x10001
    3200:	49070713          	addi	a4,a4,1168 # 1000468c <gImage_1+0xd68>
    3204:	00249493          	slli	s1,s1,0x2
    3208:	00e484b3          	add	s1,s1,a4
    320c:	0004a783          	lw	a5,0(s1)
    3210:	00e787b3          	add	a5,a5,a4
    3214:	00078067          	jr	a5 # 4000000 <_data_lma+0x3ffc73c>
    3218:	0ff40413          	addi	s0,s0,255
    321c:	120a9c63          	bnez	s5,3354 <__mulsf3+0x200>
    3220:	0024e493          	ori	s1,s1,2
    3224:	00200613          	li	a2,2
    3228:	fc1ff06f          	j	31e8 <__mulsf3+0x94>
    322c:	00000513          	li	a0,0
    3230:	0ff00713          	li	a4,255
    3234:	004007b7          	lui	a5,0x400
    3238:	02c12083          	lw	ra,44(sp)
    323c:	02812403          	lw	s0,40(sp)
    3240:	00979793          	slli	a5,a5,0x9
    3244:	01771713          	slli	a4,a4,0x17
    3248:	0097d793          	srli	a5,a5,0x9
    324c:	01f51513          	slli	a0,a0,0x1f
    3250:	00e7e7b3          	or	a5,a5,a4
    3254:	02412483          	lw	s1,36(sp)
    3258:	02012903          	lw	s2,32(sp)
    325c:	01c12983          	lw	s3,28(sp)
    3260:	01812a03          	lw	s4,24(sp)
    3264:	01412a83          	lw	s5,20(sp)
    3268:	01012b03          	lw	s6,16(sp)
    326c:	00a7e533          	or	a0,a5,a0
    3270:	03010113          	addi	sp,sp,48
    3274:	00008067          	ret
    3278:	00090693          	mv	a3,s2
    327c:	000a8993          	mv	s3,s5
    3280:	00060b13          	mv	s6,a2
    3284:	00200793          	li	a5,2
    3288:	0efb0263          	beq	s6,a5,336c <__mulsf3+0x218>
    328c:	00300793          	li	a5,3
    3290:	f8fb0ee3          	beq	s6,a5,322c <__mulsf3+0xd8>
    3294:	00100793          	li	a5,1
    3298:	00068513          	mv	a0,a3
    329c:	22fb1463          	bne	s6,a5,34c4 <__mulsf3+0x370>
    32a0:	00000713          	li	a4,0
    32a4:	00000793          	li	a5,0
    32a8:	f91ff06f          	j	3238 <__mulsf3+0xe4>
    32ac:	06099e63          	bnez	s3,3328 <__mulsf3+0x1d4>
    32b0:	0175d713          	srli	a4,a1,0x17
    32b4:	00959a93          	slli	s5,a1,0x9
    32b8:	0ff77713          	andi	a4,a4,255
    32bc:	00400493          	li	s1,4
    32c0:	00000413          	li	s0,0
    32c4:	00100b13          	li	s6,1
    32c8:	009ada93          	srli	s5,s5,0x9
    32cc:	01f5d913          	srli	s2,a1,0x1f
    32d0:	ee071ce3          	bnez	a4,31c8 <__mulsf3+0x74>
    32d4:	020a9263          	bnez	s5,32f8 <__mulsf3+0x1a4>
    32d8:	0014e493          	ori	s1,s1,1
    32dc:	00100613          	li	a2,1
    32e0:	f09ff06f          	j	31e8 <__mulsf3+0x94>
    32e4:	02099a63          	bnez	s3,3318 <__mulsf3+0x1c4>
    32e8:	00800493          	li	s1,8
    32ec:	0ff00413          	li	s0,255
    32f0:	00200b13          	li	s6,2
    32f4:	ebdff06f          	j	31b0 <__mulsf3+0x5c>
    32f8:	000a8513          	mv	a0,s5
    32fc:	534000ef          	jal	ra,3830 <__clzsi2>
    3300:	ffb50793          	addi	a5,a0,-5
    3304:	40a40433          	sub	s0,s0,a0
    3308:	00fa9ab3          	sll	s5,s5,a5
    330c:	f8a40413          	addi	s0,s0,-118
    3310:	00000613          	li	a2,0
    3314:	ed5ff06f          	j	31e8 <__mulsf3+0x94>
    3318:	00c00493          	li	s1,12
    331c:	0ff00413          	li	s0,255
    3320:	00300b13          	li	s6,3
    3324:	e8dff06f          	j	31b0 <__mulsf3+0x5c>
    3328:	00098513          	mv	a0,s3
    332c:	00b12623          	sw	a1,12(sp)
    3330:	500000ef          	jal	ra,3830 <__clzsi2>
    3334:	ffb50793          	addi	a5,a0,-5
    3338:	f8a00413          	li	s0,-118
    333c:	00f999b3          	sll	s3,s3,a5
    3340:	40a40433          	sub	s0,s0,a0
    3344:	00000493          	li	s1,0
    3348:	00000b13          	li	s6,0
    334c:	00c12583          	lw	a1,12(sp)
    3350:	e61ff06f          	j	31b0 <__mulsf3+0x5c>
    3354:	0034e493          	ori	s1,s1,3
    3358:	00300613          	li	a2,3
    335c:	e8dff06f          	j	31e8 <__mulsf3+0x94>
    3360:	00200793          	li	a5,2
    3364:	000a0693          	mv	a3,s4
    3368:	f2fb12e3          	bne	s6,a5,328c <__mulsf3+0x138>
    336c:	00068513          	mv	a0,a3
    3370:	0ff00713          	li	a4,255
    3374:	00000793          	li	a5,0
    3378:	ec1ff06f          	j	3238 <__mulsf3+0xe4>
    337c:	00010337          	lui	t1,0x10
    3380:	fff30693          	addi	a3,t1,-1 # ffff <_data_lma+0xc73b>
    3384:	0109d613          	srli	a2,s3,0x10
    3388:	010ad893          	srli	a7,s5,0x10
    338c:	00d9f7b3          	and	a5,s3,a3
    3390:	00dafab3          	and	s5,s5,a3
    3394:	03578833          	mul	a6,a5,s5
    3398:	02f889b3          	mul	s3,a7,a5
    339c:	01085713          	srli	a4,a6,0x10
    33a0:	03560ab3          	mul	s5,a2,s5
    33a4:	015989b3          	add	s3,s3,s5
    33a8:	01370733          	add	a4,a4,s3
    33ac:	03160633          	mul	a2,a2,a7
    33b0:	01577463          	bgeu	a4,s5,33b8 <__mulsf3+0x264>
    33b4:	00660633          	add	a2,a2,t1
    33b8:	000107b7          	lui	a5,0x10
    33bc:	fff78793          	addi	a5,a5,-1 # ffff <_data_lma+0xc73b>
    33c0:	00f776b3          	and	a3,a4,a5
    33c4:	00f87833          	and	a6,a6,a5
    33c8:	01069693          	slli	a3,a3,0x10
    33cc:	010686b3          	add	a3,a3,a6
    33d0:	00669993          	slli	s3,a3,0x6
    33d4:	01075793          	srli	a5,a4,0x10
    33d8:	013039b3          	snez	s3,s3
    33dc:	01a6d693          	srli	a3,a3,0x1a
    33e0:	00c787b3          	add	a5,a5,a2
    33e4:	00679793          	slli	a5,a5,0x6
    33e8:	00d9e6b3          	or	a3,s3,a3
    33ec:	00d7e9b3          	or	s3,a5,a3
    33f0:	00499793          	slli	a5,s3,0x4
    33f4:	0007da63          	bgez	a5,3408 <__mulsf3+0x2b4>
    33f8:	0019d713          	srli	a4,s3,0x1
    33fc:	0019f793          	andi	a5,s3,1
    3400:	00f769b3          	or	s3,a4,a5
    3404:	00058413          	mv	s0,a1
    3408:	07f40713          	addi	a4,s0,127
    340c:	04e05663          	blez	a4,3458 <__mulsf3+0x304>
    3410:	0079f793          	andi	a5,s3,7
    3414:	00078a63          	beqz	a5,3428 <__mulsf3+0x2d4>
    3418:	00f9f793          	andi	a5,s3,15
    341c:	00400693          	li	a3,4
    3420:	00d78463          	beq	a5,a3,3428 <__mulsf3+0x2d4>
    3424:	00498993          	addi	s3,s3,4
    3428:	00499793          	slli	a5,s3,0x4
    342c:	0007da63          	bgez	a5,3440 <__mulsf3+0x2ec>
    3430:	f80007b7          	lui	a5,0xf8000
    3434:	fff78793          	addi	a5,a5,-1 # f7ffffff <__freertos_irq_stack_top+0xe7ff7fff>
    3438:	00f9f9b3          	and	s3,s3,a5
    343c:	08040713          	addi	a4,s0,128
    3440:	0fe00793          	li	a5,254
    3444:	06e7ca63          	blt	a5,a4,34b8 <__mulsf3+0x364>
    3448:	00699793          	slli	a5,s3,0x6
    344c:	0097d793          	srli	a5,a5,0x9
    3450:	0ff77713          	andi	a4,a4,255
    3454:	de5ff06f          	j	3238 <__mulsf3+0xe4>
    3458:	00100793          	li	a5,1
    345c:	40e786b3          	sub	a3,a5,a4
    3460:	00070a63          	beqz	a4,3474 <__mulsf3+0x320>
    3464:	01b00613          	li	a2,27
    3468:	00000713          	li	a4,0
    346c:	00000793          	li	a5,0
    3470:	dcd644e3          	blt	a2,a3,3238 <__mulsf3+0xe4>
    3474:	09e40713          	addi	a4,s0,158
    3478:	00e99733          	sll	a4,s3,a4
    347c:	00e03733          	snez	a4,a4
    3480:	00d9d7b3          	srl	a5,s3,a3
    3484:	00e7e7b3          	or	a5,a5,a4
    3488:	0077f713          	andi	a4,a5,7
    348c:	00070a63          	beqz	a4,34a0 <__mulsf3+0x34c>
    3490:	00f7f713          	andi	a4,a5,15
    3494:	00400693          	li	a3,4
    3498:	00d70463          	beq	a4,a3,34a0 <__mulsf3+0x34c>
    349c:	00478793          	addi	a5,a5,4
    34a0:	00579713          	slli	a4,a5,0x5
    34a4:	02074463          	bltz	a4,34cc <__mulsf3+0x378>
    34a8:	00679793          	slli	a5,a5,0x6
    34ac:	0097d793          	srli	a5,a5,0x9
    34b0:	00000713          	li	a4,0
    34b4:	d85ff06f          	j	3238 <__mulsf3+0xe4>
    34b8:	0ff00713          	li	a4,255
    34bc:	00000793          	li	a5,0
    34c0:	d79ff06f          	j	3238 <__mulsf3+0xe4>
    34c4:	00058413          	mv	s0,a1
    34c8:	f41ff06f          	j	3408 <__mulsf3+0x2b4>
    34cc:	00100713          	li	a4,1
    34d0:	00000793          	li	a5,0
    34d4:	d65ff06f          	j	3238 <__mulsf3+0xe4>

000034d8 <__fixunssfsi>:
    34d8:	01755713          	srli	a4,a0,0x17
    34dc:	00800637          	lui	a2,0x800
    34e0:	fff60793          	addi	a5,a2,-1 # 7fffff <_data_lma+0x7fc73b>
    34e4:	0ff77713          	andi	a4,a4,255
    34e8:	07e00593          	li	a1,126
    34ec:	00a7f6b3          	and	a3,a5,a0
    34f0:	01f55793          	srli	a5,a0,0x1f
    34f4:	00000513          	li	a0,0
    34f8:	00e5f663          	bgeu	a1,a4,3504 <__fixunssfsi+0x2c>
    34fc:	00078663          	beqz	a5,3508 <__fixunssfsi+0x30>
    3500:	00008067          	ret
    3504:	00008067          	ret
    3508:	09e00793          	li	a5,158
    350c:	fff00513          	li	a0,-1
    3510:	fee7e8e3          	bltu	a5,a4,3500 <__fixunssfsi+0x28>
    3514:	09500593          	li	a1,149
    3518:	00c6e7b3          	or	a5,a3,a2
    351c:	00e5d863          	bge	a1,a4,352c <__fixunssfsi+0x54>
    3520:	f6a70713          	addi	a4,a4,-150
    3524:	00e79533          	sll	a0,a5,a4
    3528:	00008067          	ret
    352c:	09600513          	li	a0,150
    3530:	40e50733          	sub	a4,a0,a4
    3534:	00e7d533          	srl	a0,a5,a4
    3538:	00008067          	ret

0000353c <__extendsfdf2>:
    353c:	01755713          	srli	a4,a0,0x17
    3540:	0ff77713          	andi	a4,a4,255
    3544:	ff010113          	addi	sp,sp,-16
    3548:	00170793          	addi	a5,a4,1
    354c:	00812423          	sw	s0,8(sp)
    3550:	00912223          	sw	s1,4(sp)
    3554:	00951413          	slli	s0,a0,0x9
    3558:	00112623          	sw	ra,12(sp)
    355c:	0fe7f793          	andi	a5,a5,254
    3560:	00945413          	srli	s0,s0,0x9
    3564:	01f55493          	srli	s1,a0,0x1f
    3568:	04078263          	beqz	a5,35ac <__extendsfdf2+0x70>
    356c:	00345793          	srli	a5,s0,0x3
    3570:	38070713          	addi	a4,a4,896
    3574:	01d41413          	slli	s0,s0,0x1d
    3578:	00c79793          	slli	a5,a5,0xc
    357c:	01471713          	slli	a4,a4,0x14
    3580:	00c7d793          	srli	a5,a5,0xc
    3584:	01f49513          	slli	a0,s1,0x1f
    3588:	00e7e7b3          	or	a5,a5,a4
    358c:	00a7e7b3          	or	a5,a5,a0
    3590:	00c12083          	lw	ra,12(sp)
    3594:	00040513          	mv	a0,s0
    3598:	00812403          	lw	s0,8(sp)
    359c:	00412483          	lw	s1,4(sp)
    35a0:	00078593          	mv	a1,a5
    35a4:	01010113          	addi	sp,sp,16
    35a8:	00008067          	ret
    35ac:	04071263          	bnez	a4,35f0 <__extendsfdf2+0xb4>
    35b0:	06040863          	beqz	s0,3620 <__extendsfdf2+0xe4>
    35b4:	00040513          	mv	a0,s0
    35b8:	278000ef          	jal	ra,3830 <__clzsi2>
    35bc:	00a00793          	li	a5,10
    35c0:	06a7c663          	blt	a5,a0,362c <__extendsfdf2+0xf0>
    35c4:	00b00713          	li	a4,11
    35c8:	40a70733          	sub	a4,a4,a0
    35cc:	01550793          	addi	a5,a0,21
    35d0:	00e45733          	srl	a4,s0,a4
    35d4:	00f41433          	sll	s0,s0,a5
    35d8:	00c71793          	slli	a5,a4,0xc
    35dc:	38900713          	li	a4,905
    35e0:	40a70733          	sub	a4,a4,a0
    35e4:	00c7d793          	srli	a5,a5,0xc
    35e8:	7ff77713          	andi	a4,a4,2047
    35ec:	f8dff06f          	j	3578 <__extendsfdf2+0x3c>
    35f0:	02040263          	beqz	s0,3614 <__extendsfdf2+0xd8>
    35f4:	00345713          	srli	a4,s0,0x3
    35f8:	000807b7          	lui	a5,0x80
    35fc:	00f767b3          	or	a5,a4,a5
    3600:	00c79793          	slli	a5,a5,0xc
    3604:	01d41413          	slli	s0,s0,0x1d
    3608:	00c7d793          	srli	a5,a5,0xc
    360c:	7ff00713          	li	a4,2047
    3610:	f69ff06f          	j	3578 <__extendsfdf2+0x3c>
    3614:	7ff00713          	li	a4,2047
    3618:	00000793          	li	a5,0
    361c:	f5dff06f          	j	3578 <__extendsfdf2+0x3c>
    3620:	00000713          	li	a4,0
    3624:	00000793          	li	a5,0
    3628:	f51ff06f          	j	3578 <__extendsfdf2+0x3c>
    362c:	ff550713          	addi	a4,a0,-11
    3630:	00e41733          	sll	a4,s0,a4
    3634:	00000413          	li	s0,0
    3638:	fa1ff06f          	j	35d8 <__extendsfdf2+0x9c>

0000363c <__truncdfsf2>:
    363c:	0145d693          	srli	a3,a1,0x14
    3640:	00c59793          	slli	a5,a1,0xc
    3644:	7ff6f693          	andi	a3,a3,2047
    3648:	00c7d793          	srli	a5,a5,0xc
    364c:	00168613          	addi	a2,a3,1 # 800001 <_data_lma+0x7fc73d>
    3650:	00379793          	slli	a5,a5,0x3
    3654:	01d55713          	srli	a4,a0,0x1d
    3658:	7fe67613          	andi	a2,a2,2046
    365c:	01f5d593          	srli	a1,a1,0x1f
    3660:	00f76733          	or	a4,a4,a5
    3664:	00351893          	slli	a7,a0,0x3
    3668:	0a060463          	beqz	a2,3710 <__truncdfsf2+0xd4>
    366c:	c8068813          	addi	a6,a3,-896
    3670:	0fe00793          	li	a5,254
    3674:	0307d463          	bge	a5,a6,369c <__truncdfsf2+0x60>
    3678:	00000793          	li	a5,0
    367c:	00979513          	slli	a0,a5,0x9
    3680:	0ff00693          	li	a3,255
    3684:	01769693          	slli	a3,a3,0x17
    3688:	00955513          	srli	a0,a0,0x9
    368c:	01f59593          	slli	a1,a1,0x1f
    3690:	00d56533          	or	a0,a0,a3
    3694:	00b56533          	or	a0,a0,a1
    3698:	00008067          	ret
    369c:	0f005e63          	blez	a6,3798 <__truncdfsf2+0x15c>
    36a0:	00651793          	slli	a5,a0,0x6
    36a4:	00371713          	slli	a4,a4,0x3
    36a8:	00f037b3          	snez	a5,a5
    36ac:	00e7e7b3          	or	a5,a5,a4
    36b0:	01d8d893          	srli	a7,a7,0x1d
    36b4:	0117e7b3          	or	a5,a5,a7
    36b8:	0077f713          	andi	a4,a5,7
    36bc:	16070663          	beqz	a4,3828 <__truncdfsf2+0x1ec>
    36c0:	00f7f713          	andi	a4,a5,15
    36c4:	00400693          	li	a3,4
    36c8:	00d70463          	beq	a4,a3,36d0 <__truncdfsf2+0x94>
    36cc:	00478793          	addi	a5,a5,4 # 80004 <_data_lma+0x7c740>
    36d0:	04000737          	lui	a4,0x4000
    36d4:	00e7f733          	and	a4,a5,a4
    36d8:	14070863          	beqz	a4,3828 <__truncdfsf2+0x1ec>
    36dc:	00180713          	addi	a4,a6,1
    36e0:	0ff00613          	li	a2,255
    36e4:	0ff77693          	andi	a3,a4,255
    36e8:	f8c708e3          	beq	a4,a2,3678 <__truncdfsf2+0x3c>
    36ec:	00679793          	slli	a5,a5,0x6
    36f0:	0097d793          	srli	a5,a5,0x9
    36f4:	00979513          	slli	a0,a5,0x9
    36f8:	01769693          	slli	a3,a3,0x17
    36fc:	00955513          	srli	a0,a0,0x9
    3700:	01f59593          	slli	a1,a1,0x1f
    3704:	00d56533          	or	a0,a0,a3
    3708:	00b56533          	or	a0,a0,a1
    370c:	00008067          	ret
    3710:	011767b3          	or	a5,a4,a7
    3714:	02069a63          	bnez	a3,3748 <__truncdfsf2+0x10c>
    3718:	04078e63          	beqz	a5,3774 <__truncdfsf2+0x138>
    371c:	00500793          	li	a5,5
    3720:	00679793          	slli	a5,a5,0x6
    3724:	0097d793          	srli	a5,a5,0x9
    3728:	00979513          	slli	a0,a5,0x9
    372c:	0ff6f693          	andi	a3,a3,255
    3730:	01769693          	slli	a3,a3,0x17
    3734:	00955513          	srli	a0,a0,0x9
    3738:	01f59593          	slli	a1,a1,0x1f
    373c:	00d56533          	or	a0,a0,a3
    3740:	00b56533          	or	a0,a0,a1
    3744:	00008067          	ret
    3748:	f20788e3          	beqz	a5,3678 <__truncdfsf2+0x3c>
    374c:	004007b7          	lui	a5,0x400
    3750:	00979513          	slli	a0,a5,0x9
    3754:	0ff00693          	li	a3,255
    3758:	01769693          	slli	a3,a3,0x17
    375c:	00000593          	li	a1,0
    3760:	00955513          	srli	a0,a0,0x9
    3764:	01f59593          	slli	a1,a1,0x1f
    3768:	00d56533          	or	a0,a0,a3
    376c:	00b56533          	or	a0,a0,a1
    3770:	00008067          	ret
    3774:	00000793          	li	a5,0
    3778:	00979513          	slli	a0,a5,0x9
    377c:	00000693          	li	a3,0
    3780:	01769693          	slli	a3,a3,0x17
    3784:	00955513          	srli	a0,a0,0x9
    3788:	01f59593          	slli	a1,a1,0x1f
    378c:	00d56533          	or	a0,a0,a3
    3790:	00b56533          	or	a0,a0,a1
    3794:	00008067          	ret
    3798:	fe900793          	li	a5,-23
    379c:	06f84263          	blt	a6,a5,3800 <__truncdfsf2+0x1c4>
    37a0:	01e00793          	li	a5,30
    37a4:	00800637          	lui	a2,0x800
    37a8:	410787b3          	sub	a5,a5,a6
    37ac:	01f00513          	li	a0,31
    37b0:	00c76633          	or	a2,a4,a2
    37b4:	04f55a63          	bge	a0,a5,3808 <__truncdfsf2+0x1cc>
    37b8:	ffe00713          	li	a4,-2
    37bc:	41070733          	sub	a4,a4,a6
    37c0:	02000513          	li	a0,32
    37c4:	00e65733          	srl	a4,a2,a4
    37c8:	00a78863          	beq	a5,a0,37d8 <__truncdfsf2+0x19c>
    37cc:	ca268693          	addi	a3,a3,-862
    37d0:	00d616b3          	sll	a3,a2,a3
    37d4:	00d8e8b3          	or	a7,a7,a3
    37d8:	011037b3          	snez	a5,a7
    37dc:	00e7e7b3          	or	a5,a5,a4
    37e0:	0077f713          	andi	a4,a5,7
    37e4:	00000813          	li	a6,0
    37e8:	ec071ce3          	bnez	a4,36c0 <__truncdfsf2+0x84>
    37ec:	00579713          	slli	a4,a5,0x5
    37f0:	00100693          	li	a3,1
    37f4:	ee074ce3          	bltz	a4,36ec <__truncdfsf2+0xb0>
    37f8:	00000693          	li	a3,0
    37fc:	f25ff06f          	j	3720 <__truncdfsf2+0xe4>
    3800:	00000693          	li	a3,0
    3804:	f19ff06f          	j	371c <__truncdfsf2+0xe0>
    3808:	c8268693          	addi	a3,a3,-894
    380c:	00d89733          	sll	a4,a7,a3
    3810:	00e03733          	snez	a4,a4
    3814:	00d616b3          	sll	a3,a2,a3
    3818:	00f8d8b3          	srl	a7,a7,a5
    381c:	00d767b3          	or	a5,a4,a3
    3820:	00f8e7b3          	or	a5,a7,a5
    3824:	fbdff06f          	j	37e0 <__truncdfsf2+0x1a4>
    3828:	00080693          	mv	a3,a6
    382c:	ef5ff06f          	j	3720 <__truncdfsf2+0xe4>

00003830 <__clzsi2>:
    3830:	000107b7          	lui	a5,0x10
    3834:	04f57463          	bgeu	a0,a5,387c <__clzsi2+0x4c>
    3838:	0ff00793          	li	a5,255
    383c:	02000713          	li	a4,32
    3840:	00a7ee63          	bltu	a5,a0,385c <__clzsi2+0x2c>
    3844:	10001797          	auipc	a5,0x10001
    3848:	e8878793          	addi	a5,a5,-376 # 100046cc <__clz_tab>
    384c:	00a787b3          	add	a5,a5,a0
    3850:	0007c503          	lbu	a0,0(a5)
    3854:	40a70533          	sub	a0,a4,a0
    3858:	00008067          	ret
    385c:	00855513          	srli	a0,a0,0x8
    3860:	10001797          	auipc	a5,0x10001
    3864:	e6c78793          	addi	a5,a5,-404 # 100046cc <__clz_tab>
    3868:	00a787b3          	add	a5,a5,a0
    386c:	0007c503          	lbu	a0,0(a5)
    3870:	01800713          	li	a4,24
    3874:	40a70533          	sub	a0,a4,a0
    3878:	00008067          	ret
    387c:	010007b7          	lui	a5,0x1000
    3880:	02f56263          	bltu	a0,a5,38a4 <__clzsi2+0x74>
    3884:	01855513          	srli	a0,a0,0x18
    3888:	10001797          	auipc	a5,0x10001
    388c:	e4478793          	addi	a5,a5,-444 # 100046cc <__clz_tab>
    3890:	00a787b3          	add	a5,a5,a0
    3894:	0007c503          	lbu	a0,0(a5)
    3898:	00800713          	li	a4,8
    389c:	40a70533          	sub	a0,a4,a0
    38a0:	00008067          	ret
    38a4:	01055513          	srli	a0,a0,0x10
    38a8:	10001797          	auipc	a5,0x10001
    38ac:	e2478793          	addi	a5,a5,-476 # 100046cc <__clz_tab>
    38b0:	00a787b3          	add	a5,a5,a0
    38b4:	0007c503          	lbu	a0,0(a5)
    38b8:	01000713          	li	a4,16
    38bc:	40a70533          	sub	a0,a4,a0
    38c0:	00008067          	ret
