
spi_lcd:     file format elf32-littleriscv


Disassembly of section .init:

00000000 <_start>:
   0:	10005197          	auipc	gp,0x10005
   4:	aa818193          	addi	gp,gp,-1368 # 10004aa8 <__global_pointer$>
   8:	10008117          	auipc	sp,0x10008
   c:	ff810113          	addi	sp,sp,-8 # 10008000 <__freertos_irq_stack_top>
  10:	00003517          	auipc	a0,0x3
  14:	c0050513          	addi	a0,a0,-1024 # 2c10 <_data_lma>
  18:	10000597          	auipc	a1,0x10000
  1c:	fe858593          	addi	a1,a1,-24 # 10000000 <_data>
  20:	10004617          	auipc	a2,0x10004
  24:	28860613          	addi	a2,a2,648 # 100042a8 <__bss_start>
  28:	00c5fc63          	bgeu	a1,a2,40 <_start+0x40>
  2c:	00052283          	lw	t0,0(a0)
  30:	0055a023          	sw	t0,0(a1)
  34:	00450513          	addi	a0,a0,4
  38:	00458593          	addi	a1,a1,4
  3c:	fec5e8e3          	bltu	a1,a2,2c <_start+0x2c>
  40:	10004517          	auipc	a0,0x10004
  44:	26850513          	addi	a0,a0,616 # 100042a8 <__bss_start>
  48:	80818593          	addi	a1,gp,-2040 # 100042b0 <_end>
  4c:	00b57863          	bgeu	a0,a1,5c <_start+0x5c>
  50:	00052023          	sw	zero,0(a0)
  54:	00450513          	addi	a0,a0,4
  58:	feb56ce3          	bltu	a0,a1,50 <_start+0x50>
  5c:	49c010ef          	jal	ra,14f8 <_init>
  60:	118010ef          	jal	ra,1178 <main>

00000064 <loop>:
  64:	0000006f          	j	64 <loop>

Disassembly of section .text:

00000068 <trap_entry>:
      68:	f8010113          	addi	sp,sp,-128
      6c:	00112223          	sw	ra,4(sp)
      70:	00212423          	sw	sp,8(sp)
      74:	00312623          	sw	gp,12(sp)
      78:	00412823          	sw	tp,16(sp)
      7c:	00512a23          	sw	t0,20(sp)
      80:	00612c23          	sw	t1,24(sp)
      84:	00712e23          	sw	t2,28(sp)
      88:	02812023          	sw	s0,32(sp)
      8c:	02912223          	sw	s1,36(sp)
      90:	02a12423          	sw	a0,40(sp)
      94:	02b12623          	sw	a1,44(sp)
      98:	02c12823          	sw	a2,48(sp)
      9c:	02d12a23          	sw	a3,52(sp)
      a0:	02e12c23          	sw	a4,56(sp)
      a4:	02f12e23          	sw	a5,60(sp)
      a8:	05012023          	sw	a6,64(sp)
      ac:	05112223          	sw	a7,68(sp)
      b0:	05212423          	sw	s2,72(sp)
      b4:	05312623          	sw	s3,76(sp)
      b8:	05412823          	sw	s4,80(sp)
      bc:	05512a23          	sw	s5,84(sp)
      c0:	05612c23          	sw	s6,88(sp)
      c4:	05712e23          	sw	s7,92(sp)
      c8:	07812023          	sw	s8,96(sp)
      cc:	07912223          	sw	s9,100(sp)
      d0:	07a12423          	sw	s10,104(sp)
      d4:	07b12623          	sw	s11,108(sp)
      d8:	07c12823          	sw	t3,112(sp)
      dc:	07d12a23          	sw	t4,116(sp)
      e0:	07e12c23          	sw	t5,120(sp)
      e4:	07f12e23          	sw	t6,124(sp)
      e8:	34202573          	csrr	a0,mcause
      ec:	341025f3          	csrr	a1,mepc

000000f0 <test_if_asynchronous>:
      f0:	01f55613          	srli	a2,a0,0x1f
      f4:	00060663          	beqz	a2,100 <handle_synchronous>
      f8:	434010ef          	jal	ra,152c <trap_handler>
      fc:	00c0006f          	j	108 <asynchronous_return>

00000100 <handle_synchronous>:
     100:	00458593          	addi	a1,a1,4
     104:	34159073          	csrw	mepc,a1

00000108 <asynchronous_return>:
     108:	00412083          	lw	ra,4(sp)
     10c:	00812103          	lw	sp,8(sp)
     110:	00c12183          	lw	gp,12(sp)
     114:	01012203          	lw	tp,16(sp)
     118:	01412283          	lw	t0,20(sp)
     11c:	01812303          	lw	t1,24(sp)
     120:	01c12383          	lw	t2,28(sp)
     124:	02012403          	lw	s0,32(sp)
     128:	02412483          	lw	s1,36(sp)
     12c:	02812503          	lw	a0,40(sp)
     130:	02c12583          	lw	a1,44(sp)
     134:	03012603          	lw	a2,48(sp)
     138:	03412683          	lw	a3,52(sp)
     13c:	03812703          	lw	a4,56(sp)
     140:	03c12783          	lw	a5,60(sp)
     144:	04012803          	lw	a6,64(sp)
     148:	04412883          	lw	a7,68(sp)
     14c:	04812903          	lw	s2,72(sp)
     150:	04c12983          	lw	s3,76(sp)
     154:	05012a03          	lw	s4,80(sp)
     158:	05412a83          	lw	s5,84(sp)
     15c:	05812b03          	lw	s6,88(sp)
     160:	05c12b83          	lw	s7,92(sp)
     164:	06012c03          	lw	s8,96(sp)
     168:	06412c83          	lw	s9,100(sp)
     16c:	06812d03          	lw	s10,104(sp)
     170:	06c12d83          	lw	s11,108(sp)
     174:	07012e03          	lw	t3,112(sp)
     178:	07412e83          	lw	t4,116(sp)
     17c:	07812f03          	lw	t5,120(sp)
     180:	07c12f83          	lw	t6,124(sp)
     184:	08010113          	addi	sp,sp,128
     188:	30200073          	mret
     18c:	0000006f          	j	18c <asynchronous_return+0x84>

00000190 <delay_ms>:
     190:	fd010113          	addi	sp,sp,-48
     194:	02812623          	sw	s0,44(sp)
     198:	03010413          	addi	s0,sp,48
     19c:	fca42e23          	sw	a0,-36(s0)
     1a0:	fe042623          	sw	zero,-20(s0)
     1a4:	0300006f          	j	1d4 <delay_ms+0x44>
     1a8:	fe042423          	sw	zero,-24(s0)
     1ac:	0100006f          	j	1bc <delay_ms+0x2c>
     1b0:	fe842783          	lw	a5,-24(s0)
     1b4:	00178793          	addi	a5,a5,1
     1b8:	fef42423          	sw	a5,-24(s0)
     1bc:	fe842703          	lw	a4,-24(s0)
     1c0:	3e700793          	li	a5,999
     1c4:	fee7d6e3          	bge	a5,a4,1b0 <delay_ms+0x20>
     1c8:	fec42783          	lw	a5,-20(s0)
     1cc:	00178793          	addi	a5,a5,1
     1d0:	fef42623          	sw	a5,-20(s0)
     1d4:	fec42783          	lw	a5,-20(s0)
     1d8:	fdc42703          	lw	a4,-36(s0)
     1dc:	fce7e6e3          	bltu	a5,a4,1a8 <delay_ms+0x18>
     1e0:	00000013          	nop
     1e4:	02c12403          	lw	s0,44(sp)
     1e8:	03010113          	addi	sp,sp,48
     1ec:	00008067          	ret

000001f0 <LCD_GPIO_Init>:
     1f0:	ff010113          	addi	sp,sp,-16
     1f4:	00812623          	sw	s0,12(sp)
     1f8:	01010413          	addi	s0,sp,16
     1fc:	400007b7          	lui	a5,0x40000
     200:	0007a703          	lw	a4,0(a5) # 40000000 <__freertos_irq_stack_top+0x2fff8000>
     204:	400007b7          	lui	a5,0x40000
     208:	40076713          	ori	a4,a4,1024
     20c:	00e7a023          	sw	a4,0(a5) # 40000000 <__freertos_irq_stack_top+0x2fff8000>
     210:	400007b7          	lui	a5,0x40000
     214:	0007a683          	lw	a3,0(a5) # 40000000 <__freertos_irq_stack_top+0x2fff8000>
     218:	400007b7          	lui	a5,0x40000
     21c:	00001737          	lui	a4,0x1
     220:	00e6e733          	or	a4,a3,a4
     224:	00e7a023          	sw	a4,0(a5) # 40000000 <__freertos_irq_stack_top+0x2fff8000>
     228:	400007b7          	lui	a5,0x40000
     22c:	0007a683          	lw	a3,0(a5) # 40000000 <__freertos_irq_stack_top+0x2fff8000>
     230:	400007b7          	lui	a5,0x40000
     234:	00040737          	lui	a4,0x40
     238:	00e6e733          	or	a4,a3,a4
     23c:	00e7a023          	sw	a4,0(a5) # 40000000 <__freertos_irq_stack_top+0x2fff8000>
     240:	00000013          	nop
     244:	00c12403          	lw	s0,12(sp)
     248:	01010113          	addi	sp,sp,16
     24c:	00008067          	ret

00000250 <LCD_WR_DATA8>:
     250:	fe010113          	addi	sp,sp,-32
     254:	00112e23          	sw	ra,28(sp)
     258:	00812c23          	sw	s0,24(sp)
     25c:	02010413          	addi	s0,sp,32
     260:	00050793          	mv	a5,a0
     264:	fef407a3          	sb	a5,-17(s0)
     268:	fef44783          	lbu	a5,-17(s0)
     26c:	00078513          	mv	a0,a5
     270:	14d010ef          	jal	ra,1bbc <spi_write_byte>
     274:	00000013          	nop
     278:	01c12083          	lw	ra,28(sp)
     27c:	01812403          	lw	s0,24(sp)
     280:	02010113          	addi	sp,sp,32
     284:	00008067          	ret

00000288 <LCD_WR_DATA>:
     288:	fe010113          	addi	sp,sp,-32
     28c:	00112e23          	sw	ra,28(sp)
     290:	00812c23          	sw	s0,24(sp)
     294:	02010413          	addi	s0,sp,32
     298:	00050793          	mv	a5,a0
     29c:	fef41723          	sh	a5,-18(s0)
     2a0:	fee45783          	lhu	a5,-18(s0)
     2a4:	0087d793          	srli	a5,a5,0x8
     2a8:	01079793          	slli	a5,a5,0x10
     2ac:	0107d793          	srli	a5,a5,0x10
     2b0:	0ff7f793          	andi	a5,a5,255
     2b4:	00078513          	mv	a0,a5
     2b8:	105010ef          	jal	ra,1bbc <spi_write_byte>
     2bc:	fee45783          	lhu	a5,-18(s0)
     2c0:	0ff7f793          	andi	a5,a5,255
     2c4:	00078513          	mv	a0,a5
     2c8:	0f5010ef          	jal	ra,1bbc <spi_write_byte>
     2cc:	00000013          	nop
     2d0:	01c12083          	lw	ra,28(sp)
     2d4:	01812403          	lw	s0,24(sp)
     2d8:	02010113          	addi	sp,sp,32
     2dc:	00008067          	ret

000002e0 <LCD_WR_REG>:
     2e0:	fe010113          	addi	sp,sp,-32
     2e4:	00112e23          	sw	ra,28(sp)
     2e8:	00812c23          	sw	s0,24(sp)
     2ec:	02010413          	addi	s0,sp,32
     2f0:	00050793          	mv	a5,a0
     2f4:	fef407a3          	sb	a5,-17(s0)
     2f8:	400007b7          	lui	a5,0x40000
     2fc:	00478793          	addi	a5,a5,4 # 40000004 <__freertos_irq_stack_top+0x2fff8004>
     300:	0007a703          	lw	a4,0(a5)
     304:	400007b7          	lui	a5,0x40000
     308:	00478793          	addi	a5,a5,4 # 40000004 <__freertos_irq_stack_top+0x2fff8004>
     30c:	fbf77713          	andi	a4,a4,-65
     310:	00e7a023          	sw	a4,0(a5)
     314:	fef44783          	lbu	a5,-17(s0)
     318:	00078513          	mv	a0,a5
     31c:	0a1010ef          	jal	ra,1bbc <spi_write_byte>
     320:	400007b7          	lui	a5,0x40000
     324:	00478793          	addi	a5,a5,4 # 40000004 <__freertos_irq_stack_top+0x2fff8004>
     328:	0007a703          	lw	a4,0(a5)
     32c:	400007b7          	lui	a5,0x40000
     330:	00478793          	addi	a5,a5,4 # 40000004 <__freertos_irq_stack_top+0x2fff8004>
     334:	04076713          	ori	a4,a4,64
     338:	00e7a023          	sw	a4,0(a5)
     33c:	00000013          	nop
     340:	01c12083          	lw	ra,28(sp)
     344:	01812403          	lw	s0,24(sp)
     348:	02010113          	addi	sp,sp,32
     34c:	00008067          	ret

00000350 <LCD_Address_Set>:
     350:	fe010113          	addi	sp,sp,-32
     354:	00112e23          	sw	ra,28(sp)
     358:	00812c23          	sw	s0,24(sp)
     35c:	02010413          	addi	s0,sp,32
     360:	00050793          	mv	a5,a0
     364:	00068713          	mv	a4,a3
     368:	fef41723          	sh	a5,-18(s0)
     36c:	00058793          	mv	a5,a1
     370:	fef41623          	sh	a5,-20(s0)
     374:	00060793          	mv	a5,a2
     378:	fef41523          	sh	a5,-22(s0)
     37c:	00070793          	mv	a5,a4
     380:	fef41423          	sh	a5,-24(s0)
     384:	02a00513          	li	a0,42
     388:	f59ff0ef          	jal	ra,2e0 <LCD_WR_REG>
     38c:	fee45783          	lhu	a5,-18(s0)
     390:	00078513          	mv	a0,a5
     394:	ef5ff0ef          	jal	ra,288 <LCD_WR_DATA>
     398:	fea45783          	lhu	a5,-22(s0)
     39c:	00078513          	mv	a0,a5
     3a0:	ee9ff0ef          	jal	ra,288 <LCD_WR_DATA>
     3a4:	02b00513          	li	a0,43
     3a8:	f39ff0ef          	jal	ra,2e0 <LCD_WR_REG>
     3ac:	fec45783          	lhu	a5,-20(s0)
     3b0:	00078513          	mv	a0,a5
     3b4:	ed5ff0ef          	jal	ra,288 <LCD_WR_DATA>
     3b8:	fe845783          	lhu	a5,-24(s0)
     3bc:	00078513          	mv	a0,a5
     3c0:	ec9ff0ef          	jal	ra,288 <LCD_WR_DATA>
     3c4:	02c00513          	li	a0,44
     3c8:	f19ff0ef          	jal	ra,2e0 <LCD_WR_REG>
     3cc:	00000013          	nop
     3d0:	01c12083          	lw	ra,28(sp)
     3d4:	01812403          	lw	s0,24(sp)
     3d8:	02010113          	addi	sp,sp,32
     3dc:	00008067          	ret

000003e0 <LCD_Init>:
     3e0:	ff010113          	addi	sp,sp,-16
     3e4:	00112623          	sw	ra,12(sp)
     3e8:	00812423          	sw	s0,8(sp)
     3ec:	01010413          	addi	s0,sp,16
     3f0:	e01ff0ef          	jal	ra,1f0 <LCD_GPIO_Init>
     3f4:	400007b7          	lui	a5,0x40000
     3f8:	00478793          	addi	a5,a5,4 # 40000004 <__freertos_irq_stack_top+0x2fff8004>
     3fc:	0007a703          	lw	a4,0(a5)
     400:	400007b7          	lui	a5,0x40000
     404:	00478793          	addi	a5,a5,4 # 40000004 <__freertos_irq_stack_top+0x2fff8004>
     408:	fdf77713          	andi	a4,a4,-33
     40c:	00e7a023          	sw	a4,0(a5)
     410:	06400513          	li	a0,100
     414:	d7dff0ef          	jal	ra,190 <delay_ms>
     418:	400007b7          	lui	a5,0x40000
     41c:	00478793          	addi	a5,a5,4 # 40000004 <__freertos_irq_stack_top+0x2fff8004>
     420:	0007a703          	lw	a4,0(a5)
     424:	400007b7          	lui	a5,0x40000
     428:	00478793          	addi	a5,a5,4 # 40000004 <__freertos_irq_stack_top+0x2fff8004>
     42c:	02076713          	ori	a4,a4,32
     430:	00e7a023          	sw	a4,0(a5)
     434:	06400513          	li	a0,100
     438:	d59ff0ef          	jal	ra,190 <delay_ms>
     43c:	400007b7          	lui	a5,0x40000
     440:	00478793          	addi	a5,a5,4 # 40000004 <__freertos_irq_stack_top+0x2fff8004>
     444:	0007a703          	lw	a4,0(a5)
     448:	400007b7          	lui	a5,0x40000
     44c:	00478793          	addi	a5,a5,4 # 40000004 <__freertos_irq_stack_top+0x2fff8004>
     450:	20076713          	ori	a4,a4,512
     454:	00e7a023          	sw	a4,0(a5)
     458:	06400513          	li	a0,100
     45c:	d35ff0ef          	jal	ra,190 <delay_ms>
     460:	01100513          	li	a0,17
     464:	e7dff0ef          	jal	ra,2e0 <LCD_WR_REG>
     468:	07800513          	li	a0,120
     46c:	d25ff0ef          	jal	ra,190 <delay_ms>
     470:	0cf00513          	li	a0,207
     474:	e6dff0ef          	jal	ra,2e0 <LCD_WR_REG>
     478:	00000513          	li	a0,0
     47c:	dd5ff0ef          	jal	ra,250 <LCD_WR_DATA8>
     480:	0c100513          	li	a0,193
     484:	dcdff0ef          	jal	ra,250 <LCD_WR_DATA8>
     488:	03000513          	li	a0,48
     48c:	dc5ff0ef          	jal	ra,250 <LCD_WR_DATA8>
     490:	0ed00513          	li	a0,237
     494:	e4dff0ef          	jal	ra,2e0 <LCD_WR_REG>
     498:	06400513          	li	a0,100
     49c:	db5ff0ef          	jal	ra,250 <LCD_WR_DATA8>
     4a0:	00300513          	li	a0,3
     4a4:	dadff0ef          	jal	ra,250 <LCD_WR_DATA8>
     4a8:	01200513          	li	a0,18
     4ac:	da5ff0ef          	jal	ra,250 <LCD_WR_DATA8>
     4b0:	08100513          	li	a0,129
     4b4:	d9dff0ef          	jal	ra,250 <LCD_WR_DATA8>
     4b8:	0e800513          	li	a0,232
     4bc:	e25ff0ef          	jal	ra,2e0 <LCD_WR_REG>
     4c0:	08500513          	li	a0,133
     4c4:	d8dff0ef          	jal	ra,250 <LCD_WR_DATA8>
     4c8:	00000513          	li	a0,0
     4cc:	d85ff0ef          	jal	ra,250 <LCD_WR_DATA8>
     4d0:	07900513          	li	a0,121
     4d4:	d7dff0ef          	jal	ra,250 <LCD_WR_DATA8>
     4d8:	0cb00513          	li	a0,203
     4dc:	e05ff0ef          	jal	ra,2e0 <LCD_WR_REG>
     4e0:	03900513          	li	a0,57
     4e4:	d6dff0ef          	jal	ra,250 <LCD_WR_DATA8>
     4e8:	02c00513          	li	a0,44
     4ec:	d65ff0ef          	jal	ra,250 <LCD_WR_DATA8>
     4f0:	00000513          	li	a0,0
     4f4:	d5dff0ef          	jal	ra,250 <LCD_WR_DATA8>
     4f8:	03400513          	li	a0,52
     4fc:	d55ff0ef          	jal	ra,250 <LCD_WR_DATA8>
     500:	00200513          	li	a0,2
     504:	d4dff0ef          	jal	ra,250 <LCD_WR_DATA8>
     508:	0f700513          	li	a0,247
     50c:	dd5ff0ef          	jal	ra,2e0 <LCD_WR_REG>
     510:	02000513          	li	a0,32
     514:	d3dff0ef          	jal	ra,250 <LCD_WR_DATA8>
     518:	0ea00513          	li	a0,234
     51c:	dc5ff0ef          	jal	ra,2e0 <LCD_WR_REG>
     520:	00000513          	li	a0,0
     524:	d2dff0ef          	jal	ra,250 <LCD_WR_DATA8>
     528:	00000513          	li	a0,0
     52c:	d25ff0ef          	jal	ra,250 <LCD_WR_DATA8>
     530:	0c000513          	li	a0,192
     534:	dadff0ef          	jal	ra,2e0 <LCD_WR_REG>
     538:	01d00513          	li	a0,29
     53c:	d15ff0ef          	jal	ra,250 <LCD_WR_DATA8>
     540:	0c100513          	li	a0,193
     544:	d9dff0ef          	jal	ra,2e0 <LCD_WR_REG>
     548:	01200513          	li	a0,18
     54c:	d05ff0ef          	jal	ra,250 <LCD_WR_DATA8>
     550:	0c500513          	li	a0,197
     554:	d8dff0ef          	jal	ra,2e0 <LCD_WR_REG>
     558:	03300513          	li	a0,51
     55c:	cf5ff0ef          	jal	ra,250 <LCD_WR_DATA8>
     560:	03f00513          	li	a0,63
     564:	cedff0ef          	jal	ra,250 <LCD_WR_DATA8>
     568:	0c700513          	li	a0,199
     56c:	d75ff0ef          	jal	ra,2e0 <LCD_WR_REG>
     570:	09200513          	li	a0,146
     574:	cddff0ef          	jal	ra,250 <LCD_WR_DATA8>
     578:	03a00513          	li	a0,58
     57c:	d65ff0ef          	jal	ra,2e0 <LCD_WR_REG>
     580:	05500513          	li	a0,85
     584:	ccdff0ef          	jal	ra,250 <LCD_WR_DATA8>
     588:	03600513          	li	a0,54
     58c:	d55ff0ef          	jal	ra,2e0 <LCD_WR_REG>
     590:	00800513          	li	a0,8
     594:	cbdff0ef          	jal	ra,250 <LCD_WR_DATA8>
     598:	0b100513          	li	a0,177
     59c:	d45ff0ef          	jal	ra,2e0 <LCD_WR_REG>
     5a0:	00000513          	li	a0,0
     5a4:	cadff0ef          	jal	ra,250 <LCD_WR_DATA8>
     5a8:	01200513          	li	a0,18
     5ac:	ca5ff0ef          	jal	ra,250 <LCD_WR_DATA8>
     5b0:	0b600513          	li	a0,182
     5b4:	d2dff0ef          	jal	ra,2e0 <LCD_WR_REG>
     5b8:	00a00513          	li	a0,10
     5bc:	c95ff0ef          	jal	ra,250 <LCD_WR_DATA8>
     5c0:	0a200513          	li	a0,162
     5c4:	c8dff0ef          	jal	ra,250 <LCD_WR_DATA8>
     5c8:	04400513          	li	a0,68
     5cc:	d15ff0ef          	jal	ra,2e0 <LCD_WR_REG>
     5d0:	00200513          	li	a0,2
     5d4:	c7dff0ef          	jal	ra,250 <LCD_WR_DATA8>
     5d8:	0f200513          	li	a0,242
     5dc:	d05ff0ef          	jal	ra,2e0 <LCD_WR_REG>
     5e0:	00000513          	li	a0,0
     5e4:	c6dff0ef          	jal	ra,250 <LCD_WR_DATA8>
     5e8:	02600513          	li	a0,38
     5ec:	cf5ff0ef          	jal	ra,2e0 <LCD_WR_REG>
     5f0:	00100513          	li	a0,1
     5f4:	c5dff0ef          	jal	ra,250 <LCD_WR_DATA8>
     5f8:	0e000513          	li	a0,224
     5fc:	ce5ff0ef          	jal	ra,2e0 <LCD_WR_REG>
     600:	00f00513          	li	a0,15
     604:	c4dff0ef          	jal	ra,250 <LCD_WR_DATA8>
     608:	02200513          	li	a0,34
     60c:	c45ff0ef          	jal	ra,250 <LCD_WR_DATA8>
     610:	01c00513          	li	a0,28
     614:	c3dff0ef          	jal	ra,250 <LCD_WR_DATA8>
     618:	01b00513          	li	a0,27
     61c:	c35ff0ef          	jal	ra,250 <LCD_WR_DATA8>
     620:	00800513          	li	a0,8
     624:	c2dff0ef          	jal	ra,250 <LCD_WR_DATA8>
     628:	00f00513          	li	a0,15
     62c:	c25ff0ef          	jal	ra,250 <LCD_WR_DATA8>
     630:	04800513          	li	a0,72
     634:	c1dff0ef          	jal	ra,250 <LCD_WR_DATA8>
     638:	0b800513          	li	a0,184
     63c:	c15ff0ef          	jal	ra,250 <LCD_WR_DATA8>
     640:	03400513          	li	a0,52
     644:	c0dff0ef          	jal	ra,250 <LCD_WR_DATA8>
     648:	00500513          	li	a0,5
     64c:	c05ff0ef          	jal	ra,250 <LCD_WR_DATA8>
     650:	00c00513          	li	a0,12
     654:	bfdff0ef          	jal	ra,250 <LCD_WR_DATA8>
     658:	00900513          	li	a0,9
     65c:	bf5ff0ef          	jal	ra,250 <LCD_WR_DATA8>
     660:	00f00513          	li	a0,15
     664:	bedff0ef          	jal	ra,250 <LCD_WR_DATA8>
     668:	00700513          	li	a0,7
     66c:	be5ff0ef          	jal	ra,250 <LCD_WR_DATA8>
     670:	00000513          	li	a0,0
     674:	bddff0ef          	jal	ra,250 <LCD_WR_DATA8>
     678:	0e100513          	li	a0,225
     67c:	c65ff0ef          	jal	ra,2e0 <LCD_WR_REG>
     680:	00000513          	li	a0,0
     684:	bcdff0ef          	jal	ra,250 <LCD_WR_DATA8>
     688:	02300513          	li	a0,35
     68c:	bc5ff0ef          	jal	ra,250 <LCD_WR_DATA8>
     690:	02400513          	li	a0,36
     694:	bbdff0ef          	jal	ra,250 <LCD_WR_DATA8>
     698:	00700513          	li	a0,7
     69c:	bb5ff0ef          	jal	ra,250 <LCD_WR_DATA8>
     6a0:	01000513          	li	a0,16
     6a4:	badff0ef          	jal	ra,250 <LCD_WR_DATA8>
     6a8:	00700513          	li	a0,7
     6ac:	ba5ff0ef          	jal	ra,250 <LCD_WR_DATA8>
     6b0:	03800513          	li	a0,56
     6b4:	b9dff0ef          	jal	ra,250 <LCD_WR_DATA8>
     6b8:	04700513          	li	a0,71
     6bc:	b95ff0ef          	jal	ra,250 <LCD_WR_DATA8>
     6c0:	04b00513          	li	a0,75
     6c4:	b8dff0ef          	jal	ra,250 <LCD_WR_DATA8>
     6c8:	00a00513          	li	a0,10
     6cc:	b85ff0ef          	jal	ra,250 <LCD_WR_DATA8>
     6d0:	01300513          	li	a0,19
     6d4:	b7dff0ef          	jal	ra,250 <LCD_WR_DATA8>
     6d8:	00600513          	li	a0,6
     6dc:	b75ff0ef          	jal	ra,250 <LCD_WR_DATA8>
     6e0:	03000513          	li	a0,48
     6e4:	b6dff0ef          	jal	ra,250 <LCD_WR_DATA8>
     6e8:	03800513          	li	a0,56
     6ec:	b65ff0ef          	jal	ra,250 <LCD_WR_DATA8>
     6f0:	00f00513          	li	a0,15
     6f4:	b5dff0ef          	jal	ra,250 <LCD_WR_DATA8>
     6f8:	02900513          	li	a0,41
     6fc:	be5ff0ef          	jal	ra,2e0 <LCD_WR_REG>
     700:	00000013          	nop
     704:	00c12083          	lw	ra,12(sp)
     708:	00812403          	lw	s0,8(sp)
     70c:	01010113          	addi	sp,sp,16
     710:	00008067          	ret

00000714 <LCD_Fill>:
     714:	fd010113          	addi	sp,sp,-48
     718:	02112623          	sw	ra,44(sp)
     71c:	02812423          	sw	s0,40(sp)
     720:	03010413          	addi	s0,sp,48
     724:	00050793          	mv	a5,a0
     728:	fcf41f23          	sh	a5,-34(s0)
     72c:	00058793          	mv	a5,a1
     730:	fcf41e23          	sh	a5,-36(s0)
     734:	00060793          	mv	a5,a2
     738:	fcf41d23          	sh	a5,-38(s0)
     73c:	00068793          	mv	a5,a3
     740:	fcf41c23          	sh	a5,-40(s0)
     744:	00070793          	mv	a5,a4
     748:	fcf41b23          	sh	a5,-42(s0)
     74c:	fda45783          	lhu	a5,-38(s0)
     750:	fff78793          	addi	a5,a5,-1
     754:	01079613          	slli	a2,a5,0x10
     758:	01065613          	srli	a2,a2,0x10
     75c:	fd845783          	lhu	a5,-40(s0)
     760:	fff78793          	addi	a5,a5,-1
     764:	01079693          	slli	a3,a5,0x10
     768:	0106d693          	srli	a3,a3,0x10
     76c:	fdc45703          	lhu	a4,-36(s0)
     770:	fde45783          	lhu	a5,-34(s0)
     774:	00070593          	mv	a1,a4
     778:	00078513          	mv	a0,a5
     77c:	bd5ff0ef          	jal	ra,350 <LCD_Address_Set>
     780:	fdc45783          	lhu	a5,-36(s0)
     784:	fef41723          	sh	a5,-18(s0)
     788:	0400006f          	j	7c8 <LCD_Fill+0xb4>
     78c:	fde45783          	lhu	a5,-34(s0)
     790:	fef41623          	sh	a5,-20(s0)
     794:	01c0006f          	j	7b0 <LCD_Fill+0x9c>
     798:	fd645783          	lhu	a5,-42(s0)
     79c:	00078513          	mv	a0,a5
     7a0:	ae9ff0ef          	jal	ra,288 <LCD_WR_DATA>
     7a4:	fec45783          	lhu	a5,-20(s0)
     7a8:	00178793          	addi	a5,a5,1
     7ac:	fef41623          	sh	a5,-20(s0)
     7b0:	fec45703          	lhu	a4,-20(s0)
     7b4:	fda45783          	lhu	a5,-38(s0)
     7b8:	fef760e3          	bltu	a4,a5,798 <LCD_Fill+0x84>
     7bc:	fee45783          	lhu	a5,-18(s0)
     7c0:	00178793          	addi	a5,a5,1
     7c4:	fef41723          	sh	a5,-18(s0)
     7c8:	fee45703          	lhu	a4,-18(s0)
     7cc:	fd845783          	lhu	a5,-40(s0)
     7d0:	faf76ee3          	bltu	a4,a5,78c <LCD_Fill+0x78>
     7d4:	00000013          	nop
     7d8:	02c12083          	lw	ra,44(sp)
     7dc:	02812403          	lw	s0,40(sp)
     7e0:	03010113          	addi	sp,sp,48
     7e4:	00008067          	ret

000007e8 <LCD_DrawPoint>:
     7e8:	fe010113          	addi	sp,sp,-32
     7ec:	00112e23          	sw	ra,28(sp)
     7f0:	00812c23          	sw	s0,24(sp)
     7f4:	02010413          	addi	s0,sp,32
     7f8:	00050793          	mv	a5,a0
     7fc:	00058693          	mv	a3,a1
     800:	00060713          	mv	a4,a2
     804:	fef41723          	sh	a5,-18(s0)
     808:	00068793          	mv	a5,a3
     80c:	fef41623          	sh	a5,-20(s0)
     810:	00070793          	mv	a5,a4
     814:	fef41523          	sh	a5,-22(s0)
     818:	fec45683          	lhu	a3,-20(s0)
     81c:	fee45603          	lhu	a2,-18(s0)
     820:	fec45703          	lhu	a4,-20(s0)
     824:	fee45783          	lhu	a5,-18(s0)
     828:	00070593          	mv	a1,a4
     82c:	00078513          	mv	a0,a5
     830:	b21ff0ef          	jal	ra,350 <LCD_Address_Set>
     834:	fea45783          	lhu	a5,-22(s0)
     838:	00078513          	mv	a0,a5
     83c:	a4dff0ef          	jal	ra,288 <LCD_WR_DATA>
     840:	00000013          	nop
     844:	01c12083          	lw	ra,28(sp)
     848:	01812403          	lw	s0,24(sp)
     84c:	02010113          	addi	sp,sp,32
     850:	00008067          	ret

00000854 <LCD_ShowChar>:
     854:	fd010113          	addi	sp,sp,-48
     858:	02112623          	sw	ra,44(sp)
     85c:	02812423          	sw	s0,40(sp)
     860:	03010413          	addi	s0,sp,48
     864:	00050313          	mv	t1,a0
     868:	00058893          	mv	a7,a1
     86c:	00060513          	mv	a0,a2
     870:	00068593          	mv	a1,a3
     874:	00070613          	mv	a2,a4
     878:	00078693          	mv	a3,a5
     87c:	00080713          	mv	a4,a6
     880:	00030793          	mv	a5,t1
     884:	fcf41f23          	sh	a5,-34(s0)
     888:	00088793          	mv	a5,a7
     88c:	fcf41e23          	sh	a5,-36(s0)
     890:	00050793          	mv	a5,a0
     894:	fcf40da3          	sb	a5,-37(s0)
     898:	00058793          	mv	a5,a1
     89c:	fcf41c23          	sh	a5,-40(s0)
     8a0:	00060793          	mv	a5,a2
     8a4:	fcf41b23          	sh	a5,-42(s0)
     8a8:	00068793          	mv	a5,a3
     8ac:	fcf40d23          	sb	a5,-38(s0)
     8b0:	00070793          	mv	a5,a4
     8b4:	fcf40aa3          	sb	a5,-43(s0)
     8b8:	fe0406a3          	sb	zero,-19(s0)
     8bc:	fde45783          	lhu	a5,-34(s0)
     8c0:	fef41423          	sh	a5,-24(s0)
     8c4:	fda44783          	lbu	a5,-38(s0)
     8c8:	0017d793          	srli	a5,a5,0x1
     8cc:	fef403a3          	sb	a5,-25(s0)
     8d0:	fe744783          	lbu	a5,-25(s0)
     8d4:	0037d793          	srli	a5,a5,0x3
     8d8:	0ff7f793          	andi	a5,a5,255
     8dc:	00078713          	mv	a4,a5
     8e0:	fe744783          	lbu	a5,-25(s0)
     8e4:	0077f793          	andi	a5,a5,7
     8e8:	0ff7f793          	andi	a5,a5,255
     8ec:	00f037b3          	snez	a5,a5
     8f0:	0ff7f793          	andi	a5,a5,255
     8f4:	00f707b3          	add	a5,a4,a5
     8f8:	01079713          	slli	a4,a5,0x10
     8fc:	01075713          	srli	a4,a4,0x10
     900:	fda44783          	lbu	a5,-38(s0)
     904:	01079793          	slli	a5,a5,0x10
     908:	0107d793          	srli	a5,a5,0x10
     90c:	02f707b3          	mul	a5,a4,a5
     910:	fef41223          	sh	a5,-28(s0)
     914:	fdb44783          	lbu	a5,-37(s0)
     918:	fe078793          	addi	a5,a5,-32
     91c:	fcf40da3          	sb	a5,-37(s0)
     920:	fe744783          	lbu	a5,-25(s0)
     924:	01079713          	slli	a4,a5,0x10
     928:	01075713          	srli	a4,a4,0x10
     92c:	fde45783          	lhu	a5,-34(s0)
     930:	00f707b3          	add	a5,a4,a5
     934:	01079793          	slli	a5,a5,0x10
     938:	0107d793          	srli	a5,a5,0x10
     93c:	fff78793          	addi	a5,a5,-1
     940:	01079613          	slli	a2,a5,0x10
     944:	01065613          	srli	a2,a2,0x10
     948:	fda44783          	lbu	a5,-38(s0)
     94c:	01079713          	slli	a4,a5,0x10
     950:	01075713          	srli	a4,a4,0x10
     954:	fdc45783          	lhu	a5,-36(s0)
     958:	00f707b3          	add	a5,a4,a5
     95c:	01079793          	slli	a5,a5,0x10
     960:	0107d793          	srli	a5,a5,0x10
     964:	fff78793          	addi	a5,a5,-1
     968:	01079693          	slli	a3,a5,0x10
     96c:	0106d693          	srli	a3,a3,0x10
     970:	fdc45703          	lhu	a4,-36(s0)
     974:	fde45783          	lhu	a5,-34(s0)
     978:	00070593          	mv	a1,a4
     97c:	00078513          	mv	a0,a5
     980:	9d1ff0ef          	jal	ra,350 <LCD_Address_Set>
     984:	fe041523          	sh	zero,-22(s0)
     988:	1dc0006f          	j	b64 <LCD_ShowChar+0x310>
     98c:	fda44703          	lbu	a4,-38(s0)
     990:	00c00793          	li	a5,12
     994:	02f71c63          	bne	a4,a5,9cc <LCD_ShowChar+0x178>
     998:	fdb44703          	lbu	a4,-37(s0)
     99c:	fea45683          	lhu	a3,-22(s0)
     9a0:	10000637          	lui	a2,0x10000
     9a4:	00070793          	mv	a5,a4
     9a8:	00179793          	slli	a5,a5,0x1
     9ac:	00e787b3          	add	a5,a5,a4
     9b0:	00279793          	slli	a5,a5,0x2
     9b4:	00060713          	mv	a4,a2
     9b8:	00e787b3          	add	a5,a5,a4
     9bc:	00d787b3          	add	a5,a5,a3
     9c0:	0007c783          	lbu	a5,0(a5)
     9c4:	fef407a3          	sb	a5,-17(s0)
     9c8:	0a80006f          	j	a70 <LCD_ShowChar+0x21c>
     9cc:	fda44703          	lbu	a4,-38(s0)
     9d0:	01000793          	li	a5,16
     9d4:	02f71663          	bne	a4,a5,a00 <LCD_ShowChar+0x1ac>
     9d8:	fdb44683          	lbu	a3,-37(s0)
     9dc:	fea45783          	lhu	a5,-22(s0)
     9e0:	10000737          	lui	a4,0x10000
     9e4:	00469693          	slli	a3,a3,0x4
     9e8:	47470713          	addi	a4,a4,1140 # 10000474 <ascii_1608>
     9ec:	00e68733          	add	a4,a3,a4
     9f0:	00f707b3          	add	a5,a4,a5
     9f4:	0007c783          	lbu	a5,0(a5)
     9f8:	fef407a3          	sb	a5,-17(s0)
     9fc:	0740006f          	j	a70 <LCD_ShowChar+0x21c>
     a00:	fda44703          	lbu	a4,-38(s0)
     a04:	01800793          	li	a5,24
     a08:	02f71c63          	bne	a4,a5,a40 <LCD_ShowChar+0x1ec>
     a0c:	fdb44703          	lbu	a4,-37(s0)
     a10:	fea45683          	lhu	a3,-22(s0)
     a14:	10001637          	lui	a2,0x10001
     a18:	00070793          	mv	a5,a4
     a1c:	00179793          	slli	a5,a5,0x1
     a20:	00e787b3          	add	a5,a5,a4
     a24:	00479793          	slli	a5,a5,0x4
     a28:	a6460713          	addi	a4,a2,-1436 # 10000a64 <ascii_2412>
     a2c:	00e787b3          	add	a5,a5,a4
     a30:	00d787b3          	add	a5,a5,a3
     a34:	0007c783          	lbu	a5,0(a5)
     a38:	fef407a3          	sb	a5,-17(s0)
     a3c:	0340006f          	j	a70 <LCD_ShowChar+0x21c>
     a40:	fda44703          	lbu	a4,-38(s0)
     a44:	02000793          	li	a5,32
     a48:	12f71663          	bne	a4,a5,b74 <LCD_ShowChar+0x320>
     a4c:	fdb44683          	lbu	a3,-37(s0)
     a50:	fea45783          	lhu	a5,-22(s0)
     a54:	10002737          	lui	a4,0x10002
     a58:	00669693          	slli	a3,a3,0x6
     a5c:	c3470713          	addi	a4,a4,-972 # 10001c34 <ascii_3216>
     a60:	00e68733          	add	a4,a3,a4
     a64:	00f707b3          	add	a5,a4,a5
     a68:	0007c783          	lbu	a5,0(a5)
     a6c:	fef407a3          	sb	a5,-17(s0)
     a70:	fe040723          	sb	zero,-18(s0)
     a74:	0d80006f          	j	b4c <LCD_ShowChar+0x2f8>
     a78:	fd544783          	lbu	a5,-43(s0)
     a7c:	04079e63          	bnez	a5,ad8 <LCD_ShowChar+0x284>
     a80:	fef44703          	lbu	a4,-17(s0)
     a84:	fee44783          	lbu	a5,-18(s0)
     a88:	40f757b3          	sra	a5,a4,a5
     a8c:	0017f793          	andi	a5,a5,1
     a90:	00078a63          	beqz	a5,aa4 <LCD_ShowChar+0x250>
     a94:	fd845783          	lhu	a5,-40(s0)
     a98:	00078513          	mv	a0,a5
     a9c:	fecff0ef          	jal	ra,288 <LCD_WR_DATA>
     aa0:	0100006f          	j	ab0 <LCD_ShowChar+0x25c>
     aa4:	fd645783          	lhu	a5,-42(s0)
     aa8:	00078513          	mv	a0,a5
     aac:	fdcff0ef          	jal	ra,288 <LCD_WR_DATA>
     ab0:	fed44783          	lbu	a5,-19(s0)
     ab4:	00178793          	addi	a5,a5,1
     ab8:	fef406a3          	sb	a5,-19(s0)
     abc:	fed44703          	lbu	a4,-19(s0)
     ac0:	fe744783          	lbu	a5,-25(s0)
     ac4:	02f777b3          	remu	a5,a4,a5
     ac8:	0ff7f793          	andi	a5,a5,255
     acc:	06079a63          	bnez	a5,b40 <LCD_ShowChar+0x2ec>
     ad0:	fe0406a3          	sb	zero,-19(s0)
     ad4:	0840006f          	j	b58 <LCD_ShowChar+0x304>
     ad8:	fef44703          	lbu	a4,-17(s0)
     adc:	fee44783          	lbu	a5,-18(s0)
     ae0:	40f757b3          	sra	a5,a4,a5
     ae4:	0017f793          	andi	a5,a5,1
     ae8:	02078063          	beqz	a5,b08 <LCD_ShowChar+0x2b4>
     aec:	fd845683          	lhu	a3,-40(s0)
     af0:	fdc45703          	lhu	a4,-36(s0)
     af4:	fde45783          	lhu	a5,-34(s0)
     af8:	00068613          	mv	a2,a3
     afc:	00070593          	mv	a1,a4
     b00:	00078513          	mv	a0,a5
     b04:	ce5ff0ef          	jal	ra,7e8 <LCD_DrawPoint>
     b08:	fde45783          	lhu	a5,-34(s0)
     b0c:	00178793          	addi	a5,a5,1
     b10:	fcf41f23          	sh	a5,-34(s0)
     b14:	fde45703          	lhu	a4,-34(s0)
     b18:	fe845783          	lhu	a5,-24(s0)
     b1c:	40f70733          	sub	a4,a4,a5
     b20:	fe744783          	lbu	a5,-25(s0)
     b24:	00f71e63          	bne	a4,a5,b40 <LCD_ShowChar+0x2ec>
     b28:	fe845783          	lhu	a5,-24(s0)
     b2c:	fcf41f23          	sh	a5,-34(s0)
     b30:	fdc45783          	lhu	a5,-36(s0)
     b34:	00178793          	addi	a5,a5,1
     b38:	fcf41e23          	sh	a5,-36(s0)
     b3c:	01c0006f          	j	b58 <LCD_ShowChar+0x304>
     b40:	fee44783          	lbu	a5,-18(s0)
     b44:	00178793          	addi	a5,a5,1
     b48:	fef40723          	sb	a5,-18(s0)
     b4c:	fee44703          	lbu	a4,-18(s0)
     b50:	00700793          	li	a5,7
     b54:	f2e7f2e3          	bgeu	a5,a4,a78 <LCD_ShowChar+0x224>
     b58:	fea45783          	lhu	a5,-22(s0)
     b5c:	00178793          	addi	a5,a5,1
     b60:	fef41523          	sh	a5,-22(s0)
     b64:	fea45703          	lhu	a4,-22(s0)
     b68:	fe445783          	lhu	a5,-28(s0)
     b6c:	e2f760e3          	bltu	a4,a5,98c <LCD_ShowChar+0x138>
     b70:	0080006f          	j	b78 <LCD_ShowChar+0x324>
     b74:	00000013          	nop
     b78:	02c12083          	lw	ra,44(sp)
     b7c:	02812403          	lw	s0,40(sp)
     b80:	03010113          	addi	sp,sp,48
     b84:	00008067          	ret

00000b88 <LCD_ShowString>:
     b88:	fe010113          	addi	sp,sp,-32
     b8c:	00112e23          	sw	ra,28(sp)
     b90:	00812c23          	sw	s0,24(sp)
     b94:	02010413          	addi	s0,sp,32
     b98:	00050893          	mv	a7,a0
     b9c:	00058513          	mv	a0,a1
     ba0:	fec42423          	sw	a2,-24(s0)
     ba4:	00068593          	mv	a1,a3
     ba8:	00070613          	mv	a2,a4
     bac:	00078693          	mv	a3,a5
     bb0:	00080713          	mv	a4,a6
     bb4:	00088793          	mv	a5,a7
     bb8:	fef41723          	sh	a5,-18(s0)
     bbc:	00050793          	mv	a5,a0
     bc0:	fef41623          	sh	a5,-20(s0)
     bc4:	00058793          	mv	a5,a1
     bc8:	fef41323          	sh	a5,-26(s0)
     bcc:	00060793          	mv	a5,a2
     bd0:	fef41223          	sh	a5,-28(s0)
     bd4:	00068793          	mv	a5,a3
     bd8:	fef401a3          	sb	a5,-29(s0)
     bdc:	00070793          	mv	a5,a4
     be0:	fef40123          	sb	a5,-30(s0)
     be4:	0540006f          	j	c38 <LCD_ShowString+0xb0>
     be8:	fe842783          	lw	a5,-24(s0)
     bec:	0007c603          	lbu	a2,0(a5)
     bf0:	fe244803          	lbu	a6,-30(s0)
     bf4:	fe344783          	lbu	a5,-29(s0)
     bf8:	fe445703          	lhu	a4,-28(s0)
     bfc:	fe645683          	lhu	a3,-26(s0)
     c00:	fec45583          	lhu	a1,-20(s0)
     c04:	fee45503          	lhu	a0,-18(s0)
     c08:	c4dff0ef          	jal	ra,854 <LCD_ShowChar>
     c0c:	fe344783          	lbu	a5,-29(s0)
     c10:	0017d793          	srli	a5,a5,0x1
     c14:	0ff7f793          	andi	a5,a5,255
     c18:	01079713          	slli	a4,a5,0x10
     c1c:	01075713          	srli	a4,a4,0x10
     c20:	fee45783          	lhu	a5,-18(s0)
     c24:	00f707b3          	add	a5,a4,a5
     c28:	fef41723          	sh	a5,-18(s0)
     c2c:	fe842783          	lw	a5,-24(s0)
     c30:	00178793          	addi	a5,a5,1
     c34:	fef42423          	sw	a5,-24(s0)
     c38:	fe842783          	lw	a5,-24(s0)
     c3c:	0007c783          	lbu	a5,0(a5)
     c40:	fa0794e3          	bnez	a5,be8 <LCD_ShowString+0x60>
     c44:	00000013          	nop
     c48:	01c12083          	lw	ra,28(sp)
     c4c:	01812403          	lw	s0,24(sp)
     c50:	02010113          	addi	sp,sp,32
     c54:	00008067          	ret

00000c58 <mypow>:
     c58:	fd010113          	addi	sp,sp,-48
     c5c:	02812623          	sw	s0,44(sp)
     c60:	03010413          	addi	s0,sp,48
     c64:	00050793          	mv	a5,a0
     c68:	00058713          	mv	a4,a1
     c6c:	fcf40fa3          	sb	a5,-33(s0)
     c70:	00070793          	mv	a5,a4
     c74:	fcf40f23          	sb	a5,-34(s0)
     c78:	00100793          	li	a5,1
     c7c:	fef42623          	sw	a5,-20(s0)
     c80:	0140006f          	j	c94 <mypow+0x3c>
     c84:	fdf44783          	lbu	a5,-33(s0)
     c88:	fec42703          	lw	a4,-20(s0)
     c8c:	02f707b3          	mul	a5,a4,a5
     c90:	fef42623          	sw	a5,-20(s0)
     c94:	fde44783          	lbu	a5,-34(s0)
     c98:	fff78713          	addi	a4,a5,-1
     c9c:	fce40f23          	sb	a4,-34(s0)
     ca0:	fe0792e3          	bnez	a5,c84 <mypow+0x2c>
     ca4:	fec42783          	lw	a5,-20(s0)
     ca8:	00078513          	mv	a0,a5
     cac:	02c12403          	lw	s0,44(sp)
     cb0:	03010113          	addi	sp,sp,48
     cb4:	00008067          	ret

00000cb8 <LCD_ShowIntNum>:
     cb8:	fd010113          	addi	sp,sp,-48
     cbc:	02112623          	sw	ra,44(sp)
     cc0:	02812423          	sw	s0,40(sp)
     cc4:	02912223          	sw	s1,36(sp)
     cc8:	03010413          	addi	s0,sp,48
     ccc:	00050313          	mv	t1,a0
     cd0:	00058893          	mv	a7,a1
     cd4:	00060513          	mv	a0,a2
     cd8:	00068593          	mv	a1,a3
     cdc:	00070613          	mv	a2,a4
     ce0:	00078693          	mv	a3,a5
     ce4:	00080713          	mv	a4,a6
     ce8:	00030793          	mv	a5,t1
     cec:	fcf41f23          	sh	a5,-34(s0)
     cf0:	00088793          	mv	a5,a7
     cf4:	fcf41e23          	sh	a5,-36(s0)
     cf8:	00050793          	mv	a5,a0
     cfc:	fcf41d23          	sh	a5,-38(s0)
     d00:	00058793          	mv	a5,a1
     d04:	fcf40ca3          	sb	a5,-39(s0)
     d08:	00060793          	mv	a5,a2
     d0c:	fcf41b23          	sh	a5,-42(s0)
     d10:	00068793          	mv	a5,a3
     d14:	fcf41a23          	sh	a5,-44(s0)
     d18:	00070793          	mv	a5,a4
     d1c:	fcf40c23          	sb	a5,-40(s0)
     d20:	fe040723          	sb	zero,-18(s0)
     d24:	fd844783          	lbu	a5,-40(s0)
     d28:	0017d793          	srli	a5,a5,0x1
     d2c:	fef406a3          	sb	a5,-19(s0)
     d30:	fe0407a3          	sb	zero,-17(s0)
     d34:	1200006f          	j	e54 <LCD_ShowIntNum+0x19c>
     d38:	fda45483          	lhu	s1,-38(s0)
     d3c:	fd944703          	lbu	a4,-39(s0)
     d40:	fef44783          	lbu	a5,-17(s0)
     d44:	40f707b3          	sub	a5,a4,a5
     d48:	0ff7f793          	andi	a5,a5,255
     d4c:	fff78793          	addi	a5,a5,-1
     d50:	0ff7f793          	andi	a5,a5,255
     d54:	00078593          	mv	a1,a5
     d58:	00a00513          	li	a0,10
     d5c:	efdff0ef          	jal	ra,c58 <mypow>
     d60:	00050793          	mv	a5,a0
     d64:	02f4d733          	divu	a4,s1,a5
     d68:	00a00793          	li	a5,10
     d6c:	02f777b3          	remu	a5,a4,a5
     d70:	fef40623          	sb	a5,-20(s0)
     d74:	fee44783          	lbu	a5,-18(s0)
     d78:	06079c63          	bnez	a5,df0 <LCD_ShowIntNum+0x138>
     d7c:	fef44703          	lbu	a4,-17(s0)
     d80:	fd944783          	lbu	a5,-39(s0)
     d84:	fff78793          	addi	a5,a5,-1
     d88:	06f75463          	bge	a4,a5,df0 <LCD_ShowIntNum+0x138>
     d8c:	fec44783          	lbu	a5,-20(s0)
     d90:	04079c63          	bnez	a5,de8 <LCD_ShowIntNum+0x130>
     d94:	fef44783          	lbu	a5,-17(s0)
     d98:	01079713          	slli	a4,a5,0x10
     d9c:	01075713          	srli	a4,a4,0x10
     da0:	fed44783          	lbu	a5,-19(s0)
     da4:	01079793          	slli	a5,a5,0x10
     da8:	0107d793          	srli	a5,a5,0x10
     dac:	02f707b3          	mul	a5,a4,a5
     db0:	01079713          	slli	a4,a5,0x10
     db4:	01075713          	srli	a4,a4,0x10
     db8:	fde45783          	lhu	a5,-34(s0)
     dbc:	00f707b3          	add	a5,a4,a5
     dc0:	01079513          	slli	a0,a5,0x10
     dc4:	01055513          	srli	a0,a0,0x10
     dc8:	fd844783          	lbu	a5,-40(s0)
     dcc:	fd445703          	lhu	a4,-44(s0)
     dd0:	fd645683          	lhu	a3,-42(s0)
     dd4:	fdc45583          	lhu	a1,-36(s0)
     dd8:	00000813          	li	a6,0
     ddc:	02000613          	li	a2,32
     de0:	a75ff0ef          	jal	ra,854 <LCD_ShowChar>
     de4:	0640006f          	j	e48 <LCD_ShowIntNum+0x190>
     de8:	00100793          	li	a5,1
     dec:	fef40723          	sb	a5,-18(s0)
     df0:	fef44783          	lbu	a5,-17(s0)
     df4:	01079713          	slli	a4,a5,0x10
     df8:	01075713          	srli	a4,a4,0x10
     dfc:	fed44783          	lbu	a5,-19(s0)
     e00:	01079793          	slli	a5,a5,0x10
     e04:	0107d793          	srli	a5,a5,0x10
     e08:	02f707b3          	mul	a5,a4,a5
     e0c:	01079713          	slli	a4,a5,0x10
     e10:	01075713          	srli	a4,a4,0x10
     e14:	fde45783          	lhu	a5,-34(s0)
     e18:	00f707b3          	add	a5,a4,a5
     e1c:	01079513          	slli	a0,a5,0x10
     e20:	01055513          	srli	a0,a0,0x10
     e24:	fec44783          	lbu	a5,-20(s0)
     e28:	03078793          	addi	a5,a5,48
     e2c:	0ff7f613          	andi	a2,a5,255
     e30:	fd844783          	lbu	a5,-40(s0)
     e34:	fd445703          	lhu	a4,-44(s0)
     e38:	fd645683          	lhu	a3,-42(s0)
     e3c:	fdc45583          	lhu	a1,-36(s0)
     e40:	00000813          	li	a6,0
     e44:	a11ff0ef          	jal	ra,854 <LCD_ShowChar>
     e48:	fef44783          	lbu	a5,-17(s0)
     e4c:	00178793          	addi	a5,a5,1
     e50:	fef407a3          	sb	a5,-17(s0)
     e54:	fef44703          	lbu	a4,-17(s0)
     e58:	fd944783          	lbu	a5,-39(s0)
     e5c:	ecf76ee3          	bltu	a4,a5,d38 <LCD_ShowIntNum+0x80>
     e60:	00000013          	nop
     e64:	02c12083          	lw	ra,44(sp)
     e68:	02812403          	lw	s0,40(sp)
     e6c:	02412483          	lw	s1,36(sp)
     e70:	03010113          	addi	sp,sp,48
     e74:	00008067          	ret

00000e78 <LCD_ShowFloatNum1>:
     e78:	fd010113          	addi	sp,sp,-48
     e7c:	02112623          	sw	ra,44(sp)
     e80:	02812423          	sw	s0,40(sp)
     e84:	02912223          	sw	s1,36(sp)
     e88:	03010413          	addi	s0,sp,48
     e8c:	00050893          	mv	a7,a0
     e90:	00058513          	mv	a0,a1
     e94:	fcc42c23          	sw	a2,-40(s0)
     e98:	00068593          	mv	a1,a3
     e9c:	00070613          	mv	a2,a4
     ea0:	00078693          	mv	a3,a5
     ea4:	00080713          	mv	a4,a6
     ea8:	00088793          	mv	a5,a7
     eac:	fcf41f23          	sh	a5,-34(s0)
     eb0:	00050793          	mv	a5,a0
     eb4:	fcf41e23          	sh	a5,-36(s0)
     eb8:	00058793          	mv	a5,a1
     ebc:	fcf40ba3          	sb	a5,-41(s0)
     ec0:	00060793          	mv	a5,a2
     ec4:	fcf41a23          	sh	a5,-44(s0)
     ec8:	00068793          	mv	a5,a3
     ecc:	fcf41923          	sh	a5,-46(s0)
     ed0:	00070793          	mv	a5,a4
     ed4:	fcf40b23          	sb	a5,-42(s0)
     ed8:	fd644783          	lbu	a5,-42(s0)
     edc:	0017d793          	srli	a5,a5,0x1
     ee0:	fef40723          	sb	a5,-18(s0)
     ee4:	100047b7          	lui	a5,0x10004
     ee8:	0fc7a583          	lw	a1,252(a5) # 100040fc <gImage_1+0xd08>
     eec:	fd842503          	lw	a0,-40(s0)
     ef0:	5b0010ef          	jal	ra,24a0 <__mulsf3>
     ef4:	00050793          	mv	a5,a0
     ef8:	00078513          	mv	a0,a5
     efc:	129010ef          	jal	ra,2824 <__fixunssfsi>
     f00:	00050793          	mv	a5,a0
     f04:	fef41623          	sh	a5,-20(s0)
     f08:	fe0407a3          	sb	zero,-17(s0)
     f0c:	1200006f          	j	102c <LCD_ShowFloatNum1+0x1b4>
     f10:	fec45483          	lhu	s1,-20(s0)
     f14:	fd744703          	lbu	a4,-41(s0)
     f18:	fef44783          	lbu	a5,-17(s0)
     f1c:	40f707b3          	sub	a5,a4,a5
     f20:	0ff7f793          	andi	a5,a5,255
     f24:	fff78793          	addi	a5,a5,-1
     f28:	0ff7f793          	andi	a5,a5,255
     f2c:	00078593          	mv	a1,a5
     f30:	00a00513          	li	a0,10
     f34:	d25ff0ef          	jal	ra,c58 <mypow>
     f38:	00050793          	mv	a5,a0
     f3c:	02f4d733          	divu	a4,s1,a5
     f40:	00a00793          	li	a5,10
     f44:	02f777b3          	remu	a5,a4,a5
     f48:	fef405a3          	sb	a5,-21(s0)
     f4c:	fef44703          	lbu	a4,-17(s0)
     f50:	fd744783          	lbu	a5,-41(s0)
     f54:	ffe78793          	addi	a5,a5,-2
     f58:	06f71863          	bne	a4,a5,fc8 <LCD_ShowFloatNum1+0x150>
     f5c:	fd744783          	lbu	a5,-41(s0)
     f60:	ffe78793          	addi	a5,a5,-2
     f64:	01079713          	slli	a4,a5,0x10
     f68:	01075713          	srli	a4,a4,0x10
     f6c:	fee44783          	lbu	a5,-18(s0)
     f70:	01079793          	slli	a5,a5,0x10
     f74:	0107d793          	srli	a5,a5,0x10
     f78:	02f707b3          	mul	a5,a4,a5
     f7c:	01079713          	slli	a4,a5,0x10
     f80:	01075713          	srli	a4,a4,0x10
     f84:	fde45783          	lhu	a5,-34(s0)
     f88:	00f707b3          	add	a5,a4,a5
     f8c:	01079513          	slli	a0,a5,0x10
     f90:	01055513          	srli	a0,a0,0x10
     f94:	fd644783          	lbu	a5,-42(s0)
     f98:	fd245703          	lhu	a4,-46(s0)
     f9c:	fd445683          	lhu	a3,-44(s0)
     fa0:	fdc45583          	lhu	a1,-36(s0)
     fa4:	00000813          	li	a6,0
     fa8:	02e00613          	li	a2,46
     fac:	8a9ff0ef          	jal	ra,854 <LCD_ShowChar>
     fb0:	fef44783          	lbu	a5,-17(s0)
     fb4:	00178793          	addi	a5,a5,1
     fb8:	fef407a3          	sb	a5,-17(s0)
     fbc:	fd744783          	lbu	a5,-41(s0)
     fc0:	00178793          	addi	a5,a5,1
     fc4:	fcf40ba3          	sb	a5,-41(s0)
     fc8:	fef44783          	lbu	a5,-17(s0)
     fcc:	01079713          	slli	a4,a5,0x10
     fd0:	01075713          	srli	a4,a4,0x10
     fd4:	fee44783          	lbu	a5,-18(s0)
     fd8:	01079793          	slli	a5,a5,0x10
     fdc:	0107d793          	srli	a5,a5,0x10
     fe0:	02f707b3          	mul	a5,a4,a5
     fe4:	01079713          	slli	a4,a5,0x10
     fe8:	01075713          	srli	a4,a4,0x10
     fec:	fde45783          	lhu	a5,-34(s0)
     ff0:	00f707b3          	add	a5,a4,a5
     ff4:	01079513          	slli	a0,a5,0x10
     ff8:	01055513          	srli	a0,a0,0x10
     ffc:	feb44783          	lbu	a5,-21(s0)
    1000:	03078793          	addi	a5,a5,48
    1004:	0ff7f613          	andi	a2,a5,255
    1008:	fd644783          	lbu	a5,-42(s0)
    100c:	fd245703          	lhu	a4,-46(s0)
    1010:	fd445683          	lhu	a3,-44(s0)
    1014:	fdc45583          	lhu	a1,-36(s0)
    1018:	00000813          	li	a6,0
    101c:	839ff0ef          	jal	ra,854 <LCD_ShowChar>
    1020:	fef44783          	lbu	a5,-17(s0)
    1024:	00178793          	addi	a5,a5,1
    1028:	fef407a3          	sb	a5,-17(s0)
    102c:	fef44703          	lbu	a4,-17(s0)
    1030:	fd744783          	lbu	a5,-41(s0)
    1034:	ecf76ee3          	bltu	a4,a5,f10 <LCD_ShowFloatNum1+0x98>
    1038:	00000013          	nop
    103c:	02c12083          	lw	ra,44(sp)
    1040:	02812403          	lw	s0,40(sp)
    1044:	02412483          	lw	s1,36(sp)
    1048:	03010113          	addi	sp,sp,48
    104c:	00008067          	ret

00001050 <LCD_ShowPicture>:
    1050:	fd010113          	addi	sp,sp,-48
    1054:	02112623          	sw	ra,44(sp)
    1058:	02812423          	sw	s0,40(sp)
    105c:	03010413          	addi	s0,sp,48
    1060:	00050793          	mv	a5,a0
    1064:	fce42a23          	sw	a4,-44(s0)
    1068:	fcf41f23          	sh	a5,-34(s0)
    106c:	00058793          	mv	a5,a1
    1070:	fcf41e23          	sh	a5,-36(s0)
    1074:	00060793          	mv	a5,a2
    1078:	fcf41d23          	sh	a5,-38(s0)
    107c:	00068793          	mv	a5,a3
    1080:	fcf41c23          	sh	a5,-40(s0)
    1084:	fe042423          	sw	zero,-24(s0)
    1088:	fde45703          	lhu	a4,-34(s0)
    108c:	fda45783          	lhu	a5,-38(s0)
    1090:	00f707b3          	add	a5,a4,a5
    1094:	01079793          	slli	a5,a5,0x10
    1098:	0107d793          	srli	a5,a5,0x10
    109c:	fff78793          	addi	a5,a5,-1
    10a0:	01079613          	slli	a2,a5,0x10
    10a4:	01065613          	srli	a2,a2,0x10
    10a8:	fdc45703          	lhu	a4,-36(s0)
    10ac:	fd845783          	lhu	a5,-40(s0)
    10b0:	00f707b3          	add	a5,a4,a5
    10b4:	01079793          	slli	a5,a5,0x10
    10b8:	0107d793          	srli	a5,a5,0x10
    10bc:	fff78793          	addi	a5,a5,-1
    10c0:	01079693          	slli	a3,a5,0x10
    10c4:	0106d693          	srli	a3,a3,0x10
    10c8:	fdc45703          	lhu	a4,-36(s0)
    10cc:	fde45783          	lhu	a5,-34(s0)
    10d0:	00070593          	mv	a1,a4
    10d4:	00078513          	mv	a0,a5
    10d8:	a78ff0ef          	jal	ra,350 <LCD_Address_Set>
    10dc:	fe041723          	sh	zero,-18(s0)
    10e0:	0780006f          	j	1158 <LCD_ShowPicture+0x108>
    10e4:	fe041623          	sh	zero,-20(s0)
    10e8:	0580006f          	j	1140 <LCD_ShowPicture+0xf0>
    10ec:	fe842783          	lw	a5,-24(s0)
    10f0:	00179793          	slli	a5,a5,0x1
    10f4:	fd442703          	lw	a4,-44(s0)
    10f8:	00f707b3          	add	a5,a4,a5
    10fc:	0007c783          	lbu	a5,0(a5)
    1100:	00078513          	mv	a0,a5
    1104:	94cff0ef          	jal	ra,250 <LCD_WR_DATA8>
    1108:	fe842783          	lw	a5,-24(s0)
    110c:	00179793          	slli	a5,a5,0x1
    1110:	00178793          	addi	a5,a5,1
    1114:	fd442703          	lw	a4,-44(s0)
    1118:	00f707b3          	add	a5,a4,a5
    111c:	0007c783          	lbu	a5,0(a5)
    1120:	00078513          	mv	a0,a5
    1124:	92cff0ef          	jal	ra,250 <LCD_WR_DATA8>
    1128:	fe842783          	lw	a5,-24(s0)
    112c:	00178793          	addi	a5,a5,1
    1130:	fef42423          	sw	a5,-24(s0)
    1134:	fec45783          	lhu	a5,-20(s0)
    1138:	00178793          	addi	a5,a5,1
    113c:	fef41623          	sh	a5,-20(s0)
    1140:	fec45703          	lhu	a4,-20(s0)
    1144:	fd845783          	lhu	a5,-40(s0)
    1148:	faf762e3          	bltu	a4,a5,10ec <LCD_ShowPicture+0x9c>
    114c:	fee45783          	lhu	a5,-18(s0)
    1150:	00178793          	addi	a5,a5,1
    1154:	fef41723          	sh	a5,-18(s0)
    1158:	fee45703          	lhu	a4,-18(s0)
    115c:	fda45783          	lhu	a5,-38(s0)
    1160:	f8f762e3          	bltu	a4,a5,10e4 <LCD_ShowPicture+0x94>
    1164:	00000013          	nop
    1168:	02c12083          	lw	ra,44(sp)
    116c:	02812403          	lw	s0,40(sp)
    1170:	03010113          	addi	sp,sp,48
    1174:	00008067          	ret

00001178 <main>:
    1178:	fe010113          	addi	sp,sp,-32
    117c:	00112e23          	sw	ra,28(sp)
    1180:	00812c23          	sw	s0,24(sp)
    1184:	02010413          	addi	s0,sp,32
    1188:	00000793          	li	a5,0
    118c:	fef42423          	sw	a5,-24(s0)
    1190:	fe042223          	sw	zero,-28(s0)
    1194:	1c9000ef          	jal	ra,1b5c <uart_init>
    1198:	100047b7          	lui	a5,0x10004
    119c:	07878513          	addi	a0,a5,120 # 10004078 <gImage_1+0xc84>
    11a0:	111000ef          	jal	ra,1ab0 <xprintf>
    11a4:	400007b7          	lui	a5,0x40000
    11a8:	0007a703          	lw	a4,0(a5) # 40000000 <__freertos_irq_stack_top+0x2fff8000>
    11ac:	400007b7          	lui	a5,0x40000
    11b0:	00276713          	ori	a4,a4,2
    11b4:	00e7a023          	sw	a4,0(a5) # 40000000 <__freertos_irq_stack_top+0x2fff8000>
    11b8:	400007b7          	lui	a5,0x40000
    11bc:	0007a703          	lw	a4,0(a5) # 40000000 <__freertos_irq_stack_top+0x2fff8000>
    11c0:	400007b7          	lui	a5,0x40000
    11c4:	00476713          	ori	a4,a4,4
    11c8:	00e7a023          	sw	a4,0(a5) # 40000000 <__freertos_irq_stack_top+0x2fff8000>
    11cc:	400007b7          	lui	a5,0x40000
    11d0:	0007a703          	lw	a4,0(a5) # 40000000 <__freertos_irq_stack_top+0x2fff8000>
    11d4:	400007b7          	lui	a5,0x40000
    11d8:	01076713          	ori	a4,a4,16
    11dc:	00e7a023          	sw	a4,0(a5) # 40000000 <__freertos_irq_stack_top+0x2fff8000>
    11e0:	400007b7          	lui	a5,0x40000
    11e4:	0007a703          	lw	a4,0(a5) # 40000000 <__freertos_irq_stack_top+0x2fff8000>
    11e8:	400007b7          	lui	a5,0x40000
    11ec:	04076713          	ori	a4,a4,64
    11f0:	00e7a023          	sw	a4,0(a5) # 40000000 <__freertos_irq_stack_top+0x2fff8000>
    11f4:	400007b7          	lui	a5,0x40000
    11f8:	0007a703          	lw	a4,0(a5) # 40000000 <__freertos_irq_stack_top+0x2fff8000>
    11fc:	400007b7          	lui	a5,0x40000
    1200:	10076713          	ori	a4,a4,256
    1204:	00e7a023          	sw	a4,0(a5) # 40000000 <__freertos_irq_stack_top+0x2fff8000>
    1208:	100047b7          	lui	a5,0x10004
    120c:	09078513          	addi	a0,a5,144 # 10004090 <gImage_1+0xc9c>
    1210:	0a1000ef          	jal	ra,1ab0 <xprintf>
    1214:	181000ef          	jal	ra,1b94 <spi_init>
    1218:	100047b7          	lui	a5,0x10004
    121c:	0a878513          	addi	a0,a5,168 # 100040a8 <gImage_1+0xcb4>
    1220:	091000ef          	jal	ra,1ab0 <xprintf>
    1224:	9bcff0ef          	jal	ra,3e0 <LCD_Init>
    1228:	100047b7          	lui	a5,0x10004
    122c:	0c078513          	addi	a0,a5,192 # 100040c0 <gImage_1+0xccc>
    1230:	081000ef          	jal	ra,1ab0 <xprintf>
    1234:	000107b7          	lui	a5,0x10
    1238:	fff78713          	addi	a4,a5,-1 # ffff <_data_lma+0xd3ef>
    123c:	14000693          	li	a3,320
    1240:	0f000613          	li	a2,240
    1244:	00000593          	li	a1,0
    1248:	00000513          	li	a0,0
    124c:	cc8ff0ef          	jal	ra,714 <LCD_Fill>
    1250:	00000813          	li	a6,0
    1254:	01000793          	li	a5,16
    1258:	00010737          	lui	a4,0x10
    125c:	fff70713          	addi	a4,a4,-1 # ffff <_data_lma+0xd3ef>
    1260:	000106b7          	lui	a3,0x10
    1264:	80068693          	addi	a3,a3,-2048 # f800 <_data_lma+0xcbf0>
    1268:	10004637          	lui	a2,0x10004
    126c:	0d860613          	addi	a2,a2,216 # 100040d8 <gImage_1+0xce4>
    1270:	02800593          	li	a1,40
    1274:	00000513          	li	a0,0
    1278:	911ff0ef          	jal	ra,b88 <LCD_ShowString>
    127c:	01000813          	li	a6,16
    1280:	000107b7          	lui	a5,0x10
    1284:	fff78793          	addi	a5,a5,-1 # ffff <_data_lma+0xd3ef>
    1288:	00010737          	lui	a4,0x10
    128c:	80070713          	addi	a4,a4,-2048 # f800 <_data_lma+0xcbf0>
    1290:	00300693          	li	a3,3
    1294:	0f000613          	li	a2,240
    1298:	02800593          	li	a1,40
    129c:	03000513          	li	a0,48
    12a0:	a19ff0ef          	jal	ra,cb8 <LCD_ShowIntNum>
    12a4:	00000813          	li	a6,0
    12a8:	01000793          	li	a5,16
    12ac:	00010737          	lui	a4,0x10
    12b0:	fff70713          	addi	a4,a4,-1 # ffff <_data_lma+0xd3ef>
    12b4:	000106b7          	lui	a3,0x10
    12b8:	80068693          	addi	a3,a3,-2048 # f800 <_data_lma+0xcbf0>
    12bc:	10004637          	lui	a2,0x10004
    12c0:	0e060613          	addi	a2,a2,224 # 100040e0 <gImage_1+0xcec>
    12c4:	02800593          	li	a1,40
    12c8:	05000513          	li	a0,80
    12cc:	8bdff0ef          	jal	ra,b88 <LCD_ShowString>
    12d0:	01000813          	li	a6,16
    12d4:	000107b7          	lui	a5,0x10
    12d8:	fff78793          	addi	a5,a5,-1 # ffff <_data_lma+0xd3ef>
    12dc:	00010737          	lui	a4,0x10
    12e0:	80070713          	addi	a4,a4,-2048 # f800 <_data_lma+0xcbf0>
    12e4:	00300693          	li	a3,3
    12e8:	14000613          	li	a2,320
    12ec:	02800593          	li	a1,40
    12f0:	08000513          	li	a0,128
    12f4:	9c5ff0ef          	jal	ra,cb8 <LCD_ShowIntNum>
    12f8:	00000813          	li	a6,0
    12fc:	01000793          	li	a5,16
    1300:	00010737          	lui	a4,0x10
    1304:	fff70713          	addi	a4,a4,-1 # ffff <_data_lma+0xd3ef>
    1308:	000106b7          	lui	a3,0x10
    130c:	80068693          	addi	a3,a3,-2048 # f800 <_data_lma+0xcbf0>
    1310:	10004637          	lui	a2,0x10004
    1314:	0e060613          	addi	a2,a2,224 # 100040e0 <gImage_1+0xcec>
    1318:	02800593          	li	a1,40
    131c:	05000513          	li	a0,80
    1320:	869ff0ef          	jal	ra,b88 <LCD_ShowString>
    1324:	00000813          	li	a6,0
    1328:	01000793          	li	a5,16
    132c:	00010737          	lui	a4,0x10
    1330:	fff70713          	addi	a4,a4,-1 # ffff <_data_lma+0xd3ef>
    1334:	000106b7          	lui	a3,0x10
    1338:	80068693          	addi	a3,a3,-2048 # f800 <_data_lma+0xcbf0>
    133c:	10004637          	lui	a2,0x10004
    1340:	0e860613          	addi	a2,a2,232 # 100040e8 <gImage_1+0xcf4>
    1344:	04600593          	li	a1,70
    1348:	00000513          	li	a0,0
    134c:	83dff0ef          	jal	ra,b88 <LCD_ShowString>
    1350:	01000813          	li	a6,16
    1354:	000107b7          	lui	a5,0x10
    1358:	fff78793          	addi	a5,a5,-1 # ffff <_data_lma+0xd3ef>
    135c:	00010737          	lui	a4,0x10
    1360:	80070713          	addi	a4,a4,-2048 # f800 <_data_lma+0xcbf0>
    1364:	00400693          	li	a3,4
    1368:	fe842603          	lw	a2,-24(s0)
    136c:	04600593          	li	a1,70
    1370:	08000513          	li	a0,128
    1374:	b05ff0ef          	jal	ra,e78 <LCD_ShowFloatNum1>
    1378:	400007b7          	lui	a5,0x40000
    137c:	00478793          	addi	a5,a5,4 # 40000004 <__freertos_irq_stack_top+0x2fff8004>
    1380:	0007a783          	lw	a5,0(a5)
    1384:	0017f793          	andi	a5,a5,1
    1388:	00078a63          	beqz	a5,139c <main+0x224>
    138c:	fe442783          	lw	a5,-28(s0)
    1390:	00178793          	addi	a5,a5,1
    1394:	fef42223          	sw	a5,-28(s0)
    1398:	0100006f          	j	13a8 <main+0x230>
    139c:	fe442783          	lw	a5,-28(s0)
    13a0:	fff78793          	addi	a5,a5,-1
    13a4:	fef42223          	sw	a5,-28(s0)
    13a8:	fe442703          	lw	a4,-28(s0)
    13ac:	00300793          	li	a5,3
    13b0:	00e7d463          	bge	a5,a4,13b8 <main+0x240>
    13b4:	fe042223          	sw	zero,-28(s0)
    13b8:	fe442783          	lw	a5,-28(s0)
    13bc:	0007d663          	bgez	a5,13c8 <main+0x250>
    13c0:	00300793          	li	a5,3
    13c4:	fef42223          	sw	a5,-28(s0)
    13c8:	400007b7          	lui	a5,0x40000
    13cc:	00478793          	addi	a5,a5,4 # 40000004 <__freertos_irq_stack_top+0x2fff8004>
    13d0:	0007a703          	lw	a4,0(a5)
    13d4:	400007b7          	lui	a5,0x40000
    13d8:	00478793          	addi	a5,a5,4 # 40000004 <__freertos_irq_stack_top+0x2fff8004>
    13dc:	fe077713          	andi	a4,a4,-32
    13e0:	00e7a023          	sw	a4,0(a5)
    13e4:	400007b7          	lui	a5,0x40000
    13e8:	00478793          	addi	a5,a5,4 # 40000004 <__freertos_irq_stack_top+0x2fff8004>
    13ec:	0007a703          	lw	a4,0(a5)
    13f0:	fe442783          	lw	a5,-28(s0)
    13f4:	00200693          	li	a3,2
    13f8:	00f697b3          	sll	a5,a3,a5
    13fc:	00078693          	mv	a3,a5
    1400:	400007b7          	lui	a5,0x40000
    1404:	00478793          	addi	a5,a5,4 # 40000004 <__freertos_irq_stack_top+0x2fff8004>
    1408:	00d76733          	or	a4,a4,a3
    140c:	00e7a023          	sw	a4,0(a5)
    1410:	fe842503          	lw	a0,-24(s0)
    1414:	474010ef          	jal	ra,2888 <__extendsfdf2>
    1418:	100047b7          	lui	a5,0x10004
    141c:	1007a603          	lw	a2,256(a5) # 10004100 <gImage_1+0xd0c>
    1420:	1047a683          	lw	a3,260(a5)
    1424:	7f8000ef          	jal	ra,1c1c <__adddf3>
    1428:	00050793          	mv	a5,a0
    142c:	00058813          	mv	a6,a1
    1430:	00078513          	mv	a0,a5
    1434:	00080593          	mv	a1,a6
    1438:	550010ef          	jal	ra,2988 <__truncdfsf2>
    143c:	00050793          	mv	a5,a0
    1440:	fef42423          	sw	a5,-24(s0)
    1444:	fe040723          	sb	zero,-18(s0)
    1448:	0a00006f          	j	14e8 <main+0x370>
    144c:	fe0407a3          	sb	zero,-17(s0)
    1450:	0800006f          	j	14d0 <main+0x358>
    1454:	fef44783          	lbu	a5,-17(s0)
    1458:	01079793          	slli	a5,a5,0x10
    145c:	0107d793          	srli	a5,a5,0x10
    1460:	00078713          	mv	a4,a5
    1464:	00070793          	mv	a5,a4
    1468:	00279793          	slli	a5,a5,0x2
    146c:	00e787b3          	add	a5,a5,a4
    1470:	00379793          	slli	a5,a5,0x3
    1474:	01079513          	slli	a0,a5,0x10
    1478:	01055513          	srli	a0,a0,0x10
    147c:	fee44783          	lbu	a5,-18(s0)
    1480:	01079793          	slli	a5,a5,0x10
    1484:	0107d793          	srli	a5,a5,0x10
    1488:	00078713          	mv	a4,a5
    148c:	00070793          	mv	a5,a4
    1490:	00279793          	slli	a5,a5,0x2
    1494:	00e787b3          	add	a5,a5,a4
    1498:	00379793          	slli	a5,a5,0x3
    149c:	01079793          	slli	a5,a5,0x10
    14a0:	0107d793          	srli	a5,a5,0x10
    14a4:	07878793          	addi	a5,a5,120
    14a8:	01079593          	slli	a1,a5,0x10
    14ac:	0105d593          	srli	a1,a1,0x10
    14b0:	100037b7          	lui	a5,0x10003
    14b4:	3f478713          	addi	a4,a5,1012 # 100033f4 <gImage_1>
    14b8:	02800693          	li	a3,40
    14bc:	02800613          	li	a2,40
    14c0:	b91ff0ef          	jal	ra,1050 <LCD_ShowPicture>
    14c4:	fef44783          	lbu	a5,-17(s0)
    14c8:	00178793          	addi	a5,a5,1
    14cc:	fef407a3          	sb	a5,-17(s0)
    14d0:	fef44703          	lbu	a4,-17(s0)
    14d4:	00500793          	li	a5,5
    14d8:	f6e7fee3          	bgeu	a5,a4,1454 <main+0x2dc>
    14dc:	fee44783          	lbu	a5,-18(s0)
    14e0:	00178793          	addi	a5,a5,1
    14e4:	fef40723          	sb	a5,-18(s0)
    14e8:	fee44703          	lbu	a4,-18(s0)
    14ec:	00400793          	li	a5,4
    14f0:	f4e7fee3          	bgeu	a5,a4,144c <main+0x2d4>
    14f4:	d5dff06f          	j	1250 <main+0xd8>

000014f8 <_init>:
    14f8:	ff010113          	addi	sp,sp,-16
    14fc:	00812623          	sw	s0,12(sp)
    1500:	01010413          	addi	s0,sp,16
    1504:	000007b7          	lui	a5,0x0
    1508:	06878793          	addi	a5,a5,104 # 68 <trap_entry>
    150c:	30579073          	csrw	mtvec,a5
    1510:	000027b7          	lui	a5,0x2
    1514:	88878793          	addi	a5,a5,-1912 # 1888 <xvprintf+0x264>
    1518:	30079073          	csrw	mstatus,a5
    151c:	00000013          	nop
    1520:	00c12403          	lw	s0,12(sp)
    1524:	01010113          	addi	sp,sp,16
    1528:	00008067          	ret

0000152c <trap_handler>:
    152c:	fe010113          	addi	sp,sp,-32
    1530:	00112e23          	sw	ra,28(sp)
    1534:	00812c23          	sw	s0,24(sp)
    1538:	02010413          	addi	s0,sp,32
    153c:	fea42623          	sw	a0,-20(s0)
    1540:	feb42423          	sw	a1,-24(s0)
    1544:	00000097          	auipc	ra,0x0
    1548:	000000e7          	jalr	zero # 0 <_start>
    154c:	00000013          	nop
    1550:	01c12083          	lw	ra,28(sp)
    1554:	01812403          	lw	s0,24(sp)
    1558:	02010113          	addi	sp,sp,32
    155c:	00008067          	ret

00001560 <xputc>:
    1560:	fe010113          	addi	sp,sp,-32
    1564:	00112e23          	sw	ra,28(sp)
    1568:	00812c23          	sw	s0,24(sp)
    156c:	02010413          	addi	s0,sp,32
    1570:	00050793          	mv	a5,a0
    1574:	fef407a3          	sb	a5,-17(s0)
    1578:	100047b7          	lui	a5,0x10004
    157c:	2a87a783          	lw	a5,680(a5) # 100042a8 <__bss_start>
    1580:	02078263          	beqz	a5,15a4 <xputc+0x44>
    1584:	100047b7          	lui	a5,0x10004
    1588:	2a87a783          	lw	a5,680(a5) # 100042a8 <__bss_start>
    158c:	00178693          	addi	a3,a5,1
    1590:	10004737          	lui	a4,0x10004
    1594:	2ad72423          	sw	a3,680(a4) # 100042a8 <__bss_start>
    1598:	fef44703          	lbu	a4,-17(s0)
    159c:	00e78023          	sb	a4,0(a5)
    15a0:	0240006f          	j	15c4 <xputc+0x64>
    15a4:	100047b7          	lui	a5,0x10004
    15a8:	2ac7a783          	lw	a5,684(a5) # 100042ac <xfunc_out>
    15ac:	00078c63          	beqz	a5,15c4 <xputc+0x64>
    15b0:	100047b7          	lui	a5,0x10004
    15b4:	2ac7a703          	lw	a4,684(a5) # 100042ac <xfunc_out>
    15b8:	fef44783          	lbu	a5,-17(s0)
    15bc:	00078513          	mv	a0,a5
    15c0:	000700e7          	jalr	a4
    15c4:	01c12083          	lw	ra,28(sp)
    15c8:	01812403          	lw	s0,24(sp)
    15cc:	02010113          	addi	sp,sp,32
    15d0:	00008067          	ret

000015d4 <xputs>:
    15d4:	fe010113          	addi	sp,sp,-32
    15d8:	00112e23          	sw	ra,28(sp)
    15dc:	00812c23          	sw	s0,24(sp)
    15e0:	02010413          	addi	s0,sp,32
    15e4:	fea42623          	sw	a0,-20(s0)
    15e8:	01c0006f          	j	1604 <xputs+0x30>
    15ec:	fec42783          	lw	a5,-20(s0)
    15f0:	00178713          	addi	a4,a5,1
    15f4:	fee42623          	sw	a4,-20(s0)
    15f8:	0007c783          	lbu	a5,0(a5)
    15fc:	00078513          	mv	a0,a5
    1600:	f61ff0ef          	jal	ra,1560 <xputc>
    1604:	fec42783          	lw	a5,-20(s0)
    1608:	0007c783          	lbu	a5,0(a5)
    160c:	fe0790e3          	bnez	a5,15ec <xputs+0x18>
    1610:	00000013          	nop
    1614:	01c12083          	lw	ra,28(sp)
    1618:	01812403          	lw	s0,24(sp)
    161c:	02010113          	addi	sp,sp,32
    1620:	00008067          	ret

00001624 <xvprintf>:
    1624:	fb010113          	addi	sp,sp,-80
    1628:	04112623          	sw	ra,76(sp)
    162c:	04812423          	sw	s0,72(sp)
    1630:	05010413          	addi	s0,sp,80
    1634:	faa42e23          	sw	a0,-68(s0)
    1638:	fab42c23          	sw	a1,-72(s0)
    163c:	fbc42783          	lw	a5,-68(s0)
    1640:	00178713          	addi	a4,a5,1
    1644:	fae42e23          	sw	a4,-68(s0)
    1648:	0007c783          	lbu	a5,0(a5)
    164c:	fcf40ba3          	sb	a5,-41(s0)
    1650:	fd744783          	lbu	a5,-41(s0)
    1654:	42078e63          	beqz	a5,1a90 <xvprintf+0x46c>
    1658:	fd744703          	lbu	a4,-41(s0)
    165c:	02500793          	li	a5,37
    1660:	00f70a63          	beq	a4,a5,1674 <xvprintf+0x50>
    1664:	fd744783          	lbu	a5,-41(s0)
    1668:	00078513          	mv	a0,a5
    166c:	ef5ff0ef          	jal	ra,1560 <xputc>
    1670:	41c0006f          	j	1a8c <xvprintf+0x468>
    1674:	fc042e23          	sw	zero,-36(s0)
    1678:	fbc42783          	lw	a5,-68(s0)
    167c:	00178713          	addi	a4,a5,1
    1680:	fae42e23          	sw	a4,-68(s0)
    1684:	0007c783          	lbu	a5,0(a5)
    1688:	fcf40ba3          	sb	a5,-41(s0)
    168c:	fd744703          	lbu	a4,-41(s0)
    1690:	03000793          	li	a5,48
    1694:	02f71263          	bne	a4,a5,16b8 <xvprintf+0x94>
    1698:	00100793          	li	a5,1
    169c:	fcf42e23          	sw	a5,-36(s0)
    16a0:	fbc42783          	lw	a5,-68(s0)
    16a4:	00178713          	addi	a4,a5,1
    16a8:	fae42e23          	sw	a4,-68(s0)
    16ac:	0007c783          	lbu	a5,0(a5)
    16b0:	fcf40ba3          	sb	a5,-41(s0)
    16b4:	02c0006f          	j	16e0 <xvprintf+0xbc>
    16b8:	fd744703          	lbu	a4,-41(s0)
    16bc:	02d00793          	li	a5,45
    16c0:	02f71063          	bne	a4,a5,16e0 <xvprintf+0xbc>
    16c4:	00200793          	li	a5,2
    16c8:	fcf42e23          	sw	a5,-36(s0)
    16cc:	fbc42783          	lw	a5,-68(s0)
    16d0:	00178713          	addi	a4,a5,1
    16d4:	fae42e23          	sw	a4,-68(s0)
    16d8:	0007c783          	lbu	a5,0(a5)
    16dc:	fcf40ba3          	sb	a5,-41(s0)
    16e0:	fe042023          	sw	zero,-32(s0)
    16e4:	0400006f          	j	1724 <xvprintf+0x100>
    16e8:	fe042703          	lw	a4,-32(s0)
    16ec:	00070793          	mv	a5,a4
    16f0:	00279793          	slli	a5,a5,0x2
    16f4:	00e787b3          	add	a5,a5,a4
    16f8:	00179793          	slli	a5,a5,0x1
    16fc:	00078713          	mv	a4,a5
    1700:	fd744783          	lbu	a5,-41(s0)
    1704:	00f707b3          	add	a5,a4,a5
    1708:	fd078793          	addi	a5,a5,-48
    170c:	fef42023          	sw	a5,-32(s0)
    1710:	fbc42783          	lw	a5,-68(s0)
    1714:	00178713          	addi	a4,a5,1
    1718:	fae42e23          	sw	a4,-68(s0)
    171c:	0007c783          	lbu	a5,0(a5)
    1720:	fcf40ba3          	sb	a5,-41(s0)
    1724:	fd744703          	lbu	a4,-41(s0)
    1728:	02f00793          	li	a5,47
    172c:	00e7f863          	bgeu	a5,a4,173c <xvprintf+0x118>
    1730:	fd744703          	lbu	a4,-41(s0)
    1734:	03900793          	li	a5,57
    1738:	fae7f8e3          	bgeu	a5,a4,16e8 <xvprintf+0xc4>
    173c:	fd744703          	lbu	a4,-41(s0)
    1740:	06c00793          	li	a5,108
    1744:	00f70863          	beq	a4,a5,1754 <xvprintf+0x130>
    1748:	fd744703          	lbu	a4,-41(s0)
    174c:	04c00793          	li	a5,76
    1750:	02f71263          	bne	a4,a5,1774 <xvprintf+0x150>
    1754:	fdc42783          	lw	a5,-36(s0)
    1758:	0047e793          	ori	a5,a5,4
    175c:	fcf42e23          	sw	a5,-36(s0)
    1760:	fbc42783          	lw	a5,-68(s0)
    1764:	00178713          	addi	a4,a5,1
    1768:	fae42e23          	sw	a4,-68(s0)
    176c:	0007c783          	lbu	a5,0(a5)
    1770:	fcf40ba3          	sb	a5,-41(s0)
    1774:	fd744783          	lbu	a5,-41(s0)
    1778:	32078063          	beqz	a5,1a98 <xvprintf+0x474>
    177c:	fd744783          	lbu	a5,-41(s0)
    1780:	fcf40b23          	sb	a5,-42(s0)
    1784:	fd644703          	lbu	a4,-42(s0)
    1788:	06000793          	li	a5,96
    178c:	00e7f863          	bgeu	a5,a4,179c <xvprintf+0x178>
    1790:	fd644783          	lbu	a5,-42(s0)
    1794:	fe078793          	addi	a5,a5,-32
    1798:	fcf40b23          	sb	a5,-42(s0)
    179c:	fd644783          	lbu	a5,-42(s0)
    17a0:	fbe78793          	addi	a5,a5,-66
    17a4:	01600713          	li	a4,22
    17a8:	10f76063          	bltu	a4,a5,18a8 <xvprintf+0x284>
    17ac:	00279713          	slli	a4,a5,0x2
    17b0:	100047b7          	lui	a5,0x10004
    17b4:	10878793          	addi	a5,a5,264 # 10004108 <gImage_1+0xd14>
    17b8:	00f707b3          	add	a5,a4,a5
    17bc:	0007a783          	lw	a5,0(a5)
    17c0:	00078067          	jr	a5
    17c4:	fb842783          	lw	a5,-72(s0)
    17c8:	00478713          	addi	a4,a5,4
    17cc:	fae42c23          	sw	a4,-72(s0)
    17d0:	0007a783          	lw	a5,0(a5)
    17d4:	fcf42823          	sw	a5,-48(s0)
    17d8:	fe042223          	sw	zero,-28(s0)
    17dc:	0100006f          	j	17ec <xvprintf+0x1c8>
    17e0:	fe442783          	lw	a5,-28(s0)
    17e4:	00178793          	addi	a5,a5,1
    17e8:	fef42223          	sw	a5,-28(s0)
    17ec:	fd042703          	lw	a4,-48(s0)
    17f0:	fe442783          	lw	a5,-28(s0)
    17f4:	00f707b3          	add	a5,a4,a5
    17f8:	0007c783          	lbu	a5,0(a5)
    17fc:	fe0792e3          	bnez	a5,17e0 <xvprintf+0x1bc>
    1800:	00c0006f          	j	180c <xvprintf+0x1e8>
    1804:	02000513          	li	a0,32
    1808:	d59ff0ef          	jal	ra,1560 <xputc>
    180c:	fdc42783          	lw	a5,-36(s0)
    1810:	0027f793          	andi	a5,a5,2
    1814:	00079c63          	bnez	a5,182c <xvprintf+0x208>
    1818:	fe442783          	lw	a5,-28(s0)
    181c:	00178713          	addi	a4,a5,1
    1820:	fee42223          	sw	a4,-28(s0)
    1824:	fe042703          	lw	a4,-32(s0)
    1828:	fce7eee3          	bltu	a5,a4,1804 <xvprintf+0x1e0>
    182c:	fd042503          	lw	a0,-48(s0)
    1830:	da5ff0ef          	jal	ra,15d4 <xputs>
    1834:	00c0006f          	j	1840 <xvprintf+0x21c>
    1838:	02000513          	li	a0,32
    183c:	d25ff0ef          	jal	ra,1560 <xputc>
    1840:	fe442783          	lw	a5,-28(s0)
    1844:	00178713          	addi	a4,a5,1
    1848:	fee42223          	sw	a4,-28(s0)
    184c:	fe042703          	lw	a4,-32(s0)
    1850:	fee7e4e3          	bltu	a5,a4,1838 <xvprintf+0x214>
    1854:	2380006f          	j	1a8c <xvprintf+0x468>
    1858:	fb842783          	lw	a5,-72(s0)
    185c:	00478713          	addi	a4,a5,4
    1860:	fae42c23          	sw	a4,-72(s0)
    1864:	0007a783          	lw	a5,0(a5)
    1868:	0ff7f793          	andi	a5,a5,255
    186c:	00078513          	mv	a0,a5
    1870:	cf1ff0ef          	jal	ra,1560 <xputc>
    1874:	2180006f          	j	1a8c <xvprintf+0x468>
    1878:	00200793          	li	a5,2
    187c:	fef42623          	sw	a5,-20(s0)
    1880:	0380006f          	j	18b8 <xvprintf+0x294>
    1884:	00800793          	li	a5,8
    1888:	fef42623          	sw	a5,-20(s0)
    188c:	02c0006f          	j	18b8 <xvprintf+0x294>
    1890:	00a00793          	li	a5,10
    1894:	fef42623          	sw	a5,-20(s0)
    1898:	0200006f          	j	18b8 <xvprintf+0x294>
    189c:	01000793          	li	a5,16
    18a0:	fef42623          	sw	a5,-20(s0)
    18a4:	0140006f          	j	18b8 <xvprintf+0x294>
    18a8:	fd744783          	lbu	a5,-41(s0)
    18ac:	00078513          	mv	a0,a5
    18b0:	cb1ff0ef          	jal	ra,1560 <xputc>
    18b4:	1d80006f          	j	1a8c <xvprintf+0x468>
    18b8:	fdc42783          	lw	a5,-36(s0)
    18bc:	0047f793          	andi	a5,a5,4
    18c0:	00078c63          	beqz	a5,18d8 <xvprintf+0x2b4>
    18c4:	fb842783          	lw	a5,-72(s0)
    18c8:	00478713          	addi	a4,a5,4
    18cc:	fae42c23          	sw	a4,-72(s0)
    18d0:	0007a783          	lw	a5,0(a5)
    18d4:	0340006f          	j	1908 <xvprintf+0x2e4>
    18d8:	fd644703          	lbu	a4,-42(s0)
    18dc:	04400793          	li	a5,68
    18e0:	00f71c63          	bne	a4,a5,18f8 <xvprintf+0x2d4>
    18e4:	fb842783          	lw	a5,-72(s0)
    18e8:	00478713          	addi	a4,a5,4
    18ec:	fae42c23          	sw	a4,-72(s0)
    18f0:	0007a783          	lw	a5,0(a5)
    18f4:	0140006f          	j	1908 <xvprintf+0x2e4>
    18f8:	fb842783          	lw	a5,-72(s0)
    18fc:	00478713          	addi	a4,a5,4
    1900:	fae42c23          	sw	a4,-72(s0)
    1904:	0007a783          	lw	a5,0(a5)
    1908:	fcf42c23          	sw	a5,-40(s0)
    190c:	fd644703          	lbu	a4,-42(s0)
    1910:	04400793          	li	a5,68
    1914:	02f71263          	bne	a4,a5,1938 <xvprintf+0x314>
    1918:	fd842783          	lw	a5,-40(s0)
    191c:	0007de63          	bgez	a5,1938 <xvprintf+0x314>
    1920:	fd842783          	lw	a5,-40(s0)
    1924:	40f007b3          	neg	a5,a5
    1928:	fcf42c23          	sw	a5,-40(s0)
    192c:	fdc42783          	lw	a5,-36(s0)
    1930:	0087e793          	ori	a5,a5,8
    1934:	fcf42e23          	sw	a5,-36(s0)
    1938:	fe042423          	sw	zero,-24(s0)
    193c:	fd842703          	lw	a4,-40(s0)
    1940:	fec42783          	lw	a5,-20(s0)
    1944:	02f777b3          	remu	a5,a4,a5
    1948:	fcf40b23          	sb	a5,-42(s0)
    194c:	fd842703          	lw	a4,-40(s0)
    1950:	fec42783          	lw	a5,-20(s0)
    1954:	02f757b3          	divu	a5,a4,a5
    1958:	fcf42c23          	sw	a5,-40(s0)
    195c:	fd644703          	lbu	a4,-42(s0)
    1960:	00900793          	li	a5,9
    1964:	02e7f463          	bgeu	a5,a4,198c <xvprintf+0x368>
    1968:	fd744703          	lbu	a4,-41(s0)
    196c:	07800793          	li	a5,120
    1970:	00f71663          	bne	a4,a5,197c <xvprintf+0x358>
    1974:	02700793          	li	a5,39
    1978:	0080006f          	j	1980 <xvprintf+0x35c>
    197c:	00700793          	li	a5,7
    1980:	fd644703          	lbu	a4,-42(s0)
    1984:	00e787b3          	add	a5,a5,a4
    1988:	fcf40b23          	sb	a5,-42(s0)
    198c:	fe842783          	lw	a5,-24(s0)
    1990:	00178713          	addi	a4,a5,1
    1994:	fee42423          	sw	a4,-24(s0)
    1998:	fd644703          	lbu	a4,-42(s0)
    199c:	03070713          	addi	a4,a4,48
    19a0:	0ff77713          	andi	a4,a4,255
    19a4:	ff040693          	addi	a3,s0,-16
    19a8:	00f687b3          	add	a5,a3,a5
    19ac:	fce78823          	sb	a4,-48(a5)
    19b0:	fd842783          	lw	a5,-40(s0)
    19b4:	00078863          	beqz	a5,19c4 <xvprintf+0x3a0>
    19b8:	fe842703          	lw	a4,-24(s0)
    19bc:	00f00793          	li	a5,15
    19c0:	f6e7fee3          	bgeu	a5,a4,193c <xvprintf+0x318>
    19c4:	fdc42783          	lw	a5,-36(s0)
    19c8:	0087f793          	andi	a5,a5,8
    19cc:	02078063          	beqz	a5,19ec <xvprintf+0x3c8>
    19d0:	fe842783          	lw	a5,-24(s0)
    19d4:	00178713          	addi	a4,a5,1
    19d8:	fee42423          	sw	a4,-24(s0)
    19dc:	ff040713          	addi	a4,s0,-16
    19e0:	00f707b3          	add	a5,a4,a5
    19e4:	02d00713          	li	a4,45
    19e8:	fce78823          	sb	a4,-48(a5)
    19ec:	fe842783          	lw	a5,-24(s0)
    19f0:	fef42223          	sw	a5,-28(s0)
    19f4:	fdc42783          	lw	a5,-36(s0)
    19f8:	0017f793          	andi	a5,a5,1
    19fc:	00078663          	beqz	a5,1a08 <xvprintf+0x3e4>
    1a00:	03000793          	li	a5,48
    1a04:	0080006f          	j	1a0c <xvprintf+0x3e8>
    1a08:	02000793          	li	a5,32
    1a0c:	fcf40b23          	sb	a5,-42(s0)
    1a10:	0100006f          	j	1a20 <xvprintf+0x3fc>
    1a14:	fd644783          	lbu	a5,-42(s0)
    1a18:	00078513          	mv	a0,a5
    1a1c:	b45ff0ef          	jal	ra,1560 <xputc>
    1a20:	fdc42783          	lw	a5,-36(s0)
    1a24:	0027f793          	andi	a5,a5,2
    1a28:	00079c63          	bnez	a5,1a40 <xvprintf+0x41c>
    1a2c:	fe442783          	lw	a5,-28(s0)
    1a30:	00178713          	addi	a4,a5,1
    1a34:	fee42223          	sw	a4,-28(s0)
    1a38:	fe042703          	lw	a4,-32(s0)
    1a3c:	fce7ece3          	bltu	a5,a4,1a14 <xvprintf+0x3f0>
    1a40:	fe842783          	lw	a5,-24(s0)
    1a44:	fff78793          	addi	a5,a5,-1
    1a48:	fef42423          	sw	a5,-24(s0)
    1a4c:	fe842783          	lw	a5,-24(s0)
    1a50:	ff040713          	addi	a4,s0,-16
    1a54:	00f707b3          	add	a5,a4,a5
    1a58:	fd07c783          	lbu	a5,-48(a5)
    1a5c:	00078513          	mv	a0,a5
    1a60:	b01ff0ef          	jal	ra,1560 <xputc>
    1a64:	fe842783          	lw	a5,-24(s0)
    1a68:	fc079ce3          	bnez	a5,1a40 <xvprintf+0x41c>
    1a6c:	00c0006f          	j	1a78 <xvprintf+0x454>
    1a70:	02000513          	li	a0,32
    1a74:	aedff0ef          	jal	ra,1560 <xputc>
    1a78:	fe442783          	lw	a5,-28(s0)
    1a7c:	00178713          	addi	a4,a5,1
    1a80:	fee42223          	sw	a4,-28(s0)
    1a84:	fe042703          	lw	a4,-32(s0)
    1a88:	fee7e4e3          	bltu	a5,a4,1a70 <xvprintf+0x44c>
    1a8c:	bb1ff06f          	j	163c <xvprintf+0x18>
    1a90:	00000013          	nop
    1a94:	0080006f          	j	1a9c <xvprintf+0x478>
    1a98:	00000013          	nop
    1a9c:	00000013          	nop
    1aa0:	04c12083          	lw	ra,76(sp)
    1aa4:	04812403          	lw	s0,72(sp)
    1aa8:	05010113          	addi	sp,sp,80
    1aac:	00008067          	ret

00001ab0 <xprintf>:
    1ab0:	fb010113          	addi	sp,sp,-80
    1ab4:	02112623          	sw	ra,44(sp)
    1ab8:	02812423          	sw	s0,40(sp)
    1abc:	03010413          	addi	s0,sp,48
    1ac0:	fca42e23          	sw	a0,-36(s0)
    1ac4:	00b42223          	sw	a1,4(s0)
    1ac8:	00c42423          	sw	a2,8(s0)
    1acc:	00d42623          	sw	a3,12(s0)
    1ad0:	00e42823          	sw	a4,16(s0)
    1ad4:	00f42a23          	sw	a5,20(s0)
    1ad8:	01042c23          	sw	a6,24(s0)
    1adc:	01142e23          	sw	a7,28(s0)
    1ae0:	02040793          	addi	a5,s0,32
    1ae4:	fe478793          	addi	a5,a5,-28
    1ae8:	fef42623          	sw	a5,-20(s0)
    1aec:	fec42783          	lw	a5,-20(s0)
    1af0:	00078593          	mv	a1,a5
    1af4:	fdc42503          	lw	a0,-36(s0)
    1af8:	b2dff0ef          	jal	ra,1624 <xvprintf>
    1afc:	00000013          	nop
    1b00:	02c12083          	lw	ra,44(sp)
    1b04:	02812403          	lw	s0,40(sp)
    1b08:	05010113          	addi	sp,sp,80
    1b0c:	00008067          	ret

00001b10 <uart_putc>:
    1b10:	fe010113          	addi	sp,sp,-32
    1b14:	00812e23          	sw	s0,28(sp)
    1b18:	02010413          	addi	s0,sp,32
    1b1c:	00050793          	mv	a5,a0
    1b20:	fef407a3          	sb	a5,-17(s0)
    1b24:	00000013          	nop
    1b28:	300007b7          	lui	a5,0x30000
    1b2c:	00478793          	addi	a5,a5,4 # 30000004 <__freertos_irq_stack_top+0x1fff8004>
    1b30:	0007a783          	lw	a5,0(a5)
    1b34:	0017f793          	andi	a5,a5,1
    1b38:	fe0798e3          	bnez	a5,1b28 <uart_putc+0x18>
    1b3c:	300007b7          	lui	a5,0x30000
    1b40:	00c78793          	addi	a5,a5,12 # 3000000c <__freertos_irq_stack_top+0x1fff800c>
    1b44:	fef44703          	lbu	a4,-17(s0)
    1b48:	00e7a023          	sw	a4,0(a5)
    1b4c:	00000013          	nop
    1b50:	01c12403          	lw	s0,28(sp)
    1b54:	02010113          	addi	sp,sp,32
    1b58:	00008067          	ret

00001b5c <uart_init>:
    1b5c:	ff010113          	addi	sp,sp,-16
    1b60:	00812623          	sw	s0,12(sp)
    1b64:	01010413          	addi	s0,sp,16
    1b68:	300007b7          	lui	a5,0x30000
    1b6c:	00300713          	li	a4,3
    1b70:	00e7a023          	sw	a4,0(a5) # 30000000 <__freertos_irq_stack_top+0x1fff8000>
    1b74:	100047b7          	lui	a5,0x10004
    1b78:	00002737          	lui	a4,0x2
    1b7c:	b1070713          	addi	a4,a4,-1264 # 1b10 <uart_putc>
    1b80:	2ae7a623          	sw	a4,684(a5) # 100042ac <xfunc_out>
    1b84:	00000013          	nop
    1b88:	00c12403          	lw	s0,12(sp)
    1b8c:	01010113          	addi	sp,sp,16
    1b90:	00008067          	ret

00001b94 <spi_init>:
    1b94:	ff010113          	addi	sp,sp,-16
    1b98:	00812623          	sw	s0,12(sp)
    1b9c:	01010413          	addi	s0,sp,16
    1ba0:	500007b7          	lui	a5,0x50000
    1ba4:	00600713          	li	a4,6
    1ba8:	00e7a023          	sw	a4,0(a5) # 50000000 <__freertos_irq_stack_top+0x3fff8000>
    1bac:	00000013          	nop
    1bb0:	00c12403          	lw	s0,12(sp)
    1bb4:	01010113          	addi	sp,sp,16
    1bb8:	00008067          	ret

00001bbc <spi_write_byte>:
    1bbc:	fe010113          	addi	sp,sp,-32
    1bc0:	00812e23          	sw	s0,28(sp)
    1bc4:	02010413          	addi	s0,sp,32
    1bc8:	00050793          	mv	a5,a0
    1bcc:	fef407a3          	sb	a5,-17(s0)
    1bd0:	500007b7          	lui	a5,0x50000
    1bd4:	00478793          	addi	a5,a5,4 # 50000004 <__freertos_irq_stack_top+0x3fff8004>
    1bd8:	fef44703          	lbu	a4,-17(s0)
    1bdc:	00e7a023          	sw	a4,0(a5)
    1be0:	500007b7          	lui	a5,0x50000
    1be4:	0007a703          	lw	a4,0(a5) # 50000000 <__freertos_irq_stack_top+0x3fff8000>
    1be8:	500007b7          	lui	a5,0x50000
    1bec:	00176713          	ori	a4,a4,1
    1bf0:	00e7a023          	sw	a4,0(a5) # 50000000 <__freertos_irq_stack_top+0x3fff8000>
    1bf4:	00000013          	nop
    1bf8:	500007b7          	lui	a5,0x50000
    1bfc:	00878793          	addi	a5,a5,8 # 50000008 <__freertos_irq_stack_top+0x3fff8008>
    1c00:	0007a783          	lw	a5,0(a5)
    1c04:	0017f793          	andi	a5,a5,1
    1c08:	fe0798e3          	bnez	a5,1bf8 <spi_write_byte+0x3c>
    1c0c:	00000013          	nop
    1c10:	01c12403          	lw	s0,28(sp)
    1c14:	02010113          	addi	sp,sp,32
    1c18:	00008067          	ret

00001c1c <__adddf3>:
    1c1c:	00100837          	lui	a6,0x100
    1c20:	fe010113          	addi	sp,sp,-32
    1c24:	fff80813          	addi	a6,a6,-1 # fffff <_data_lma+0xfd3ef>
    1c28:	00b87733          	and	a4,a6,a1
    1c2c:	00912a23          	sw	s1,20(sp)
    1c30:	00d87833          	and	a6,a6,a3
    1c34:	0145d493          	srli	s1,a1,0x14
    1c38:	0146d313          	srli	t1,a3,0x14
    1c3c:	00371e13          	slli	t3,a4,0x3
    1c40:	01312623          	sw	s3,12(sp)
    1c44:	01d55713          	srli	a4,a0,0x1d
    1c48:	00381813          	slli	a6,a6,0x3
    1c4c:	01d65793          	srli	a5,a2,0x1d
    1c50:	7ff4f493          	andi	s1,s1,2047
    1c54:	7ff37313          	andi	t1,t1,2047
    1c58:	00112e23          	sw	ra,28(sp)
    1c5c:	00812c23          	sw	s0,24(sp)
    1c60:	01212823          	sw	s2,16(sp)
    1c64:	01f5d993          	srli	s3,a1,0x1f
    1c68:	01f6de93          	srli	t4,a3,0x1f
    1c6c:	01c76733          	or	a4,a4,t3
    1c70:	00351f13          	slli	t5,a0,0x3
    1c74:	0107e833          	or	a6,a5,a6
    1c78:	00361f93          	slli	t6,a2,0x3
    1c7c:	40648e33          	sub	t3,s1,t1
    1c80:	1dd98463          	beq	s3,t4,1e48 <__adddf3+0x22c>
    1c84:	17c05863          	blez	t3,1df4 <__adddf3+0x1d8>
    1c88:	20030a63          	beqz	t1,1e9c <__adddf3+0x280>
    1c8c:	008006b7          	lui	a3,0x800
    1c90:	7ff00793          	li	a5,2047
    1c94:	00d86833          	or	a6,a6,a3
    1c98:	40f48e63          	beq	s1,a5,20b4 <__stack_size+0xb4>
    1c9c:	03800793          	li	a5,56
    1ca0:	3dc7ca63          	blt	a5,t3,2074 <__stack_size+0x74>
    1ca4:	01f00793          	li	a5,31
    1ca8:	55c7c663          	blt	a5,t3,21f4 <__stack_size+0x1f4>
    1cac:	02000513          	li	a0,32
    1cb0:	41c50533          	sub	a0,a0,t3
    1cb4:	01cfd7b3          	srl	a5,t6,t3
    1cb8:	00a816b3          	sll	a3,a6,a0
    1cbc:	00af9933          	sll	s2,t6,a0
    1cc0:	00f6e6b3          	or	a3,a3,a5
    1cc4:	01203933          	snez	s2,s2
    1cc8:	01c857b3          	srl	a5,a6,t3
    1ccc:	0126e933          	or	s2,a3,s2
    1cd0:	40f70733          	sub	a4,a4,a5
    1cd4:	412f0933          	sub	s2,t5,s2
    1cd8:	012f37b3          	sltu	a5,t5,s2
    1cdc:	40f70633          	sub	a2,a4,a5
    1ce0:	00861793          	slli	a5,a2,0x8
    1ce4:	2a07d263          	bgez	a5,1f88 <__adddf3+0x36c>
    1ce8:	00800737          	lui	a4,0x800
    1cec:	fff70713          	addi	a4,a4,-1 # 7fffff <_data_lma+0x7fd3ef>
    1cf0:	00e67433          	and	s0,a2,a4
    1cf4:	34040e63          	beqz	s0,2050 <__stack_size+0x50>
    1cf8:	00040513          	mv	a0,s0
    1cfc:	681000ef          	jal	ra,2b7c <__clzsi2>
    1d00:	ff850713          	addi	a4,a0,-8
    1d04:	02000793          	li	a5,32
    1d08:	40e787b3          	sub	a5,a5,a4
    1d0c:	00f957b3          	srl	a5,s2,a5
    1d10:	00e41633          	sll	a2,s0,a4
    1d14:	00c7e7b3          	or	a5,a5,a2
    1d18:	00e91933          	sll	s2,s2,a4
    1d1c:	30974c63          	blt	a4,s1,2034 <__stack_size+0x34>
    1d20:	40970533          	sub	a0,a4,s1
    1d24:	00150613          	addi	a2,a0,1
    1d28:	01f00713          	li	a4,31
    1d2c:	44c74663          	blt	a4,a2,2178 <__stack_size+0x178>
    1d30:	02000713          	li	a4,32
    1d34:	40c70733          	sub	a4,a4,a2
    1d38:	00c956b3          	srl	a3,s2,a2
    1d3c:	00e91933          	sll	s2,s2,a4
    1d40:	00e79733          	sll	a4,a5,a4
    1d44:	00d76733          	or	a4,a4,a3
    1d48:	01203933          	snez	s2,s2
    1d4c:	01276933          	or	s2,a4,s2
    1d50:	00c7d633          	srl	a2,a5,a2
    1d54:	00000493          	li	s1,0
    1d58:	00797793          	andi	a5,s2,7
    1d5c:	02078063          	beqz	a5,1d7c <__adddf3+0x160>
    1d60:	00f97713          	andi	a4,s2,15
    1d64:	00400793          	li	a5,4
    1d68:	00f70a63          	beq	a4,a5,1d7c <__adddf3+0x160>
    1d6c:	00490713          	addi	a4,s2,4
    1d70:	01273933          	sltu	s2,a4,s2
    1d74:	01260633          	add	a2,a2,s2
    1d78:	00070913          	mv	s2,a4
    1d7c:	00861793          	slli	a5,a2,0x8
    1d80:	2007d863          	bgez	a5,1f90 <__adddf3+0x374>
    1d84:	00148513          	addi	a0,s1,1
    1d88:	7ff00793          	li	a5,2047
    1d8c:	00098593          	mv	a1,s3
    1d90:	24f50c63          	beq	a0,a5,1fe8 <__adddf3+0x3cc>
    1d94:	ff8007b7          	lui	a5,0xff800
    1d98:	fff78793          	addi	a5,a5,-1 # ff7fffff <__freertos_irq_stack_top+0xef7f7fff>
    1d9c:	00f677b3          	and	a5,a2,a5
    1da0:	01d79893          	slli	a7,a5,0x1d
    1da4:	00395913          	srli	s2,s2,0x3
    1da8:	00979793          	slli	a5,a5,0x9
    1dac:	0128e8b3          	or	a7,a7,s2
    1db0:	00c7d793          	srli	a5,a5,0xc
    1db4:	7ff57513          	andi	a0,a0,2047
    1db8:	00c79693          	slli	a3,a5,0xc
    1dbc:	01451513          	slli	a0,a0,0x14
    1dc0:	01c12083          	lw	ra,28(sp)
    1dc4:	01812403          	lw	s0,24(sp)
    1dc8:	00c6d693          	srli	a3,a3,0xc
    1dcc:	01f59593          	slli	a1,a1,0x1f
    1dd0:	00a6e6b3          	or	a3,a3,a0
    1dd4:	00b6e6b3          	or	a3,a3,a1
    1dd8:	01412483          	lw	s1,20(sp)
    1ddc:	01012903          	lw	s2,16(sp)
    1de0:	00c12983          	lw	s3,12(sp)
    1de4:	00088513          	mv	a0,a7
    1de8:	00068593          	mv	a1,a3
    1dec:	02010113          	addi	sp,sp,32
    1df0:	00008067          	ret
    1df4:	0c0e1463          	bnez	t3,1ebc <__adddf3+0x2a0>
    1df8:	00148313          	addi	t1,s1,1
    1dfc:	7fe37313          	andi	t1,t1,2046
    1e00:	28031063          	bnez	t1,2080 <__stack_size+0x80>
    1e04:	01e767b3          	or	a5,a4,t5
    1e08:	01f868b3          	or	a7,a6,t6
    1e0c:	1e049663          	bnez	s1,1ff8 <__adddf3+0x3dc>
    1e10:	4c078063          	beqz	a5,22d0 <__stack_size+0x2d0>
    1e14:	50088863          	beqz	a7,2324 <__stack_size+0x324>
    1e18:	41ff0933          	sub	s2,t5,t6
    1e1c:	410707b3          	sub	a5,a4,a6
    1e20:	012f3633          	sltu	a2,t5,s2
    1e24:	40c78633          	sub	a2,a5,a2
    1e28:	00861793          	slli	a5,a2,0x8
    1e2c:	5a07d463          	bgez	a5,23d4 <__stack_size+0x3d4>
    1e30:	41ef8933          	sub	s2,t6,t5
    1e34:	40e807b3          	sub	a5,a6,a4
    1e38:	012fb633          	sltu	a2,t6,s2
    1e3c:	40c78633          	sub	a2,a5,a2
    1e40:	000e8993          	mv	s3,t4
    1e44:	f15ff06f          	j	1d58 <__adddf3+0x13c>
    1e48:	0fc05a63          	blez	t3,1f3c <__adddf3+0x320>
    1e4c:	0c030863          	beqz	t1,1f1c <__adddf3+0x300>
    1e50:	008006b7          	lui	a3,0x800
    1e54:	7ff00793          	li	a5,2047
    1e58:	00d86833          	or	a6,a6,a3
    1e5c:	44f48e63          	beq	s1,a5,22b8 <__stack_size+0x2b8>
    1e60:	03800793          	li	a5,56
    1e64:	15c7cc63          	blt	a5,t3,1fbc <__adddf3+0x3a0>
    1e68:	01f00793          	li	a5,31
    1e6c:	3fc7da63          	bge	a5,t3,2260 <__stack_size+0x260>
    1e70:	fe0e0913          	addi	s2,t3,-32
    1e74:	02000793          	li	a5,32
    1e78:	012856b3          	srl	a3,a6,s2
    1e7c:	00fe0a63          	beq	t3,a5,1e90 <__adddf3+0x274>
    1e80:	04000913          	li	s2,64
    1e84:	41c90933          	sub	s2,s2,t3
    1e88:	01281933          	sll	s2,a6,s2
    1e8c:	012fefb3          	or	t6,t6,s2
    1e90:	01f03933          	snez	s2,t6
    1e94:	00d96933          	or	s2,s2,a3
    1e98:	12c0006f          	j	1fc4 <__adddf3+0x3a8>
    1e9c:	01f867b3          	or	a5,a6,t6
    1ea0:	22078663          	beqz	a5,20cc <__stack_size+0xcc>
    1ea4:	fffe0793          	addi	a5,t3,-1
    1ea8:	44078463          	beqz	a5,22f0 <__stack_size+0x2f0>
    1eac:	7ff00693          	li	a3,2047
    1eb0:	20de0263          	beq	t3,a3,20b4 <__stack_size+0xb4>
    1eb4:	00078e13          	mv	t3,a5
    1eb8:	de5ff06f          	j	1c9c <__adddf3+0x80>
    1ebc:	409305b3          	sub	a1,t1,s1
    1ec0:	28049663          	bnez	s1,214c <__stack_size+0x14c>
    1ec4:	01e767b3          	or	a5,a4,t5
    1ec8:	3c078263          	beqz	a5,228c <__stack_size+0x28c>
    1ecc:	fff58793          	addi	a5,a1,-1
    1ed0:	50078c63          	beqz	a5,23e8 <__stack_size+0x3e8>
    1ed4:	7ff00693          	li	a3,2047
    1ed8:	28d58263          	beq	a1,a3,215c <__stack_size+0x15c>
    1edc:	00078593          	mv	a1,a5
    1ee0:	03800793          	li	a5,56
    1ee4:	32b7ce63          	blt	a5,a1,2220 <__stack_size+0x220>
    1ee8:	01f00793          	li	a5,31
    1eec:	4ab7c263          	blt	a5,a1,2390 <__stack_size+0x390>
    1ef0:	02000793          	li	a5,32
    1ef4:	40b787b3          	sub	a5,a5,a1
    1ef8:	00f71933          	sll	s2,a4,a5
    1efc:	00bf56b3          	srl	a3,t5,a1
    1f00:	00ff17b3          	sll	a5,t5,a5
    1f04:	00d96933          	or	s2,s2,a3
    1f08:	00f037b3          	snez	a5,a5
    1f0c:	00b75733          	srl	a4,a4,a1
    1f10:	00f96933          	or	s2,s2,a5
    1f14:	40e80833          	sub	a6,a6,a4
    1f18:	3100006f          	j	2228 <__stack_size+0x228>
    1f1c:	01f867b3          	or	a5,a6,t6
    1f20:	3e078463          	beqz	a5,2308 <__stack_size+0x308>
    1f24:	fffe0793          	addi	a5,t3,-1
    1f28:	28078263          	beqz	a5,21ac <__stack_size+0x1ac>
    1f2c:	7ff00693          	li	a3,2047
    1f30:	38de0463          	beq	t3,a3,22b8 <__stack_size+0x2b8>
    1f34:	00078e13          	mv	t3,a5
    1f38:	f29ff06f          	j	1e60 <__adddf3+0x244>
    1f3c:	1a0e1663          	bnez	t3,20e8 <__stack_size+0xe8>
    1f40:	00148693          	addi	a3,s1,1
    1f44:	7fe6f793          	andi	a5,a3,2046
    1f48:	3e079a63          	bnez	a5,233c <__stack_size+0x33c>
    1f4c:	01e767b3          	or	a5,a4,t5
    1f50:	34049e63          	bnez	s1,22ac <__stack_size+0x2ac>
    1f54:	4a078863          	beqz	a5,2404 <__stack_size+0x404>
    1f58:	01f867b3          	or	a5,a6,t6
    1f5c:	3c078463          	beqz	a5,2324 <__stack_size+0x324>
    1f60:	01ff0933          	add	s2,t5,t6
    1f64:	010707b3          	add	a5,a4,a6
    1f68:	01e93f33          	sltu	t5,s2,t5
    1f6c:	01e78633          	add	a2,a5,t5
    1f70:	00861793          	slli	a5,a2,0x8
    1f74:	0007da63          	bgez	a5,1f88 <__adddf3+0x36c>
    1f78:	ff8007b7          	lui	a5,0xff800
    1f7c:	fff78793          	addi	a5,a5,-1 # ff7fffff <__freertos_irq_stack_top+0xef7f7fff>
    1f80:	00f67633          	and	a2,a2,a5
    1f84:	00100493          	li	s1,1
    1f88:	00797793          	andi	a5,s2,7
    1f8c:	dc079ae3          	bnez	a5,1d60 <__adddf3+0x144>
    1f90:	01d61793          	slli	a5,a2,0x1d
    1f94:	00395893          	srli	a7,s2,0x3
    1f98:	00f8e8b3          	or	a7,a7,a5
    1f9c:	00365793          	srli	a5,a2,0x3
    1fa0:	7ff00713          	li	a4,2047
    1fa4:	06e48a63          	beq	s1,a4,2018 <__stack_size+0x18>
    1fa8:	00c79793          	slli	a5,a5,0xc
    1fac:	00c7d793          	srli	a5,a5,0xc
    1fb0:	7ff4f513          	andi	a0,s1,2047
    1fb4:	00098593          	mv	a1,s3
    1fb8:	e01ff06f          	j	1db8 <__adddf3+0x19c>
    1fbc:	01f86933          	or	s2,a6,t6
    1fc0:	01203933          	snez	s2,s2
    1fc4:	01e90933          	add	s2,s2,t5
    1fc8:	01e937b3          	sltu	a5,s2,t5
    1fcc:	00e78633          	add	a2,a5,a4
    1fd0:	00861793          	slli	a5,a2,0x8
    1fd4:	fa07dae3          	bgez	a5,1f88 <__adddf3+0x36c>
    1fd8:	00148493          	addi	s1,s1,1
    1fdc:	7ff00793          	li	a5,2047
    1fe0:	1ef49663          	bne	s1,a5,21cc <__stack_size+0x1cc>
    1fe4:	00098593          	mv	a1,s3
    1fe8:	7ff00513          	li	a0,2047
    1fec:	00000793          	li	a5,0
    1ff0:	00000893          	li	a7,0
    1ff4:	dc5ff06f          	j	1db8 <__adddf3+0x19c>
    1ff8:	0a079c63          	bnez	a5,20b0 <__stack_size+0xb0>
    1ffc:	46088463          	beqz	a7,2464 <__stack_size+0x464>
    2000:	00361693          	slli	a3,a2,0x3
    2004:	01d81793          	slli	a5,a6,0x1d
    2008:	0036d693          	srli	a3,a3,0x3
    200c:	00d7e8b3          	or	a7,a5,a3
    2010:	000e8993          	mv	s3,t4
    2014:	00385793          	srli	a5,a6,0x3
    2018:	00f8e7b3          	or	a5,a7,a5
    201c:	fc0784e3          	beqz	a5,1fe4 <__adddf3+0x3c8>
    2020:	00000593          	li	a1,0
    2024:	7ff00513          	li	a0,2047
    2028:	000807b7          	lui	a5,0x80
    202c:	00000893          	li	a7,0
    2030:	d89ff06f          	j	1db8 <__adddf3+0x19c>
    2034:	ff800637          	lui	a2,0xff800
    2038:	fff60613          	addi	a2,a2,-1 # ff7fffff <__freertos_irq_stack_top+0xef7f7fff>
    203c:	00c7f633          	and	a2,a5,a2
    2040:	00797793          	andi	a5,s2,7
    2044:	40e484b3          	sub	s1,s1,a4
    2048:	d0079ce3          	bnez	a5,1d60 <__adddf3+0x144>
    204c:	f45ff06f          	j	1f90 <__adddf3+0x374>
    2050:	00090513          	mv	a0,s2
    2054:	329000ef          	jal	ra,2b7c <__clzsi2>
    2058:	01850713          	addi	a4,a0,24
    205c:	01f00793          	li	a5,31
    2060:	cae7d2e3          	bge	a5,a4,1d04 <__adddf3+0xe8>
    2064:	ff850613          	addi	a2,a0,-8
    2068:	00c917b3          	sll	a5,s2,a2
    206c:	00000913          	li	s2,0
    2070:	cadff06f          	j	1d1c <__adddf3+0x100>
    2074:	01f86933          	or	s2,a6,t6
    2078:	01203933          	snez	s2,s2
    207c:	c59ff06f          	j	1cd4 <__adddf3+0xb8>
    2080:	41ff0933          	sub	s2,t5,t6
    2084:	41070633          	sub	a2,a4,a6
    2088:	012f3433          	sltu	s0,t5,s2
    208c:	40860433          	sub	s0,a2,s0
    2090:	00841793          	slli	a5,s0,0x8
    2094:	2c07cc63          	bltz	a5,236c <__stack_size+0x36c>
    2098:	008968b3          	or	a7,s2,s0
    209c:	c4089ce3          	bnez	a7,1cf4 <__adddf3+0xd8>
    20a0:	00000793          	li	a5,0
    20a4:	00000993          	li	s3,0
    20a8:	00000493          	li	s1,0
    20ac:	efdff06f          	j	1fa8 <__adddf3+0x38c>
    20b0:	f60898e3          	bnez	a7,2020 <__stack_size+0x20>
    20b4:	00351513          	slli	a0,a0,0x3
    20b8:	01d71793          	slli	a5,a4,0x1d
    20bc:	00355513          	srli	a0,a0,0x3
    20c0:	00a7e8b3          	or	a7,a5,a0
    20c4:	00375793          	srli	a5,a4,0x3
    20c8:	f51ff06f          	j	2018 <__stack_size+0x18>
    20cc:	00351513          	slli	a0,a0,0x3
    20d0:	01d71793          	slli	a5,a4,0x1d
    20d4:	00355513          	srli	a0,a0,0x3
    20d8:	00a7e8b3          	or	a7,a5,a0
    20dc:	000e0493          	mv	s1,t3
    20e0:	00375793          	srli	a5,a4,0x3
    20e4:	ebdff06f          	j	1fa0 <__adddf3+0x384>
    20e8:	40930533          	sub	a0,t1,s1
    20ec:	14048a63          	beqz	s1,2240 <__stack_size+0x240>
    20f0:	008006b7          	lui	a3,0x800
    20f4:	7ff00793          	li	a5,2047
    20f8:	00d76733          	or	a4,a4,a3
    20fc:	38f30663          	beq	t1,a5,2488 <__stack_size+0x488>
    2100:	03800793          	li	a5,56
    2104:	28a7c063          	blt	a5,a0,2384 <__stack_size+0x384>
    2108:	01f00793          	li	a5,31
    210c:	32a7c663          	blt	a5,a0,2438 <__stack_size+0x438>
    2110:	02000793          	li	a5,32
    2114:	40a787b3          	sub	a5,a5,a0
    2118:	00f71933          	sll	s2,a4,a5
    211c:	00af56b3          	srl	a3,t5,a0
    2120:	00ff17b3          	sll	a5,t5,a5
    2124:	00d96933          	or	s2,s2,a3
    2128:	00f037b3          	snez	a5,a5
    212c:	00a75733          	srl	a4,a4,a0
    2130:	00f96933          	or	s2,s2,a5
    2134:	00e80833          	add	a6,a6,a4
    2138:	01f90933          	add	s2,s2,t6
    213c:	01f937b3          	sltu	a5,s2,t6
    2140:	01078633          	add	a2,a5,a6
    2144:	00030493          	mv	s1,t1
    2148:	e89ff06f          	j	1fd0 <__adddf3+0x3b4>
    214c:	008006b7          	lui	a3,0x800
    2150:	7ff00793          	li	a5,2047
    2154:	00d76733          	or	a4,a4,a3
    2158:	d8f314e3          	bne	t1,a5,1ee0 <__adddf3+0x2c4>
    215c:	00361793          	slli	a5,a2,0x3
    2160:	0037d793          	srli	a5,a5,0x3
    2164:	01d81893          	slli	a7,a6,0x1d
    2168:	0117e8b3          	or	a7,a5,a7
    216c:	000e8993          	mv	s3,t4
    2170:	00385793          	srli	a5,a6,0x3
    2174:	ea5ff06f          	j	2018 <__stack_size+0x18>
    2178:	fe150713          	addi	a4,a0,-31
    217c:	02000693          	li	a3,32
    2180:	00e7d733          	srl	a4,a5,a4
    2184:	00d60a63          	beq	a2,a3,2198 <__stack_size+0x198>
    2188:	04000693          	li	a3,64
    218c:	40c68633          	sub	a2,a3,a2
    2190:	00c79633          	sll	a2,a5,a2
    2194:	00c96933          	or	s2,s2,a2
    2198:	01203933          	snez	s2,s2
    219c:	00e96933          	or	s2,s2,a4
    21a0:	00000613          	li	a2,0
    21a4:	00000493          	li	s1,0
    21a8:	de1ff06f          	j	1f88 <__adddf3+0x36c>
    21ac:	01ff0933          	add	s2,t5,t6
    21b0:	010707b3          	add	a5,a4,a6
    21b4:	01e93633          	sltu	a2,s2,t5
    21b8:	00c78633          	add	a2,a5,a2
    21bc:	00861793          	slli	a5,a2,0x8
    21c0:	00100493          	li	s1,1
    21c4:	dc07d2e3          	bgez	a5,1f88 <__adddf3+0x36c>
    21c8:	00200493          	li	s1,2
    21cc:	ff8007b7          	lui	a5,0xff800
    21d0:	fff78793          	addi	a5,a5,-1 # ff7fffff <__freertos_irq_stack_top+0xef7f7fff>
    21d4:	00f677b3          	and	a5,a2,a5
    21d8:	00195713          	srli	a4,s2,0x1
    21dc:	00197913          	andi	s2,s2,1
    21e0:	01276933          	or	s2,a4,s2
    21e4:	01f79893          	slli	a7,a5,0x1f
    21e8:	0128e933          	or	s2,a7,s2
    21ec:	0017d613          	srli	a2,a5,0x1
    21f0:	b69ff06f          	j	1d58 <__adddf3+0x13c>
    21f4:	fe0e0913          	addi	s2,t3,-32
    21f8:	02000793          	li	a5,32
    21fc:	012856b3          	srl	a3,a6,s2
    2200:	00fe0a63          	beq	t3,a5,2214 <__stack_size+0x214>
    2204:	04000913          	li	s2,64
    2208:	41c90933          	sub	s2,s2,t3
    220c:	01281933          	sll	s2,a6,s2
    2210:	012fefb3          	or	t6,t6,s2
    2214:	01f03933          	snez	s2,t6
    2218:	00d96933          	or	s2,s2,a3
    221c:	ab9ff06f          	j	1cd4 <__adddf3+0xb8>
    2220:	01e76933          	or	s2,a4,t5
    2224:	01203933          	snez	s2,s2
    2228:	412f8933          	sub	s2,t6,s2
    222c:	012fb7b3          	sltu	a5,t6,s2
    2230:	40f80633          	sub	a2,a6,a5
    2234:	00030493          	mv	s1,t1
    2238:	000e8993          	mv	s3,t4
    223c:	aa5ff06f          	j	1ce0 <__adddf3+0xc4>
    2240:	01e767b3          	or	a5,a4,t5
    2244:	1c078c63          	beqz	a5,241c <__stack_size+0x41c>
    2248:	fff50793          	addi	a5,a0,-1
    224c:	22078463          	beqz	a5,2474 <__stack_size+0x474>
    2250:	7ff00693          	li	a3,2047
    2254:	16d50463          	beq	a0,a3,23bc <__stack_size+0x3bc>
    2258:	00078513          	mv	a0,a5
    225c:	ea5ff06f          	j	2100 <__stack_size+0x100>
    2260:	02000793          	li	a5,32
    2264:	41c787b3          	sub	a5,a5,t3
    2268:	00f816b3          	sll	a3,a6,a5
    226c:	00ff9933          	sll	s2,t6,a5
    2270:	01cfd633          	srl	a2,t6,t3
    2274:	00c6e6b3          	or	a3,a3,a2
    2278:	01203933          	snez	s2,s2
    227c:	01c857b3          	srl	a5,a6,t3
    2280:	0126e933          	or	s2,a3,s2
    2284:	00f70733          	add	a4,a4,a5
    2288:	d3dff06f          	j	1fc4 <__adddf3+0x3a8>
    228c:	00361793          	slli	a5,a2,0x3
    2290:	0037d793          	srli	a5,a5,0x3
    2294:	01d81893          	slli	a7,a6,0x1d
    2298:	0117e8b3          	or	a7,a5,a7
    229c:	00058493          	mv	s1,a1
    22a0:	00385793          	srli	a5,a6,0x3
    22a4:	000e8993          	mv	s3,t4
    22a8:	cf9ff06f          	j	1fa0 <__adddf3+0x384>
    22ac:	10078863          	beqz	a5,23bc <__stack_size+0x3bc>
    22b0:	01f86933          	or	s2,a6,t6
    22b4:	d60916e3          	bnez	s2,2020 <__stack_size+0x20>
    22b8:	00351513          	slli	a0,a0,0x3
    22bc:	01d71793          	slli	a5,a4,0x1d
    22c0:	00355513          	srli	a0,a0,0x3
    22c4:	00f568b3          	or	a7,a0,a5
    22c8:	00375793          	srli	a5,a4,0x3
    22cc:	d4dff06f          	j	2018 <__stack_size+0x18>
    22d0:	10088663          	beqz	a7,23dc <__stack_size+0x3dc>
    22d4:	00361693          	slli	a3,a2,0x3
    22d8:	01d81793          	slli	a5,a6,0x1d
    22dc:	0036d693          	srli	a3,a3,0x3
    22e0:	00d7e8b3          	or	a7,a5,a3
    22e4:	000e8993          	mv	s3,t4
    22e8:	00385793          	srli	a5,a6,0x3
    22ec:	cbdff06f          	j	1fa8 <__adddf3+0x38c>
    22f0:	41ff0933          	sub	s2,t5,t6
    22f4:	410707b3          	sub	a5,a4,a6
    22f8:	012f3f33          	sltu	t5,t5,s2
    22fc:	41e78633          	sub	a2,a5,t5
    2300:	00100493          	li	s1,1
    2304:	9ddff06f          	j	1ce0 <__adddf3+0xc4>
    2308:	00351513          	slli	a0,a0,0x3
    230c:	01d71793          	slli	a5,a4,0x1d
    2310:	00355513          	srli	a0,a0,0x3
    2314:	00f568b3          	or	a7,a0,a5
    2318:	000e0493          	mv	s1,t3
    231c:	00375793          	srli	a5,a4,0x3
    2320:	c81ff06f          	j	1fa0 <__adddf3+0x384>
    2324:	00351513          	slli	a0,a0,0x3
    2328:	01d71793          	slli	a5,a4,0x1d
    232c:	00355513          	srli	a0,a0,0x3
    2330:	00a7e8b3          	or	a7,a5,a0
    2334:	00375793          	srli	a5,a4,0x3
    2338:	c71ff06f          	j	1fa8 <__adddf3+0x38c>
    233c:	7ff00793          	li	a5,2047
    2340:	caf682e3          	beq	a3,a5,1fe4 <__adddf3+0x3c8>
    2344:	01ff0933          	add	s2,t5,t6
    2348:	01e93633          	sltu	a2,s2,t5
    234c:	010707b3          	add	a5,a4,a6
    2350:	00c787b3          	add	a5,a5,a2
    2354:	01f79893          	slli	a7,a5,0x1f
    2358:	00195913          	srli	s2,s2,0x1
    235c:	0128e933          	or	s2,a7,s2
    2360:	0017d613          	srli	a2,a5,0x1
    2364:	00068493          	mv	s1,a3
    2368:	c21ff06f          	j	1f88 <__adddf3+0x36c>
    236c:	41ef8933          	sub	s2,t6,t5
    2370:	40e80733          	sub	a4,a6,a4
    2374:	012fb633          	sltu	a2,t6,s2
    2378:	40c70433          	sub	s0,a4,a2
    237c:	000e8993          	mv	s3,t4
    2380:	975ff06f          	j	1cf4 <__adddf3+0xd8>
    2384:	01e76933          	or	s2,a4,t5
    2388:	01203933          	snez	s2,s2
    238c:	dadff06f          	j	2138 <__stack_size+0x138>
    2390:	fe058793          	addi	a5,a1,-32
    2394:	02000693          	li	a3,32
    2398:	00f757b3          	srl	a5,a4,a5
    239c:	00d58a63          	beq	a1,a3,23b0 <__stack_size+0x3b0>
    23a0:	04000693          	li	a3,64
    23a4:	40b685b3          	sub	a1,a3,a1
    23a8:	00b71733          	sll	a4,a4,a1
    23ac:	00ef6f33          	or	t5,t5,a4
    23b0:	01e03933          	snez	s2,t5
    23b4:	00f96933          	or	s2,s2,a5
    23b8:	e71ff06f          	j	2228 <__stack_size+0x228>
    23bc:	00361793          	slli	a5,a2,0x3
    23c0:	0037d793          	srli	a5,a5,0x3
    23c4:	01d81893          	slli	a7,a6,0x1d
    23c8:	0117e8b3          	or	a7,a5,a7
    23cc:	00385793          	srli	a5,a6,0x3
    23d0:	c49ff06f          	j	2018 <__stack_size+0x18>
    23d4:	00c968b3          	or	a7,s2,a2
    23d8:	ba0898e3          	bnez	a7,1f88 <__adddf3+0x36c>
    23dc:	00000793          	li	a5,0
    23e0:	00000993          	li	s3,0
    23e4:	bc5ff06f          	j	1fa8 <__adddf3+0x38c>
    23e8:	41ef8933          	sub	s2,t6,t5
    23ec:	40e807b3          	sub	a5,a6,a4
    23f0:	012fb633          	sltu	a2,t6,s2
    23f4:	40c78633          	sub	a2,a5,a2
    23f8:	000e8993          	mv	s3,t4
    23fc:	00100493          	li	s1,1
    2400:	8e1ff06f          	j	1ce0 <__adddf3+0xc4>
    2404:	00361693          	slli	a3,a2,0x3
    2408:	01d81793          	slli	a5,a6,0x1d
    240c:	0036d693          	srli	a3,a3,0x3
    2410:	00d7e8b3          	or	a7,a5,a3
    2414:	00385793          	srli	a5,a6,0x3
    2418:	b91ff06f          	j	1fa8 <__adddf3+0x38c>
    241c:	00361693          	slli	a3,a2,0x3
    2420:	01d81793          	slli	a5,a6,0x1d
    2424:	0036d693          	srli	a3,a3,0x3
    2428:	00d7e8b3          	or	a7,a5,a3
    242c:	00050493          	mv	s1,a0
    2430:	00385793          	srli	a5,a6,0x3
    2434:	b6dff06f          	j	1fa0 <__adddf3+0x384>
    2438:	fe050793          	addi	a5,a0,-32
    243c:	02000693          	li	a3,32
    2440:	00f757b3          	srl	a5,a4,a5
    2444:	00d50a63          	beq	a0,a3,2458 <__stack_size+0x458>
    2448:	04000693          	li	a3,64
    244c:	40a68533          	sub	a0,a3,a0
    2450:	00a71733          	sll	a4,a4,a0
    2454:	00ef6f33          	or	t5,t5,a4
    2458:	01e03933          	snez	s2,t5
    245c:	00f96933          	or	s2,s2,a5
    2460:	cd9ff06f          	j	2138 <__stack_size+0x138>
    2464:	00000593          	li	a1,0
    2468:	7ff00513          	li	a0,2047
    246c:	000807b7          	lui	a5,0x80
    2470:	949ff06f          	j	1db8 <__adddf3+0x19c>
    2474:	01ff0933          	add	s2,t5,t6
    2478:	010707b3          	add	a5,a4,a6
    247c:	01f93633          	sltu	a2,s2,t6
    2480:	00c78633          	add	a2,a5,a2
    2484:	d39ff06f          	j	21bc <__stack_size+0x1bc>
    2488:	00361693          	slli	a3,a2,0x3
    248c:	01d81793          	slli	a5,a6,0x1d
    2490:	0036d693          	srli	a3,a3,0x3
    2494:	00d7e8b3          	or	a7,a5,a3
    2498:	00385793          	srli	a5,a6,0x3
    249c:	b7dff06f          	j	2018 <__stack_size+0x18>

000024a0 <__mulsf3>:
    24a0:	fd010113          	addi	sp,sp,-48
    24a4:	02812423          	sw	s0,40(sp)
    24a8:	01755413          	srli	s0,a0,0x17
    24ac:	01312e23          	sw	s3,28(sp)
    24b0:	01412c23          	sw	s4,24(sp)
    24b4:	00951993          	slli	s3,a0,0x9
    24b8:	02112623          	sw	ra,44(sp)
    24bc:	02912223          	sw	s1,36(sp)
    24c0:	03212023          	sw	s2,32(sp)
    24c4:	01512a23          	sw	s5,20(sp)
    24c8:	01612823          	sw	s6,16(sp)
    24cc:	0ff47413          	andi	s0,s0,255
    24d0:	0099d993          	srli	s3,s3,0x9
    24d4:	01f55a13          	srli	s4,a0,0x1f
    24d8:	12040063          	beqz	s0,25f8 <__mulsf3+0x158>
    24dc:	0ff00793          	li	a5,255
    24e0:	14f40863          	beq	s0,a5,2630 <__mulsf3+0x190>
    24e4:	00399793          	slli	a5,s3,0x3
    24e8:	04000737          	lui	a4,0x4000
    24ec:	00e7e9b3          	or	s3,a5,a4
    24f0:	f8140413          	addi	s0,s0,-127
    24f4:	00000493          	li	s1,0
    24f8:	00000b13          	li	s6,0
    24fc:	0175d713          	srli	a4,a1,0x17
    2500:	00959a93          	slli	s5,a1,0x9
    2504:	0ff77713          	andi	a4,a4,255
    2508:	009ada93          	srli	s5,s5,0x9
    250c:	01f5d913          	srli	s2,a1,0x1f
    2510:	10070863          	beqz	a4,2620 <__mulsf3+0x180>
    2514:	0ff00793          	li	a5,255
    2518:	04f70663          	beq	a4,a5,2564 <__mulsf3+0xc4>
    251c:	003a9a93          	slli	s5,s5,0x3
    2520:	f8170713          	addi	a4,a4,-127 # 3ffff81 <_data_lma+0x3ffd371>
    2524:	040007b7          	lui	a5,0x4000
    2528:	00faeab3          	or	s5,s5,a5
    252c:	00e40433          	add	s0,s0,a4
    2530:	00000613          	li	a2,0
    2534:	012a4533          	xor	a0,s4,s2
    2538:	00f00793          	li	a5,15
    253c:	00050693          	mv	a3,a0
    2540:	00140593          	addi	a1,s0,1
    2544:	1897e263          	bltu	a5,s1,26c8 <__mulsf3+0x228>
    2548:	10002717          	auipc	a4,0x10002
    254c:	c1c70713          	addi	a4,a4,-996 # 10004164 <gImage_1+0xd70>
    2550:	00249493          	slli	s1,s1,0x2
    2554:	00e484b3          	add	s1,s1,a4
    2558:	0004a783          	lw	a5,0(s1)
    255c:	00e787b3          	add	a5,a5,a4
    2560:	00078067          	jr	a5 # 4000000 <_data_lma+0x3ffd3f0>
    2564:	0ff40413          	addi	s0,s0,255
    2568:	120a9c63          	bnez	s5,26a0 <__mulsf3+0x200>
    256c:	0024e493          	ori	s1,s1,2
    2570:	00200613          	li	a2,2
    2574:	fc1ff06f          	j	2534 <__mulsf3+0x94>
    2578:	00000513          	li	a0,0
    257c:	0ff00713          	li	a4,255
    2580:	004007b7          	lui	a5,0x400
    2584:	02c12083          	lw	ra,44(sp)
    2588:	02812403          	lw	s0,40(sp)
    258c:	00979793          	slli	a5,a5,0x9
    2590:	01771713          	slli	a4,a4,0x17
    2594:	0097d793          	srli	a5,a5,0x9
    2598:	01f51513          	slli	a0,a0,0x1f
    259c:	00e7e7b3          	or	a5,a5,a4
    25a0:	02412483          	lw	s1,36(sp)
    25a4:	02012903          	lw	s2,32(sp)
    25a8:	01c12983          	lw	s3,28(sp)
    25ac:	01812a03          	lw	s4,24(sp)
    25b0:	01412a83          	lw	s5,20(sp)
    25b4:	01012b03          	lw	s6,16(sp)
    25b8:	00a7e533          	or	a0,a5,a0
    25bc:	03010113          	addi	sp,sp,48
    25c0:	00008067          	ret
    25c4:	00090693          	mv	a3,s2
    25c8:	000a8993          	mv	s3,s5
    25cc:	00060b13          	mv	s6,a2
    25d0:	00200793          	li	a5,2
    25d4:	0efb0263          	beq	s6,a5,26b8 <__mulsf3+0x218>
    25d8:	00300793          	li	a5,3
    25dc:	f8fb0ee3          	beq	s6,a5,2578 <__mulsf3+0xd8>
    25e0:	00100793          	li	a5,1
    25e4:	00068513          	mv	a0,a3
    25e8:	22fb1463          	bne	s6,a5,2810 <__mulsf3+0x370>
    25ec:	00000713          	li	a4,0
    25f0:	00000793          	li	a5,0
    25f4:	f91ff06f          	j	2584 <__mulsf3+0xe4>
    25f8:	06099e63          	bnez	s3,2674 <__mulsf3+0x1d4>
    25fc:	0175d713          	srli	a4,a1,0x17
    2600:	00959a93          	slli	s5,a1,0x9
    2604:	0ff77713          	andi	a4,a4,255
    2608:	00400493          	li	s1,4
    260c:	00000413          	li	s0,0
    2610:	00100b13          	li	s6,1
    2614:	009ada93          	srli	s5,s5,0x9
    2618:	01f5d913          	srli	s2,a1,0x1f
    261c:	ee071ce3          	bnez	a4,2514 <__mulsf3+0x74>
    2620:	020a9263          	bnez	s5,2644 <__mulsf3+0x1a4>
    2624:	0014e493          	ori	s1,s1,1
    2628:	00100613          	li	a2,1
    262c:	f09ff06f          	j	2534 <__mulsf3+0x94>
    2630:	02099a63          	bnez	s3,2664 <__mulsf3+0x1c4>
    2634:	00800493          	li	s1,8
    2638:	0ff00413          	li	s0,255
    263c:	00200b13          	li	s6,2
    2640:	ebdff06f          	j	24fc <__mulsf3+0x5c>
    2644:	000a8513          	mv	a0,s5
    2648:	534000ef          	jal	ra,2b7c <__clzsi2>
    264c:	ffb50793          	addi	a5,a0,-5
    2650:	40a40433          	sub	s0,s0,a0
    2654:	00fa9ab3          	sll	s5,s5,a5
    2658:	f8a40413          	addi	s0,s0,-118
    265c:	00000613          	li	a2,0
    2660:	ed5ff06f          	j	2534 <__mulsf3+0x94>
    2664:	00c00493          	li	s1,12
    2668:	0ff00413          	li	s0,255
    266c:	00300b13          	li	s6,3
    2670:	e8dff06f          	j	24fc <__mulsf3+0x5c>
    2674:	00098513          	mv	a0,s3
    2678:	00b12623          	sw	a1,12(sp)
    267c:	500000ef          	jal	ra,2b7c <__clzsi2>
    2680:	ffb50793          	addi	a5,a0,-5
    2684:	f8a00413          	li	s0,-118
    2688:	00f999b3          	sll	s3,s3,a5
    268c:	40a40433          	sub	s0,s0,a0
    2690:	00000493          	li	s1,0
    2694:	00000b13          	li	s6,0
    2698:	00c12583          	lw	a1,12(sp)
    269c:	e61ff06f          	j	24fc <__mulsf3+0x5c>
    26a0:	0034e493          	ori	s1,s1,3
    26a4:	00300613          	li	a2,3
    26a8:	e8dff06f          	j	2534 <__mulsf3+0x94>
    26ac:	00200793          	li	a5,2
    26b0:	000a0693          	mv	a3,s4
    26b4:	f2fb12e3          	bne	s6,a5,25d8 <__mulsf3+0x138>
    26b8:	00068513          	mv	a0,a3
    26bc:	0ff00713          	li	a4,255
    26c0:	00000793          	li	a5,0
    26c4:	ec1ff06f          	j	2584 <__mulsf3+0xe4>
    26c8:	00010337          	lui	t1,0x10
    26cc:	fff30693          	addi	a3,t1,-1 # ffff <_data_lma+0xd3ef>
    26d0:	0109d613          	srli	a2,s3,0x10
    26d4:	010ad893          	srli	a7,s5,0x10
    26d8:	00d9f7b3          	and	a5,s3,a3
    26dc:	00dafab3          	and	s5,s5,a3
    26e0:	03578833          	mul	a6,a5,s5
    26e4:	02f889b3          	mul	s3,a7,a5
    26e8:	01085713          	srli	a4,a6,0x10
    26ec:	03560ab3          	mul	s5,a2,s5
    26f0:	015989b3          	add	s3,s3,s5
    26f4:	01370733          	add	a4,a4,s3
    26f8:	03160633          	mul	a2,a2,a7
    26fc:	01577463          	bgeu	a4,s5,2704 <__mulsf3+0x264>
    2700:	00660633          	add	a2,a2,t1
    2704:	000107b7          	lui	a5,0x10
    2708:	fff78793          	addi	a5,a5,-1 # ffff <_data_lma+0xd3ef>
    270c:	00f776b3          	and	a3,a4,a5
    2710:	00f87833          	and	a6,a6,a5
    2714:	01069693          	slli	a3,a3,0x10
    2718:	010686b3          	add	a3,a3,a6
    271c:	00669993          	slli	s3,a3,0x6
    2720:	01075793          	srli	a5,a4,0x10
    2724:	013039b3          	snez	s3,s3
    2728:	01a6d693          	srli	a3,a3,0x1a
    272c:	00c787b3          	add	a5,a5,a2
    2730:	00679793          	slli	a5,a5,0x6
    2734:	00d9e6b3          	or	a3,s3,a3
    2738:	00d7e9b3          	or	s3,a5,a3
    273c:	00499793          	slli	a5,s3,0x4
    2740:	0007da63          	bgez	a5,2754 <__mulsf3+0x2b4>
    2744:	0019d713          	srli	a4,s3,0x1
    2748:	0019f793          	andi	a5,s3,1
    274c:	00f769b3          	or	s3,a4,a5
    2750:	00058413          	mv	s0,a1
    2754:	07f40713          	addi	a4,s0,127
    2758:	04e05663          	blez	a4,27a4 <__mulsf3+0x304>
    275c:	0079f793          	andi	a5,s3,7
    2760:	00078a63          	beqz	a5,2774 <__mulsf3+0x2d4>
    2764:	00f9f793          	andi	a5,s3,15
    2768:	00400693          	li	a3,4
    276c:	00d78463          	beq	a5,a3,2774 <__mulsf3+0x2d4>
    2770:	00498993          	addi	s3,s3,4
    2774:	00499793          	slli	a5,s3,0x4
    2778:	0007da63          	bgez	a5,278c <__mulsf3+0x2ec>
    277c:	f80007b7          	lui	a5,0xf8000
    2780:	fff78793          	addi	a5,a5,-1 # f7ffffff <__freertos_irq_stack_top+0xe7ff7fff>
    2784:	00f9f9b3          	and	s3,s3,a5
    2788:	08040713          	addi	a4,s0,128
    278c:	0fe00793          	li	a5,254
    2790:	06e7ca63          	blt	a5,a4,2804 <__mulsf3+0x364>
    2794:	00699793          	slli	a5,s3,0x6
    2798:	0097d793          	srli	a5,a5,0x9
    279c:	0ff77713          	andi	a4,a4,255
    27a0:	de5ff06f          	j	2584 <__mulsf3+0xe4>
    27a4:	00100793          	li	a5,1
    27a8:	40e786b3          	sub	a3,a5,a4
    27ac:	00070a63          	beqz	a4,27c0 <__mulsf3+0x320>
    27b0:	01b00613          	li	a2,27
    27b4:	00000713          	li	a4,0
    27b8:	00000793          	li	a5,0
    27bc:	dcd644e3          	blt	a2,a3,2584 <__mulsf3+0xe4>
    27c0:	09e40713          	addi	a4,s0,158
    27c4:	00e99733          	sll	a4,s3,a4
    27c8:	00e03733          	snez	a4,a4
    27cc:	00d9d7b3          	srl	a5,s3,a3
    27d0:	00e7e7b3          	or	a5,a5,a4
    27d4:	0077f713          	andi	a4,a5,7
    27d8:	00070a63          	beqz	a4,27ec <__mulsf3+0x34c>
    27dc:	00f7f713          	andi	a4,a5,15
    27e0:	00400693          	li	a3,4
    27e4:	00d70463          	beq	a4,a3,27ec <__mulsf3+0x34c>
    27e8:	00478793          	addi	a5,a5,4
    27ec:	00579713          	slli	a4,a5,0x5
    27f0:	02074463          	bltz	a4,2818 <__mulsf3+0x378>
    27f4:	00679793          	slli	a5,a5,0x6
    27f8:	0097d793          	srli	a5,a5,0x9
    27fc:	00000713          	li	a4,0
    2800:	d85ff06f          	j	2584 <__mulsf3+0xe4>
    2804:	0ff00713          	li	a4,255
    2808:	00000793          	li	a5,0
    280c:	d79ff06f          	j	2584 <__mulsf3+0xe4>
    2810:	00058413          	mv	s0,a1
    2814:	f41ff06f          	j	2754 <__mulsf3+0x2b4>
    2818:	00100713          	li	a4,1
    281c:	00000793          	li	a5,0
    2820:	d65ff06f          	j	2584 <__mulsf3+0xe4>

00002824 <__fixunssfsi>:
    2824:	01755713          	srli	a4,a0,0x17
    2828:	00800637          	lui	a2,0x800
    282c:	fff60793          	addi	a5,a2,-1 # 7fffff <_data_lma+0x7fd3ef>
    2830:	0ff77713          	andi	a4,a4,255
    2834:	07e00593          	li	a1,126
    2838:	00a7f6b3          	and	a3,a5,a0
    283c:	01f55793          	srli	a5,a0,0x1f
    2840:	00000513          	li	a0,0
    2844:	00e5f663          	bgeu	a1,a4,2850 <__fixunssfsi+0x2c>
    2848:	00078663          	beqz	a5,2854 <__fixunssfsi+0x30>
    284c:	00008067          	ret
    2850:	00008067          	ret
    2854:	09e00793          	li	a5,158
    2858:	fff00513          	li	a0,-1
    285c:	fee7e8e3          	bltu	a5,a4,284c <__fixunssfsi+0x28>
    2860:	09500593          	li	a1,149
    2864:	00c6e7b3          	or	a5,a3,a2
    2868:	00e5d863          	bge	a1,a4,2878 <__fixunssfsi+0x54>
    286c:	f6a70713          	addi	a4,a4,-150
    2870:	00e79533          	sll	a0,a5,a4
    2874:	00008067          	ret
    2878:	09600513          	li	a0,150
    287c:	40e50733          	sub	a4,a0,a4
    2880:	00e7d533          	srl	a0,a5,a4
    2884:	00008067          	ret

00002888 <__extendsfdf2>:
    2888:	01755713          	srli	a4,a0,0x17
    288c:	0ff77713          	andi	a4,a4,255
    2890:	ff010113          	addi	sp,sp,-16
    2894:	00170793          	addi	a5,a4,1
    2898:	00812423          	sw	s0,8(sp)
    289c:	00912223          	sw	s1,4(sp)
    28a0:	00951413          	slli	s0,a0,0x9
    28a4:	00112623          	sw	ra,12(sp)
    28a8:	0fe7f793          	andi	a5,a5,254
    28ac:	00945413          	srli	s0,s0,0x9
    28b0:	01f55493          	srli	s1,a0,0x1f
    28b4:	04078263          	beqz	a5,28f8 <__extendsfdf2+0x70>
    28b8:	00345793          	srli	a5,s0,0x3
    28bc:	38070713          	addi	a4,a4,896
    28c0:	01d41413          	slli	s0,s0,0x1d
    28c4:	00c79793          	slli	a5,a5,0xc
    28c8:	01471713          	slli	a4,a4,0x14
    28cc:	00c7d793          	srli	a5,a5,0xc
    28d0:	01f49513          	slli	a0,s1,0x1f
    28d4:	00e7e7b3          	or	a5,a5,a4
    28d8:	00a7e7b3          	or	a5,a5,a0
    28dc:	00c12083          	lw	ra,12(sp)
    28e0:	00040513          	mv	a0,s0
    28e4:	00812403          	lw	s0,8(sp)
    28e8:	00412483          	lw	s1,4(sp)
    28ec:	00078593          	mv	a1,a5
    28f0:	01010113          	addi	sp,sp,16
    28f4:	00008067          	ret
    28f8:	04071263          	bnez	a4,293c <__extendsfdf2+0xb4>
    28fc:	06040863          	beqz	s0,296c <__extendsfdf2+0xe4>
    2900:	00040513          	mv	a0,s0
    2904:	278000ef          	jal	ra,2b7c <__clzsi2>
    2908:	00a00793          	li	a5,10
    290c:	06a7c663          	blt	a5,a0,2978 <__extendsfdf2+0xf0>
    2910:	00b00713          	li	a4,11
    2914:	40a70733          	sub	a4,a4,a0
    2918:	01550793          	addi	a5,a0,21
    291c:	00e45733          	srl	a4,s0,a4
    2920:	00f41433          	sll	s0,s0,a5
    2924:	00c71793          	slli	a5,a4,0xc
    2928:	38900713          	li	a4,905
    292c:	40a70733          	sub	a4,a4,a0
    2930:	00c7d793          	srli	a5,a5,0xc
    2934:	7ff77713          	andi	a4,a4,2047
    2938:	f8dff06f          	j	28c4 <__extendsfdf2+0x3c>
    293c:	02040263          	beqz	s0,2960 <__extendsfdf2+0xd8>
    2940:	00345713          	srli	a4,s0,0x3
    2944:	000807b7          	lui	a5,0x80
    2948:	00f767b3          	or	a5,a4,a5
    294c:	00c79793          	slli	a5,a5,0xc
    2950:	01d41413          	slli	s0,s0,0x1d
    2954:	00c7d793          	srli	a5,a5,0xc
    2958:	7ff00713          	li	a4,2047
    295c:	f69ff06f          	j	28c4 <__extendsfdf2+0x3c>
    2960:	7ff00713          	li	a4,2047
    2964:	00000793          	li	a5,0
    2968:	f5dff06f          	j	28c4 <__extendsfdf2+0x3c>
    296c:	00000713          	li	a4,0
    2970:	00000793          	li	a5,0
    2974:	f51ff06f          	j	28c4 <__extendsfdf2+0x3c>
    2978:	ff550713          	addi	a4,a0,-11
    297c:	00e41733          	sll	a4,s0,a4
    2980:	00000413          	li	s0,0
    2984:	fa1ff06f          	j	2924 <__extendsfdf2+0x9c>

00002988 <__truncdfsf2>:
    2988:	0145d693          	srli	a3,a1,0x14
    298c:	00c59793          	slli	a5,a1,0xc
    2990:	7ff6f693          	andi	a3,a3,2047
    2994:	00c7d793          	srli	a5,a5,0xc
    2998:	00168613          	addi	a2,a3,1 # 800001 <_data_lma+0x7fd3f1>
    299c:	00379793          	slli	a5,a5,0x3
    29a0:	01d55713          	srli	a4,a0,0x1d
    29a4:	7fe67613          	andi	a2,a2,2046
    29a8:	01f5d593          	srli	a1,a1,0x1f
    29ac:	00f76733          	or	a4,a4,a5
    29b0:	00351893          	slli	a7,a0,0x3
    29b4:	0a060463          	beqz	a2,2a5c <__truncdfsf2+0xd4>
    29b8:	c8068813          	addi	a6,a3,-896
    29bc:	0fe00793          	li	a5,254
    29c0:	0307d463          	bge	a5,a6,29e8 <__truncdfsf2+0x60>
    29c4:	00000793          	li	a5,0
    29c8:	00979513          	slli	a0,a5,0x9
    29cc:	0ff00693          	li	a3,255
    29d0:	01769693          	slli	a3,a3,0x17
    29d4:	00955513          	srli	a0,a0,0x9
    29d8:	01f59593          	slli	a1,a1,0x1f
    29dc:	00d56533          	or	a0,a0,a3
    29e0:	00b56533          	or	a0,a0,a1
    29e4:	00008067          	ret
    29e8:	0f005e63          	blez	a6,2ae4 <__truncdfsf2+0x15c>
    29ec:	00651793          	slli	a5,a0,0x6
    29f0:	00371713          	slli	a4,a4,0x3
    29f4:	00f037b3          	snez	a5,a5
    29f8:	00e7e7b3          	or	a5,a5,a4
    29fc:	01d8d893          	srli	a7,a7,0x1d
    2a00:	0117e7b3          	or	a5,a5,a7
    2a04:	0077f713          	andi	a4,a5,7
    2a08:	16070663          	beqz	a4,2b74 <__truncdfsf2+0x1ec>
    2a0c:	00f7f713          	andi	a4,a5,15
    2a10:	00400693          	li	a3,4
    2a14:	00d70463          	beq	a4,a3,2a1c <__truncdfsf2+0x94>
    2a18:	00478793          	addi	a5,a5,4 # 80004 <_data_lma+0x7d3f4>
    2a1c:	04000737          	lui	a4,0x4000
    2a20:	00e7f733          	and	a4,a5,a4
    2a24:	14070863          	beqz	a4,2b74 <__truncdfsf2+0x1ec>
    2a28:	00180713          	addi	a4,a6,1
    2a2c:	0ff00613          	li	a2,255
    2a30:	0ff77693          	andi	a3,a4,255
    2a34:	f8c708e3          	beq	a4,a2,29c4 <__truncdfsf2+0x3c>
    2a38:	00679793          	slli	a5,a5,0x6
    2a3c:	0097d793          	srli	a5,a5,0x9
    2a40:	00979513          	slli	a0,a5,0x9
    2a44:	01769693          	slli	a3,a3,0x17
    2a48:	00955513          	srli	a0,a0,0x9
    2a4c:	01f59593          	slli	a1,a1,0x1f
    2a50:	00d56533          	or	a0,a0,a3
    2a54:	00b56533          	or	a0,a0,a1
    2a58:	00008067          	ret
    2a5c:	011767b3          	or	a5,a4,a7
    2a60:	02069a63          	bnez	a3,2a94 <__truncdfsf2+0x10c>
    2a64:	04078e63          	beqz	a5,2ac0 <__truncdfsf2+0x138>
    2a68:	00500793          	li	a5,5
    2a6c:	00679793          	slli	a5,a5,0x6
    2a70:	0097d793          	srli	a5,a5,0x9
    2a74:	00979513          	slli	a0,a5,0x9
    2a78:	0ff6f693          	andi	a3,a3,255
    2a7c:	01769693          	slli	a3,a3,0x17
    2a80:	00955513          	srli	a0,a0,0x9
    2a84:	01f59593          	slli	a1,a1,0x1f
    2a88:	00d56533          	or	a0,a0,a3
    2a8c:	00b56533          	or	a0,a0,a1
    2a90:	00008067          	ret
    2a94:	f20788e3          	beqz	a5,29c4 <__truncdfsf2+0x3c>
    2a98:	004007b7          	lui	a5,0x400
    2a9c:	00979513          	slli	a0,a5,0x9
    2aa0:	0ff00693          	li	a3,255
    2aa4:	01769693          	slli	a3,a3,0x17
    2aa8:	00000593          	li	a1,0
    2aac:	00955513          	srli	a0,a0,0x9
    2ab0:	01f59593          	slli	a1,a1,0x1f
    2ab4:	00d56533          	or	a0,a0,a3
    2ab8:	00b56533          	or	a0,a0,a1
    2abc:	00008067          	ret
    2ac0:	00000793          	li	a5,0
    2ac4:	00979513          	slli	a0,a5,0x9
    2ac8:	00000693          	li	a3,0
    2acc:	01769693          	slli	a3,a3,0x17
    2ad0:	00955513          	srli	a0,a0,0x9
    2ad4:	01f59593          	slli	a1,a1,0x1f
    2ad8:	00d56533          	or	a0,a0,a3
    2adc:	00b56533          	or	a0,a0,a1
    2ae0:	00008067          	ret
    2ae4:	fe900793          	li	a5,-23
    2ae8:	06f84263          	blt	a6,a5,2b4c <__truncdfsf2+0x1c4>
    2aec:	01e00793          	li	a5,30
    2af0:	00800637          	lui	a2,0x800
    2af4:	410787b3          	sub	a5,a5,a6
    2af8:	01f00513          	li	a0,31
    2afc:	00c76633          	or	a2,a4,a2
    2b00:	04f55a63          	bge	a0,a5,2b54 <__truncdfsf2+0x1cc>
    2b04:	ffe00713          	li	a4,-2
    2b08:	41070733          	sub	a4,a4,a6
    2b0c:	02000513          	li	a0,32
    2b10:	00e65733          	srl	a4,a2,a4
    2b14:	00a78863          	beq	a5,a0,2b24 <__truncdfsf2+0x19c>
    2b18:	ca268693          	addi	a3,a3,-862
    2b1c:	00d616b3          	sll	a3,a2,a3
    2b20:	00d8e8b3          	or	a7,a7,a3
    2b24:	011037b3          	snez	a5,a7
    2b28:	00e7e7b3          	or	a5,a5,a4
    2b2c:	0077f713          	andi	a4,a5,7
    2b30:	00000813          	li	a6,0
    2b34:	ec071ce3          	bnez	a4,2a0c <__truncdfsf2+0x84>
    2b38:	00579713          	slli	a4,a5,0x5
    2b3c:	00100693          	li	a3,1
    2b40:	ee074ce3          	bltz	a4,2a38 <__truncdfsf2+0xb0>
    2b44:	00000693          	li	a3,0
    2b48:	f25ff06f          	j	2a6c <__truncdfsf2+0xe4>
    2b4c:	00000693          	li	a3,0
    2b50:	f19ff06f          	j	2a68 <__truncdfsf2+0xe0>
    2b54:	c8268693          	addi	a3,a3,-894
    2b58:	00d89733          	sll	a4,a7,a3
    2b5c:	00e03733          	snez	a4,a4
    2b60:	00d616b3          	sll	a3,a2,a3
    2b64:	00f8d8b3          	srl	a7,a7,a5
    2b68:	00d767b3          	or	a5,a4,a3
    2b6c:	00f8e7b3          	or	a5,a7,a5
    2b70:	fbdff06f          	j	2b2c <__truncdfsf2+0x1a4>
    2b74:	00080693          	mv	a3,a6
    2b78:	ef5ff06f          	j	2a6c <__truncdfsf2+0xe4>

00002b7c <__clzsi2>:
    2b7c:	000107b7          	lui	a5,0x10
    2b80:	04f57463          	bgeu	a0,a5,2bc8 <__clzsi2+0x4c>
    2b84:	0ff00793          	li	a5,255
    2b88:	02000713          	li	a4,32
    2b8c:	00a7ee63          	bltu	a5,a0,2ba8 <__clzsi2+0x2c>
    2b90:	10001797          	auipc	a5,0x10001
    2b94:	61478793          	addi	a5,a5,1556 # 100041a4 <__clz_tab>
    2b98:	00a787b3          	add	a5,a5,a0
    2b9c:	0007c503          	lbu	a0,0(a5)
    2ba0:	40a70533          	sub	a0,a4,a0
    2ba4:	00008067          	ret
    2ba8:	00855513          	srli	a0,a0,0x8
    2bac:	10001797          	auipc	a5,0x10001
    2bb0:	5f878793          	addi	a5,a5,1528 # 100041a4 <__clz_tab>
    2bb4:	00a787b3          	add	a5,a5,a0
    2bb8:	0007c503          	lbu	a0,0(a5)
    2bbc:	01800713          	li	a4,24
    2bc0:	40a70533          	sub	a0,a4,a0
    2bc4:	00008067          	ret
    2bc8:	010007b7          	lui	a5,0x1000
    2bcc:	02f56263          	bltu	a0,a5,2bf0 <__clzsi2+0x74>
    2bd0:	01855513          	srli	a0,a0,0x18
    2bd4:	10001797          	auipc	a5,0x10001
    2bd8:	5d078793          	addi	a5,a5,1488 # 100041a4 <__clz_tab>
    2bdc:	00a787b3          	add	a5,a5,a0
    2be0:	0007c503          	lbu	a0,0(a5)
    2be4:	00800713          	li	a4,8
    2be8:	40a70533          	sub	a0,a4,a0
    2bec:	00008067          	ret
    2bf0:	01055513          	srli	a0,a0,0x10
    2bf4:	10001797          	auipc	a5,0x10001
    2bf8:	5b078793          	addi	a5,a5,1456 # 100041a4 <__clz_tab>
    2bfc:	00a787b3          	add	a5,a5,a0
    2c00:	0007c503          	lbu	a0,0(a5)
    2c04:	01000713          	li	a4,16
    2c08:	40a70533          	sub	a0,a4,a0
    2c0c:	00008067          	ret

Disassembly of section .data:

10000000 <ascii_1206>:
	...
1000000c:	0000                	unimp
1000000e:	0404                	addi	s1,sp,512
10000010:	0404                	addi	s1,sp,512
10000012:	0004                	0x4
10000014:	0400                	addi	s0,sp,512
10000016:	0000                	unimp
10000018:	1414                	addi	a3,sp,544
1000001a:	000a                	c.slli	zero,0x2
	...
10000024:	0000                	unimp
10000026:	0a0a                	slli	s4,s4,0x2
10000028:	0a1f 1f0a 0a0a      	0xa0a1f0a0a1f
1000002e:	0000                	unimp
10000030:	0400                	addi	s0,sp,512
10000032:	150e                	slli	a0,a0,0x23
10000034:	0605                	addi	a2,a2,1
10000036:	140c                	addi	a1,sp,544
10000038:	0e15                	addi	t3,t3,5
1000003a:	0004                	0x4
1000003c:	0000                	unimp
1000003e:	1512                	slli	a0,a0,0x24
10000040:	150d                	addi	a0,a0,-29
10000042:	2c2e                	fld	fs8,200(sp)
10000044:	122a                	slli	tp,tp,0x2a
10000046:	0000                	unimp
10000048:	0000                	unimp
1000004a:	0a04                	addi	s1,sp,272
1000004c:	360a                	fld	fa2,160(sp)
1000004e:	1515                	addi	a0,a0,-27
10000050:	1629                	addi	a2,a2,-22
10000052:	0000                	unimp
10000054:	0202                	c.slli64	tp
10000056:	0001                	nop
	...
10000060:	0810                	addi	a2,sp,16
10000062:	0408                	addi	a0,sp,512
10000064:	0404                	addi	s1,sp,512
10000066:	0404                	addi	s1,sp,512
10000068:	0808                	addi	a0,sp,16
1000006a:	0010                	0x10
1000006c:	0402                	c.slli64	s0
1000006e:	0804                	addi	s1,sp,16
10000070:	0808                	addi	a0,sp,16
10000072:	0808                	addi	a0,sp,16
10000074:	0404                	addi	s1,sp,512
10000076:	0002                	c.slli64	zero
10000078:	0000                	unimp
1000007a:	0400                	addi	s0,sp,512
1000007c:	0e15                	addi	t3,t3,5
1000007e:	150e                	slli	a0,a0,0x23
10000080:	0004                	0x4
10000082:	0000                	unimp
10000084:	0000                	unimp
10000086:	0800                	addi	s0,sp,16
10000088:	3e08                	fld	fa0,56(a2)
1000008a:	0808                	addi	a0,sp,16
	...
10000098:	0202                	c.slli64	tp
1000009a:	0001                	nop
1000009c:	0000                	unimp
1000009e:	0000                	unimp
100000a0:	3f00                	fld	fs0,56(a4)
	...
100000ae:	0000                	unimp
100000b0:	0200                	addi	s0,sp,256
100000b2:	0000                	unimp
100000b4:	2000                	fld	fs0,0(s0)
100000b6:	1010                	addi	a2,sp,32
100000b8:	0808                	addi	a0,sp,16
100000ba:	0404                	addi	s1,sp,512
100000bc:	0202                	c.slli64	tp
100000be:	0001                	nop
100000c0:	0000                	unimp
100000c2:	110e                	slli	sp,sp,0x23
100000c4:	1111                	addi	sp,sp,-28
100000c6:	1111                	addi	sp,sp,-28
100000c8:	0e11                	addi	t3,t3,4
100000ca:	0000                	unimp
100000cc:	0000                	unimp
100000ce:	0604                	addi	s1,sp,768
100000d0:	0404                	addi	s1,sp,512
100000d2:	0404                	addi	s1,sp,512
100000d4:	0e04                	addi	s1,sp,784
100000d6:	0000                	unimp
100000d8:	0000                	unimp
100000da:	110e                	slli	sp,sp,0x23
100000dc:	0811                	addi	a6,a6,4
100000de:	0204                	addi	s1,sp,256
100000e0:	1f01                	addi	t5,t5,-32
100000e2:	0000                	unimp
100000e4:	0000                	unimp
100000e6:	110e                	slli	sp,sp,0x23
100000e8:	0c10                	addi	a2,sp,528
100000ea:	1010                	addi	a2,sp,32
100000ec:	0e11                	addi	t3,t3,4
100000ee:	0000                	unimp
100000f0:	0000                	unimp
100000f2:	0c08                	addi	a0,sp,528
100000f4:	0a0c                	addi	a1,sp,272
100000f6:	1f09                	addi	t5,t5,-30
100000f8:	1c08                	addi	a0,sp,560
100000fa:	0000                	unimp
100000fc:	0000                	unimp
100000fe:	011f 0f01 1011      	0x10110f01011f
10000104:	0e11                	addi	t3,t3,4
10000106:	0000                	unimp
10000108:	0000                	unimp
1000010a:	120c                	addi	a1,sp,288
1000010c:	0d01                	addi	s10,s10,0
1000010e:	0e111113          	0xe111113
10000112:	0000                	unimp
10000114:	0000                	unimp
10000116:	101e                	c.slli	zero,0x27
10000118:	0808                	addi	a0,sp,16
1000011a:	0404                	addi	s1,sp,512
1000011c:	0404                	addi	s1,sp,512
1000011e:	0000                	unimp
10000120:	0000                	unimp
10000122:	110e                	slli	sp,sp,0x23
10000124:	0e11                	addi	t3,t3,4
10000126:	1111                	addi	sp,sp,-28
10000128:	0e11                	addi	t3,t3,4
1000012a:	0000                	unimp
1000012c:	0000                	unimp
1000012e:	110e                	slli	sp,sp,0x23
10000130:	1911                	addi	s2,s2,-28
10000132:	1016                	c.slli	zero,0x25
10000134:	0609                	addi	a2,a2,2
10000136:	0000                	unimp
10000138:	0000                	unimp
1000013a:	0000                	unimp
1000013c:	0004                	0x4
1000013e:	0000                	unimp
10000140:	0400                	addi	s0,sp,512
10000142:	0000                	unimp
10000144:	0000                	unimp
10000146:	0000                	unimp
10000148:	0400                	addi	s0,sp,512
1000014a:	0000                	unimp
1000014c:	0400                	addi	s0,sp,512
1000014e:	0004                	0x4
10000150:	0000                	unimp
10000152:	0810                	addi	a2,sp,16
10000154:	0204                	addi	s1,sp,256
10000156:	0402                	c.slli64	s0
10000158:	1008                	addi	a0,sp,32
1000015a:	0000                	unimp
1000015c:	0000                	unimp
1000015e:	0000                	unimp
10000160:	003f003f 00000000 	0x3f003f
10000168:	0000                	unimp
1000016a:	0402                	c.slli64	s0
1000016c:	1008                	addi	a0,sp,32
1000016e:	0810                	addi	a2,sp,16
10000170:	0204                	addi	s1,sp,256
10000172:	0000                	unimp
10000174:	0000                	unimp
10000176:	110e                	slli	sp,sp,0x23
10000178:	0811                	addi	a6,a6,4
1000017a:	0404                	addi	s1,sp,512
1000017c:	0400                	addi	s0,sp,512
1000017e:	0000                	unimp
10000180:	0000                	unimp
10000182:	221c                	fld	fa5,0(a2)
10000184:	2d29                	jal	1000079e <ascii_1608+0x32a>
10000186:	1d2d                	addi	s10,s10,-21
10000188:	1c22                	slli	s8,s8,0x28
1000018a:	0000                	unimp
1000018c:	0000                	unimp
1000018e:	0404                	addi	s1,sp,512
10000190:	0a0c                	addi	a1,sp,272
10000192:	1e0a                	slli	t3,t3,0x22
10000194:	3312                	fld	ft6,288(sp)
10000196:	0000                	unimp
10000198:	0000                	unimp
1000019a:	0e12120f          	0xe12120f
1000019e:	1212                	slli	tp,tp,0x24
100001a0:	0f12                	slli	t5,t5,0x4
100001a2:	0000                	unimp
100001a4:	0000                	unimp
100001a6:	111e                	slli	sp,sp,0x27
100001a8:	0101                	addi	sp,sp,0
100001aa:	0101                	addi	sp,sp,0
100001ac:	0e11                	addi	t3,t3,4
100001ae:	0000                	unimp
100001b0:	0000                	unimp
100001b2:	1212120f          	0x1212120f
100001b6:	1212                	slli	tp,tp,0x24
100001b8:	0f12                	slli	t5,t5,0x4
100001ba:	0000                	unimp
100001bc:	0000                	unimp
100001be:	121f 0e0a 020a      	0x20a0e0a121f
100001c4:	1f12                	slli	t5,t5,0x24
100001c6:	0000                	unimp
100001c8:	0000                	unimp
100001ca:	121f 0e0a 020a      	0x20a0e0a121f
100001d0:	0702                	c.slli64	a4
100001d2:	0000                	unimp
100001d4:	0000                	unimp
100001d6:	121c                	addi	a5,sp,288
100001d8:	0101                	addi	sp,sp,0
100001da:	1139                	addi	sp,sp,-18
100001dc:	0c12                	slli	s8,s8,0x4
100001de:	0000                	unimp
100001e0:	0000                	unimp
100001e2:	1e121233          	0x1e121233
100001e6:	1212                	slli	tp,tp,0x24
100001e8:	3312                	fld	ft6,288(sp)
100001ea:	0000                	unimp
100001ec:	0000                	unimp
100001ee:	041f 0404 0404      	0x4040404041f
100001f4:	1f04                	addi	s1,sp,944
100001f6:	0000                	unimp
100001f8:	0000                	unimp
100001fa:	083e                	slli	a6,a6,0xf
100001fc:	0808                	addi	a0,sp,16
100001fe:	0808                	addi	a0,sp,16
10000200:	0808                	addi	a0,sp,16
10000202:	0709                	addi	a4,a4,2
10000204:	0000                	unimp
10000206:	060a1237          	lui	tp,0x60a1
1000020a:	120a                	slli	tp,tp,0x22
1000020c:	3712                	fld	fa4,288(sp)
1000020e:	0000                	unimp
10000210:	0000                	unimp
10000212:	02020207          	0x2020207
10000216:	0202                	c.slli64	tp
10000218:	3f22                	fld	ft10,40(sp)
1000021a:	0000                	unimp
1000021c:	0000                	unimp
1000021e:	1b1b1b3b          	0x1b1b1b3b
10000222:	1515                	addi	a0,a0,-27
10000224:	3515                	jal	10000048 <ascii_1206+0x48>
10000226:	0000                	unimp
10000228:	0000                	unimp
1000022a:	1616123b          	0x1616123b
1000022e:	1a1a                	slli	s4,s4,0x26
10000230:	1712                	slli	a4,a4,0x24
10000232:	0000                	unimp
10000234:	0000                	unimp
10000236:	110e                	slli	sp,sp,0x23
10000238:	1111                	addi	sp,sp,-28
1000023a:	1111                	addi	sp,sp,-28
1000023c:	0e11                	addi	t3,t3,4
1000023e:	0000                	unimp
10000240:	0000                	unimp
10000242:	0e12120f          	0xe12120f
10000246:	0202                	c.slli64	tp
10000248:	0702                	c.slli64	a4
1000024a:	0000                	unimp
1000024c:	0000                	unimp
1000024e:	110e                	slli	sp,sp,0x23
10000250:	1111                	addi	sp,sp,-28
10000252:	1711                	addi	a4,a4,-28
10000254:	0e19                	addi	t3,t3,6
10000256:	0018                	0x18
10000258:	0000                	unimp
1000025a:	0e12120f          	0xe12120f
1000025e:	120a                	slli	tp,tp,0x22
10000260:	3712                	fld	fa4,288(sp)
10000262:	0000                	unimp
10000264:	0000                	unimp
10000266:	111e                	slli	sp,sp,0x27
10000268:	0601                	addi	a2,a2,0
1000026a:	1008                	addi	a0,sp,32
1000026c:	0f11                	addi	t5,t5,4
1000026e:	0000                	unimp
10000270:	0000                	unimp
10000272:	151f 0404 0404      	0x4040404151f
10000278:	0e04                	addi	s1,sp,784
1000027a:	0000                	unimp
1000027c:	0000                	unimp
1000027e:	12121233          	0x12121233
10000282:	1212                	slli	tp,tp,0x24
10000284:	0c12                	slli	s8,s8,0x4
10000286:	0000                	unimp
10000288:	0000                	unimp
1000028a:	0a121233          	0xa121233
1000028e:	0c0a                	slli	s8,s8,0x2
10000290:	0404                	addi	s1,sp,512
10000292:	0000                	unimp
10000294:	0000                	unimp
10000296:	1515                	addi	a0,a0,-27
10000298:	1515                	addi	a0,a0,-27
1000029a:	0a0e                	slli	s4,s4,0x3
1000029c:	0a0a                	slli	s4,s4,0x2
1000029e:	0000                	unimp
100002a0:	0000                	unimp
100002a2:	040a0a1b          	0x40a0a1b
100002a6:	0a04                	addi	s1,sp,272
100002a8:	1b0a                	slli	s6,s6,0x22
100002aa:	0000                	unimp
100002ac:	0000                	unimp
100002ae:	0a0a0a1b          	0xa0a0a1b
100002b2:	0404                	addi	s1,sp,512
100002b4:	0e04                	addi	s1,sp,784
100002b6:	0000                	unimp
100002b8:	0000                	unimp
100002ba:	091f 0408 0204      	0x2040408091f
100002c0:	1f12                	slli	t5,t5,0x24
100002c2:	0000                	unimp
100002c4:	041c                	addi	a5,sp,512
100002c6:	0404                	addi	s1,sp,512
100002c8:	0404                	addi	s1,sp,512
100002ca:	0404                	addi	s1,sp,512
100002cc:	0404                	addi	s1,sp,512
100002ce:	001c                	0x1c
100002d0:	0200                	addi	s0,sp,256
100002d2:	0402                	c.slli64	s0
100002d4:	0404                	addi	s1,sp,512
100002d6:	0808                	addi	a0,sp,16
100002d8:	1008                	addi	a0,sp,32
100002da:	0010                	0x10
100002dc:	080e                	slli	a6,a6,0x3
100002de:	0808                	addi	a0,sp,16
100002e0:	0808                	addi	a0,sp,16
100002e2:	0808                	addi	a0,sp,16
100002e4:	0808                	addi	a0,sp,16
100002e6:	000e                	c.slli	zero,0x3
100002e8:	0a04                	addi	s1,sp,272
	...
100002fe:	3f00                	fld	fs0,56(a4)
10000300:	0402                	c.slli64	s0
	...
1000030e:	0000                	unimp
10000310:	0c00                	addi	s0,sp,528
10000312:	1c12                	slli	s8,s8,0x24
10000314:	3c12                	fld	fs8,288(sp)
10000316:	0000                	unimp
10000318:	0300                	addi	s0,sp,384
1000031a:	0202                	c.slli64	tp
1000031c:	0e02                	c.slli64	t3
1000031e:	1212                	slli	tp,tp,0x24
10000320:	0e12                	slli	t3,t3,0x4
10000322:	0000                	unimp
10000324:	0000                	unimp
10000326:	0000                	unimp
10000328:	1c00                	addi	s0,sp,560
1000032a:	0212                	slli	tp,tp,0x4
1000032c:	0c12                	slli	s8,s8,0x4
1000032e:	0000                	unimp
10000330:	1800                	addi	s0,sp,48
10000332:	1010                	addi	a2,sp,32
10000334:	1c10                	addi	a2,sp,560
10000336:	1212                	slli	tp,tp,0x24
10000338:	3c12                	fld	fs8,288(sp)
1000033a:	0000                	unimp
1000033c:	0000                	unimp
1000033e:	0000                	unimp
10000340:	0c00                	addi	s0,sp,528
10000342:	1e12                	slli	t3,t3,0x24
10000344:	1c02                	slli	s8,s8,0x20
10000346:	0000                	unimp
10000348:	1800                	addi	s0,sp,48
1000034a:	0424                	addi	s1,sp,520
1000034c:	1e04                	addi	s1,sp,816
1000034e:	0404                	addi	s1,sp,512
10000350:	1e04                	addi	s1,sp,816
10000352:	0000                	unimp
10000354:	0000                	unimp
10000356:	0000                	unimp
10000358:	3c00                	fld	fs0,56(s0)
1000035a:	0c12                	slli	s8,s8,0x4
1000035c:	1c02                	slli	s8,s8,0x20
1000035e:	1c22                	slli	s8,s8,0x28
10000360:	0300                	addi	s0,sp,384
10000362:	0202                	c.slli64	tp
10000364:	0e02                	c.slli64	t3
10000366:	1212                	slli	tp,tp,0x24
10000368:	3712                	fld	fa4,288(sp)
1000036a:	0000                	unimp
1000036c:	0400                	addi	s0,sp,512
1000036e:	0004                	0x4
10000370:	0600                	addi	s0,sp,768
10000372:	0404                	addi	s1,sp,512
10000374:	0e04                	addi	s1,sp,784
10000376:	0000                	unimp
10000378:	0800                	addi	s0,sp,16
1000037a:	0008                	0x8
1000037c:	0c00                	addi	s0,sp,528
1000037e:	0808                	addi	a0,sp,16
10000380:	0808                	addi	a0,sp,16
10000382:	0708                	addi	a0,sp,896
10000384:	0300                	addi	s0,sp,384
10000386:	0202                	c.slli64	tp
10000388:	1a02                	slli	s4,s4,0x20
1000038a:	060a                	slli	a2,a2,0x2
1000038c:	130a                	slli	t1,t1,0x22
1000038e:	0000                	unimp
10000390:	0700                	addi	s0,sp,896
10000392:	0404                	addi	s1,sp,512
10000394:	0404                	addi	s1,sp,512
10000396:	0404                	addi	s1,sp,512
10000398:	1f04                	addi	s1,sp,944
1000039a:	0000                	unimp
1000039c:	0000                	unimp
1000039e:	0000                	unimp
100003a0:	0f00                	addi	s0,sp,912
100003a2:	1515                	addi	a0,a0,-27
100003a4:	1515                	addi	a0,a0,-27
100003a6:	0000                	unimp
100003a8:	0000                	unimp
100003aa:	0000                	unimp
100003ac:	0f00                	addi	s0,sp,912
100003ae:	1212                	slli	tp,tp,0x24
100003b0:	3712                	fld	fa4,288(sp)
100003b2:	0000                	unimp
100003b4:	0000                	unimp
100003b6:	0000                	unimp
100003b8:	0c00                	addi	s0,sp,528
100003ba:	1212                	slli	tp,tp,0x24
100003bc:	0c12                	slli	s8,s8,0x4
100003be:	0000                	unimp
100003c0:	0000                	unimp
100003c2:	0000                	unimp
100003c4:	0f00                	addi	s0,sp,912
100003c6:	1212                	slli	tp,tp,0x24
100003c8:	0e12                	slli	t3,t3,0x4
100003ca:	0702                	c.slli64	a4
100003cc:	0000                	unimp
100003ce:	0000                	unimp
100003d0:	1c00                	addi	s0,sp,560
100003d2:	1212                	slli	tp,tp,0x24
100003d4:	1c12                	slli	s8,s8,0x24
100003d6:	3810                	fld	fa2,48(s0)
100003d8:	0000                	unimp
100003da:	0000                	unimp
100003dc:	1b00                	addi	s0,sp,432
100003de:	0206                	slli	tp,tp,0x1
100003e0:	0702                	c.slli64	a4
100003e2:	0000                	unimp
100003e4:	0000                	unimp
100003e6:	0000                	unimp
100003e8:	1e00                	addi	s0,sp,816
100003ea:	0c02                	c.slli64	s8
100003ec:	1e10                	addi	a2,sp,816
100003ee:	0000                	unimp
100003f0:	0000                	unimp
100003f2:	0400                	addi	s0,sp,512
100003f4:	1e04                	addi	s1,sp,816
100003f6:	0404                	addi	s1,sp,512
100003f8:	1c04                	addi	s1,sp,560
100003fa:	0000                	unimp
100003fc:	0000                	unimp
100003fe:	0000                	unimp
10000400:	1b00                	addi	s0,sp,432
10000402:	1212                	slli	tp,tp,0x24
10000404:	3c12                	fld	fs8,288(sp)
10000406:	0000                	unimp
10000408:	0000                	unimp
1000040a:	0000                	unimp
1000040c:	1b00                	addi	s0,sp,432
1000040e:	0a0a                	slli	s4,s4,0x2
10000410:	0404                	addi	s1,sp,512
10000412:	0000                	unimp
10000414:	0000                	unimp
10000416:	0000                	unimp
10000418:	1500                	addi	s0,sp,672
1000041a:	0e15                	addi	t3,t3,5
1000041c:	0a0a                	slli	s4,s4,0x2
1000041e:	0000                	unimp
10000420:	0000                	unimp
10000422:	0000                	unimp
10000424:	1b00                	addi	s0,sp,432
10000426:	040a                	slli	s0,s0,0x2
10000428:	1b0a                	slli	s6,s6,0x22
1000042a:	0000                	unimp
1000042c:	0000                	unimp
1000042e:	0000                	unimp
10000430:	3300                	fld	fs0,32(a4)
10000432:	1212                	slli	tp,tp,0x24
10000434:	080c                	addi	a1,sp,16
10000436:	0304                	addi	s1,sp,384
10000438:	0000                	unimp
1000043a:	0000                	unimp
1000043c:	1e00                	addi	s0,sp,816
1000043e:	0408                	addi	a0,sp,512
10000440:	1e04                	addi	s1,sp,816
10000442:	0000                	unimp
10000444:	0818                	addi	a4,sp,16
10000446:	0808                	addi	a0,sp,16
10000448:	0c08                	addi	a0,sp,528
1000044a:	0808                	addi	a0,sp,16
1000044c:	0808                	addi	a0,sp,16
1000044e:	0018                	0x18
10000450:	0808                	addi	a0,sp,16
10000452:	0808                	addi	a0,sp,16
10000454:	0808                	addi	a0,sp,16
10000456:	0808                	addi	a0,sp,16
10000458:	0808                	addi	a0,sp,16
1000045a:	0808                	addi	a0,sp,16
1000045c:	0406                	slli	s0,s0,0x1
1000045e:	0404                	addi	s1,sp,512
10000460:	0804                	addi	s1,sp,16
10000462:	0404                	addi	s1,sp,512
10000464:	0404                	addi	s1,sp,512
10000466:	0006                	c.slli	zero,0x1
10000468:	0916                	slli	s2,s2,0x5
	...

10000474 <ascii_1608>:
	...
10000484:	0000                	unimp
10000486:	0800                	addi	s0,sp,16
10000488:	0808                	addi	a0,sp,16
1000048a:	0808                	addi	a0,sp,16
1000048c:	0808                	addi	a0,sp,16
1000048e:	0000                	unimp
10000490:	1818                	addi	a4,sp,48
10000492:	0000                	unimp
10000494:	4800                	lw	s0,16(s0)
10000496:	246c                	fld	fa1,200(s0)
10000498:	0012                	c.slli	zero,0x4
	...
100004a6:	2400                	fld	fs0,8(s0)
100004a8:	2424                	fld	fs1,72(s0)
100004aa:	127f                	0x127f
100004ac:	1212                	slli	tp,tp,0x24
100004ae:	127f                	0x127f
100004b0:	1212                	slli	tp,tp,0x24
100004b2:	0000                	unimp
100004b4:	0000                	unimp
100004b6:	1c08                	addi	a0,sp,560
100004b8:	2a2a                	fld	fs4,136(sp)
100004ba:	0c0a                	slli	s8,s8,0x2
100004bc:	2818                	fld	fa4,16(s0)
100004be:	2a28                	fld	fa0,80(a2)
100004c0:	1c2a                	slli	s8,s8,0x2a
100004c2:	0808                	addi	a0,sp,16
100004c4:	0000                	unimp
100004c6:	2200                	fld	fs0,0(a2)
100004c8:	1525                	addi	a0,a0,-23
100004ca:	1515                	addi	a0,a0,-27
100004cc:	582a                	lw	a6,168(sp)
100004ce:	5454                	lw	a3,44(s0)
100004d0:	2254                	fld	fa3,128(a2)
100004d2:	0000                	unimp
100004d4:	0000                	unimp
100004d6:	0c00                	addi	s0,sp,528
100004d8:	1212                	slli	tp,tp,0x24
100004da:	0a12                	slli	s4,s4,0x4
100004dc:	2576                	fld	fa0,344(sp)
100004de:	1129                	addi	sp,sp,-22
100004e0:	6e91                	lui	t4,0x4
100004e2:	0000                	unimp
100004e4:	0600                	addi	s0,sp,768
100004e6:	0406                	slli	s0,s0,0x1
100004e8:	00000003          	lb	zero,0(zero) # 0 <_start>
	...
100004f4:	4000                	lw	s0,0(s0)
100004f6:	1020                	addi	s0,sp,40
100004f8:	0810                	addi	a2,sp,16
100004fa:	0808                	addi	a0,sp,16
100004fc:	0808                	addi	a0,sp,16
100004fe:	1008                	addi	a0,sp,32
10000500:	2010                	fld	fa2,0(s0)
10000502:	0040                	addi	s0,sp,4
10000504:	0200                	addi	s0,sp,256
10000506:	0804                	addi	s1,sp,16
10000508:	1008                	addi	a0,sp,32
1000050a:	1010                	addi	a2,sp,32
1000050c:	1010                	addi	a2,sp,32
1000050e:	0810                	addi	a2,sp,16
10000510:	0408                	addi	a0,sp,512
10000512:	0002                	c.slli64	zero
10000514:	0000                	unimp
10000516:	0000                	unimp
10000518:	0808                	addi	a0,sp,16
1000051a:	6b1c1c6b          	0x6b1c1c6b
1000051e:	0808                	addi	a0,sp,16
	...
10000528:	0808                	addi	a0,sp,16
1000052a:	0808                	addi	a0,sp,16
1000052c:	087f                	0x87f
1000052e:	0808                	addi	a0,sp,16
10000530:	0008                	0x8
	...
1000053e:	0000                	unimp
10000540:	0606                	slli	a2,a2,0x1
10000542:	0304                	addi	s1,sp,384
	...
1000054c:	00fe                	slli	ra,ra,0x1f
	...
1000055e:	0000                	unimp
10000560:	0606                	slli	a2,a2,0x1
10000562:	0000                	unimp
10000564:	0000                	unimp
10000566:	4080                	lw	s0,0(s1)
10000568:	2040                	fld	fs0,128(s0)
1000056a:	1020                	addi	s0,sp,40
1000056c:	0810                	addi	a2,sp,16
1000056e:	0408                	addi	a0,sp,512
10000570:	0204                	addi	s1,sp,256
10000572:	0002                	c.slli64	zero
10000574:	0000                	unimp
10000576:	1800                	addi	s0,sp,48
10000578:	4224                	lw	s1,64(a2)
1000057a:	4242                	lw	tp,16(sp)
1000057c:	4242                	lw	tp,16(sp)
1000057e:	4242                	lw	tp,16(sp)
10000580:	1824                	addi	s1,sp,56
10000582:	0000                	unimp
10000584:	0000                	unimp
10000586:	0800                	addi	s0,sp,16
10000588:	080e                	slli	a6,a6,0x3
1000058a:	0808                	addi	a0,sp,16
1000058c:	0808                	addi	a0,sp,16
1000058e:	0808                	addi	a0,sp,16
10000590:	3e08                	fld	fa0,56(a2)
10000592:	0000                	unimp
10000594:	0000                	unimp
10000596:	3c00                	fld	fs0,56(s0)
10000598:	4242                	lw	tp,16(sp)
1000059a:	2042                	fld	ft0,16(sp)
1000059c:	1020                	addi	s0,sp,40
1000059e:	0408                	addi	a0,sp,512
100005a0:	7e42                	flw	ft8,48(sp)
100005a2:	0000                	unimp
100005a4:	0000                	unimp
100005a6:	3c00                	fld	fs0,56(s0)
100005a8:	4242                	lw	tp,16(sp)
100005aa:	1820                	addi	s0,sp,56
100005ac:	4020                	lw	s0,64(s0)
100005ae:	4240                	lw	s0,4(a2)
100005b0:	1c22                	slli	s8,s8,0x28
100005b2:	0000                	unimp
100005b4:	0000                	unimp
100005b6:	2000                	fld	fs0,0(s0)
100005b8:	2830                	fld	fa2,80(s0)
100005ba:	2424                	fld	fs1,72(s0)
100005bc:	2222                	fld	ft4,8(sp)
100005be:	207e                	fld	ft0,472(sp)
100005c0:	7820                	flw	fs0,112(s0)
100005c2:	0000                	unimp
100005c4:	0000                	unimp
100005c6:	7e00                	flw	fs0,56(a2)
100005c8:	0202                	c.slli64	tp
100005ca:	1a02                	slli	s4,s4,0x20
100005cc:	4026                	0x4026
100005ce:	4240                	lw	s0,4(a2)
100005d0:	1c22                	slli	s8,s8,0x28
100005d2:	0000                	unimp
100005d4:	0000                	unimp
100005d6:	3800                	fld	fs0,48(s0)
100005d8:	0224                	addi	s1,sp,264
100005da:	1a02                	slli	s4,s4,0x20
100005dc:	4226                	lw	tp,72(sp)
100005de:	4242                	lw	tp,16(sp)
100005e0:	1824                	addi	s1,sp,56
100005e2:	0000                	unimp
100005e4:	0000                	unimp
100005e6:	7e00                	flw	fs0,56(a2)
100005e8:	2222                	fld	ft4,8(sp)
100005ea:	1010                	addi	a2,sp,32
100005ec:	0808                	addi	a0,sp,16
100005ee:	0808                	addi	a0,sp,16
100005f0:	0808                	addi	a0,sp,16
100005f2:	0000                	unimp
100005f4:	0000                	unimp
100005f6:	3c00                	fld	fs0,56(s0)
100005f8:	4242                	lw	tp,16(sp)
100005fa:	2442                	fld	fs0,16(sp)
100005fc:	2418                	fld	fa4,8(s0)
100005fe:	4242                	lw	tp,16(sp)
10000600:	3c42                	fld	fs8,48(sp)
10000602:	0000                	unimp
10000604:	0000                	unimp
10000606:	1800                	addi	s0,sp,48
10000608:	4224                	lw	s1,64(a2)
1000060a:	4242                	lw	tp,16(sp)
1000060c:	5864                	lw	s1,116(s0)
1000060e:	4040                	lw	s0,4(s0)
10000610:	1c24                	addi	s1,sp,568
	...
1000061a:	1818                	addi	a4,sp,48
1000061c:	0000                	unimp
1000061e:	0000                	unimp
10000620:	1818                	addi	a4,sp,48
	...
1000062a:	0800                	addi	s0,sp,16
1000062c:	0000                	unimp
1000062e:	0000                	unimp
10000630:	0800                	addi	s0,sp,16
10000632:	0408                	addi	a0,sp,512
10000634:	0000                	unimp
10000636:	4000                	lw	s0,0(s0)
10000638:	1020                	addi	s0,sp,40
1000063a:	0408                	addi	a0,sp,512
1000063c:	0402                	c.slli64	s0
1000063e:	1008                	addi	a0,sp,32
10000640:	4020                	lw	s0,64(s0)
	...
1000064a:	007f                	0x7f
1000064c:	0000                	unimp
1000064e:	007f                	0x7f
10000650:	0000                	unimp
10000652:	0000                	unimp
10000654:	0000                	unimp
10000656:	0200                	addi	s0,sp,256
10000658:	0804                	addi	s1,sp,16
1000065a:	2010                	fld	fa2,0(s0)
1000065c:	2040                	fld	fs0,128(s0)
1000065e:	0810                	addi	a2,sp,16
10000660:	0204                	addi	s1,sp,256
10000662:	0000                	unimp
10000664:	0000                	unimp
10000666:	3c00                	fld	fs0,56(s0)
10000668:	4242                	lw	tp,16(sp)
1000066a:	4046                	0x4046
1000066c:	1020                	addi	s0,sp,40
1000066e:	0010                	0x10
10000670:	1818                	addi	a4,sp,48
10000672:	0000                	unimp
10000674:	0000                	unimp
10000676:	1c00                	addi	s0,sp,560
10000678:	5a22                	lw	s4,40(sp)
1000067a:	5555                	li	a0,-11
1000067c:	5555                	li	a0,-11
1000067e:	422d                	li	tp,11
10000680:	1c22                	slli	s8,s8,0x28
10000682:	0000                	unimp
10000684:	0000                	unimp
10000686:	0800                	addi	s0,sp,16
10000688:	1808                	addi	a0,sp,48
1000068a:	1414                	addi	a3,sp,544
1000068c:	3c24                	fld	fs1,120(s0)
1000068e:	4222                	lw	tp,8(sp)
10000690:	e742                	fsw	fa6,140(sp)
10000692:	0000                	unimp
10000694:	0000                	unimp
10000696:	1f00                	addi	s0,sp,944
10000698:	2222                	fld	ft4,8(sp)
1000069a:	1e22                	slli	t3,t3,0x28
1000069c:	4222                	lw	tp,8(sp)
1000069e:	4242                	lw	tp,16(sp)
100006a0:	1f22                	slli	t5,t5,0x28
100006a2:	0000                	unimp
100006a4:	0000                	unimp
100006a6:	7c00                	flw	fs0,56(s0)
100006a8:	4242                	lw	tp,16(sp)
100006aa:	0101                	addi	sp,sp,0
100006ac:	0101                	addi	sp,sp,0
100006ae:	4201                	li	tp,0
100006b0:	1c22                	slli	s8,s8,0x28
100006b2:	0000                	unimp
100006b4:	0000                	unimp
100006b6:	1f00                	addi	s0,sp,944
100006b8:	4222                	lw	tp,8(sp)
100006ba:	4242                	lw	tp,16(sp)
100006bc:	4242                	lw	tp,16(sp)
100006be:	4242                	lw	tp,16(sp)
100006c0:	1f22                	slli	t5,t5,0x28
100006c2:	0000                	unimp
100006c4:	0000                	unimp
100006c6:	3f00                	fld	fs0,56(a4)
100006c8:	1242                	slli	tp,tp,0x30
100006ca:	1e12                	slli	t3,t3,0x24
100006cc:	1212                	slli	tp,tp,0x24
100006ce:	4202                	lw	tp,0(sp)
100006d0:	3f42                	fld	ft10,48(sp)
100006d2:	0000                	unimp
100006d4:	0000                	unimp
100006d6:	3f00                	fld	fs0,56(a4)
100006d8:	1242                	slli	tp,tp,0x30
100006da:	1e12                	slli	t3,t3,0x24
100006dc:	1212                	slli	tp,tp,0x24
100006de:	0202                	c.slli64	tp
100006e0:	0702                	c.slli64	a4
100006e2:	0000                	unimp
100006e4:	0000                	unimp
100006e6:	3c00                	fld	fs0,56(s0)
100006e8:	2222                	fld	ft4,8(sp)
100006ea:	0101                	addi	sp,sp,0
100006ec:	7101                	addi	sp,sp,-512
100006ee:	2221                	jal	100007f6 <ascii_1608+0x382>
100006f0:	1c22                	slli	s8,s8,0x28
100006f2:	0000                	unimp
100006f4:	0000                	unimp
100006f6:	e700                	fsw	fs0,8(a4)
100006f8:	4242                	lw	tp,16(sp)
100006fa:	4242                	lw	tp,16(sp)
100006fc:	427e                	lw	tp,220(sp)
100006fe:	4242                	lw	tp,16(sp)
10000700:	e742                	fsw	fa6,140(sp)
10000702:	0000                	unimp
10000704:	0000                	unimp
10000706:	3e00                	fld	fs0,56(a2)
10000708:	0808                	addi	a0,sp,16
1000070a:	0808                	addi	a0,sp,16
1000070c:	0808                	addi	a0,sp,16
1000070e:	0808                	addi	a0,sp,16
10000710:	3e08                	fld	fa0,56(a2)
10000712:	0000                	unimp
10000714:	0000                	unimp
10000716:	7c00                	flw	fs0,56(s0)
10000718:	1010                	addi	a2,sp,32
1000071a:	1010                	addi	a2,sp,32
1000071c:	1010                	addi	a2,sp,32
1000071e:	1010                	addi	a2,sp,32
10000720:	1010                	addi	a2,sp,32
10000722:	0f11                	addi	t5,t5,4
10000724:	0000                	unimp
10000726:	7700                	flw	fs0,40(a4)
10000728:	1222                	slli	tp,tp,0x28
1000072a:	0e0a                	slli	t3,t3,0x2
1000072c:	120a                	slli	tp,tp,0x22
1000072e:	2212                	fld	ft4,256(sp)
10000730:	7722                	flw	fa4,40(sp)
10000732:	0000                	unimp
10000734:	0000                	unimp
10000736:	0700                	addi	s0,sp,896
10000738:	0202                	c.slli64	tp
1000073a:	0202                	c.slli64	tp
1000073c:	0202                	c.slli64	tp
1000073e:	0202                	c.slli64	tp
10000740:	7f42                	flw	ft10,48(sp)
10000742:	0000                	unimp
10000744:	0000                	unimp
10000746:	7700                	flw	fs0,40(a4)
10000748:	3636                	fld	fa2,360(sp)
1000074a:	3636                	fld	fa2,360(sp)
1000074c:	2a2a                	fld	fs4,136(sp)
1000074e:	2a2a                	fld	fs4,136(sp)
10000750:	6b2a                	flw	fs6,136(sp)
10000752:	0000                	unimp
10000754:	0000                	unimp
10000756:	e300                	fsw	fs0,0(a4)
10000758:	4646                	lw	a2,80(sp)
1000075a:	4a4a                	lw	s4,144(sp)
1000075c:	5252                	lw	tp,52(sp)
1000075e:	6252                	flw	ft4,20(sp)
10000760:	4762                	lw	a4,24(sp)
10000762:	0000                	unimp
10000764:	0000                	unimp
10000766:	1c00                	addi	s0,sp,560
10000768:	4122                	lw	sp,8(sp)
1000076a:	4141                	li	sp,16
1000076c:	4141                	li	sp,16
1000076e:	4141                	li	sp,16
10000770:	1c22                	slli	s8,s8,0x28
10000772:	0000                	unimp
10000774:	0000                	unimp
10000776:	3f00                	fld	fs0,56(a4)
10000778:	4242                	lw	tp,16(sp)
1000077a:	4242                	lw	tp,16(sp)
1000077c:	023e                	slli	tp,tp,0xf
1000077e:	0202                	c.slli64	tp
10000780:	0702                	c.slli64	a4
10000782:	0000                	unimp
10000784:	0000                	unimp
10000786:	1c00                	addi	s0,sp,560
10000788:	4122                	lw	sp,8(sp)
1000078a:	4141                	li	sp,16
1000078c:	4141                	li	sp,16
1000078e:	534d                	li	t1,-13
10000790:	1c32                	slli	s8,s8,0x2c
10000792:	0060                	addi	s0,sp,12
10000794:	0000                	unimp
10000796:	3f00                	fld	fs0,56(a4)
10000798:	4242                	lw	tp,16(sp)
1000079a:	3e42                	fld	ft8,48(sp)
1000079c:	1212                	slli	tp,tp,0x24
1000079e:	2222                	fld	ft4,8(sp)
100007a0:	c742                	sw	a6,140(sp)
100007a2:	0000                	unimp
100007a4:	0000                	unimp
100007a6:	7c00                	flw	fs0,56(s0)
100007a8:	4242                	lw	tp,16(sp)
100007aa:	0402                	c.slli64	s0
100007ac:	2018                	fld	fa4,0(s0)
100007ae:	4240                	lw	s0,4(a2)
100007b0:	3e42                	fld	ft8,48(sp)
100007b2:	0000                	unimp
100007b4:	0000                	unimp
100007b6:	7f00                	flw	fs0,56(a4)
100007b8:	0849                	addi	a6,a6,18
100007ba:	0808                	addi	a0,sp,16
100007bc:	0808                	addi	a0,sp,16
100007be:	0808                	addi	a0,sp,16
100007c0:	1c08                	addi	a0,sp,560
100007c2:	0000                	unimp
100007c4:	0000                	unimp
100007c6:	e700                	fsw	fs0,8(a4)
100007c8:	4242                	lw	tp,16(sp)
100007ca:	4242                	lw	tp,16(sp)
100007cc:	4242                	lw	tp,16(sp)
100007ce:	4242                	lw	tp,16(sp)
100007d0:	3c42                	fld	fs8,48(sp)
100007d2:	0000                	unimp
100007d4:	0000                	unimp
100007d6:	e700                	fsw	fs0,8(a4)
100007d8:	4242                	lw	tp,16(sp)
100007da:	2422                	fld	fs0,8(sp)
100007dc:	1424                	addi	s1,sp,552
100007de:	1814                	addi	a3,sp,48
100007e0:	0808                	addi	a0,sp,16
100007e2:	0000                	unimp
100007e4:	0000                	unimp
100007e6:	6b00                	flw	fs0,16(a4)
100007e8:	4949                	li	s2,18
100007ea:	4949                	li	s2,18
100007ec:	5555                	li	a0,-11
100007ee:	2236                	fld	ft4,328(sp)
100007f0:	2222                	fld	ft4,8(sp)
100007f2:	0000                	unimp
100007f4:	0000                	unimp
100007f6:	e700                	fsw	fs0,8(a4)
100007f8:	2442                	fld	fs0,16(sp)
100007fa:	1824                	addi	s1,sp,56
100007fc:	1818                	addi	a4,sp,48
100007fe:	2424                	fld	fs1,72(s0)
10000800:	e742                	fsw	fa6,140(sp)
10000802:	0000                	unimp
10000804:	0000                	unimp
10000806:	7700                	flw	fs0,40(a4)
10000808:	2222                	fld	ft4,8(sp)
1000080a:	1414                	addi	a3,sp,544
1000080c:	0808                	addi	a0,sp,16
1000080e:	0808                	addi	a0,sp,16
10000810:	1c08                	addi	a0,sp,560
10000812:	0000                	unimp
10000814:	0000                	unimp
10000816:	7e00                	flw	fs0,56(a2)
10000818:	2021                	jal	10000820 <ascii_1608+0x3ac>
1000081a:	1010                	addi	a2,sp,32
1000081c:	0408                	addi	a0,sp,512
1000081e:	4204                	lw	s1,0(a2)
10000820:	3f42                	fld	ft10,48(sp)
10000822:	0000                	unimp
10000824:	7800                	flw	fs0,48(s0)
10000826:	0808                	addi	a0,sp,16
10000828:	0808                	addi	a0,sp,16
1000082a:	0808                	addi	a0,sp,16
1000082c:	0808                	addi	a0,sp,16
1000082e:	0808                	addi	a0,sp,16
10000830:	0808                	addi	a0,sp,16
10000832:	0078                	addi	a4,sp,12
10000834:	0000                	unimp
10000836:	0202                	c.slli64	tp
10000838:	0404                	addi	s1,sp,512
1000083a:	0808                	addi	a0,sp,16
1000083c:	1008                	addi	a0,sp,32
1000083e:	2010                	fld	fa2,0(s0)
10000840:	2020                	fld	fs0,64(s0)
10000842:	4040                	lw	s0,4(s0)
10000844:	1e00                	addi	s0,sp,816
10000846:	1010                	addi	a2,sp,32
10000848:	1010                	addi	a2,sp,32
1000084a:	1010                	addi	a2,sp,32
1000084c:	1010                	addi	a2,sp,32
1000084e:	1010                	addi	a2,sp,32
10000850:	1010                	addi	a2,sp,32
10000852:	001e                	c.slli	zero,0x7
10000854:	3800                	fld	fs0,48(s0)
10000856:	0044                	addi	s1,sp,4
	...
10000870:	0000                	unimp
10000872:	ff00                	fsw	fs0,56(a4)
10000874:	0600                	addi	s0,sp,768
10000876:	0008                	0x8
	...
10000888:	0000                	unimp
1000088a:	3c00                	fld	fs0,56(s0)
1000088c:	7842                	flw	fa6,48(sp)
1000088e:	4244                	lw	s1,4(a2)
10000890:	fc42                	fsw	fa6,56(sp)
10000892:	0000                	unimp
10000894:	0000                	unimp
10000896:	0300                	addi	s0,sp,384
10000898:	0202                	c.slli64	tp
1000089a:	1a02                	slli	s4,s4,0x20
1000089c:	4226                	lw	tp,72(sp)
1000089e:	4242                	lw	tp,16(sp)
100008a0:	1a26                	slli	s4,s4,0x29
	...
100008aa:	3800                	fld	fs0,48(s0)
100008ac:	0244                	addi	s1,sp,260
100008ae:	0202                	c.slli64	tp
100008b0:	3844                	fld	fs1,176(s0)
100008b2:	0000                	unimp
100008b4:	0000                	unimp
100008b6:	6000                	flw	fs0,0(s0)
100008b8:	4040                	lw	s0,4(s0)
100008ba:	7840                	flw	fs0,52(s0)
100008bc:	4244                	lw	s1,4(a2)
100008be:	4242                	lw	tp,16(sp)
100008c0:	d864                	sw	s1,116(s0)
	...
100008ca:	3c00                	fld	fs0,56(s0)
100008cc:	7e42                	flw	ft8,48(sp)
100008ce:	0202                	c.slli64	tp
100008d0:	3c42                	fld	fs8,48(sp)
100008d2:	0000                	unimp
100008d4:	0000                	unimp
100008d6:	f000                	fsw	fs0,32(s0)
100008d8:	0888                	addi	a0,sp,80
100008da:	7e08                	flw	fa0,56(a2)
100008dc:	0808                	addi	a0,sp,16
100008de:	0808                	addi	a0,sp,16
100008e0:	3e08                	fld	fa0,56(a2)
	...
100008ea:	7c00                	flw	fs0,56(s0)
100008ec:	2222                	fld	ft4,8(sp)
100008ee:	021c                	addi	a5,sp,256
100008f0:	423c                	lw	a5,64(a2)
100008f2:	3c42                	fld	fs8,48(sp)
100008f4:	0000                	unimp
100008f6:	0300                	addi	s0,sp,384
100008f8:	0202                	c.slli64	tp
100008fa:	3a02                	fld	fs4,32(sp)
100008fc:	4246                	lw	tp,80(sp)
100008fe:	4242                	lw	tp,16(sp)
10000900:	e742                	fsw	fa6,140(sp)
10000902:	0000                	unimp
10000904:	0000                	unimp
10000906:	0c00                	addi	s0,sp,528
10000908:	000c                	0xc
1000090a:	0e00                	addi	s0,sp,784
1000090c:	0808                	addi	a0,sp,16
1000090e:	0808                	addi	a0,sp,16
10000910:	3e08                	fld	fa0,56(a2)
10000912:	0000                	unimp
10000914:	0000                	unimp
10000916:	3000                	fld	fs0,32(s0)
10000918:	0030                	addi	a2,sp,8
1000091a:	3800                	fld	fs0,48(s0)
1000091c:	2020                	fld	fs0,64(s0)
1000091e:	2020                	fld	fs0,64(s0)
10000920:	2020                	fld	fs0,64(s0)
10000922:	1e22                	slli	t3,t3,0x28
10000924:	0000                	unimp
10000926:	0300                	addi	s0,sp,384
10000928:	0202                	c.slli64	tp
1000092a:	7202                	flw	ft4,32(sp)
1000092c:	0a12                	slli	s4,s4,0x4
1000092e:	1216                	slli	tp,tp,0x25
10000930:	7722                	flw	fa4,40(sp)
10000932:	0000                	unimp
10000934:	0000                	unimp
10000936:	0e00                	addi	s0,sp,784
10000938:	0808                	addi	a0,sp,16
1000093a:	0808                	addi	a0,sp,16
1000093c:	0808                	addi	a0,sp,16
1000093e:	0808                	addi	a0,sp,16
10000940:	3e08                	fld	fa0,56(a2)
	...
1000094a:	7f00                	flw	fs0,56(a4)
1000094c:	9292                	add	t0,t0,tp
1000094e:	9292                	add	t0,t0,tp
10000950:	b792                	fsd	ft4,488(sp)
	...
1000095a:	3b00                	fld	fs0,48(a4)
1000095c:	4246                	lw	tp,80(sp)
1000095e:	4242                	lw	tp,16(sp)
10000960:	e742                	fsw	fa6,140(sp)
	...
1000096a:	3c00                	fld	fs0,56(s0)
1000096c:	4242                	lw	tp,16(sp)
1000096e:	4242                	lw	tp,16(sp)
10000970:	3c42                	fld	fs8,48(sp)
	...
1000097a:	1b00                	addi	s0,sp,432
1000097c:	4226                	lw	tp,72(sp)
1000097e:	4242                	lw	tp,16(sp)
10000980:	1e22                	slli	t3,t3,0x28
10000982:	0702                	c.slli64	a4
10000984:	0000                	unimp
10000986:	0000                	unimp
10000988:	0000                	unimp
1000098a:	7800                	flw	fs0,48(s0)
1000098c:	4244                	lw	s1,4(a2)
1000098e:	4242                	lw	tp,16(sp)
10000990:	7844                	flw	fs1,52(s0)
10000992:	e040                	fsw	fs0,4(s0)
10000994:	0000                	unimp
10000996:	0000                	unimp
10000998:	0000                	unimp
1000099a:	7700                	flw	fs0,40(a4)
1000099c:	044c                	addi	a1,sp,516
1000099e:	0404                	addi	s1,sp,512
100009a0:	1f04                	addi	s1,sp,944
	...
100009aa:	7c00                	flw	fs0,56(s0)
100009ac:	0242                	slli	tp,tp,0x10
100009ae:	403c                	lw	a5,64(s0)
100009b0:	3e42                	fld	ft8,48(sp)
100009b2:	0000                	unimp
100009b4:	0000                	unimp
100009b6:	0000                	unimp
100009b8:	0800                	addi	s0,sp,16
100009ba:	3e08                	fld	fa0,56(a2)
100009bc:	0808                	addi	a0,sp,16
100009be:	0808                	addi	a0,sp,16
100009c0:	3008                	fld	fa0,32(s0)
	...
100009ca:	6300                	flw	fs0,0(a4)
100009cc:	4242                	lw	tp,16(sp)
100009ce:	4242                	lw	tp,16(sp)
100009d0:	dc62                	sw	s8,56(sp)
	...
100009da:	e700                	fsw	fs0,8(a4)
100009dc:	2442                	fld	fs0,16(sp)
100009de:	1424                	addi	s1,sp,552
100009e0:	0808                	addi	a0,sp,16
	...
100009ea:	eb00                	fsw	fs0,16(a4)
100009ec:	4949                	li	s2,18
100009ee:	5555                	li	a0,-11
100009f0:	2222                	fld	ft4,8(sp)
	...
100009fa:	7600                	flw	fs0,40(a2)
100009fc:	1824                	addi	s1,sp,56
100009fe:	1818                	addi	a4,sp,48
10000a00:	6e24                	flw	fs1,88(a2)
	...
10000a0a:	e700                	fsw	fs0,8(a4)
10000a0c:	2442                	fld	fs0,16(sp)
10000a0e:	1424                	addi	s1,sp,552
10000a10:	0818                	addi	a4,sp,16
10000a12:	0708                	addi	a0,sp,896
10000a14:	0000                	unimp
10000a16:	0000                	unimp
10000a18:	0000                	unimp
10000a1a:	7e00                	flw	fs0,56(a2)
10000a1c:	1022                	c.slli	zero,0x28
10000a1e:	0808                	addi	a0,sp,16
10000a20:	7e44                	flw	fs1,60(a2)
10000a22:	0000                	unimp
10000a24:	c000                	sw	s0,0(s0)
10000a26:	2020                	fld	fs0,64(s0)
10000a28:	2020                	fld	fs0,64(s0)
10000a2a:	1020                	addi	s0,sp,40
10000a2c:	2020                	fld	fs0,64(s0)
10000a2e:	2020                	fld	fs0,64(s0)
10000a30:	2020                	fld	fs0,64(s0)
10000a32:	00c0                	addi	s0,sp,68
10000a34:	1010                	addi	a2,sp,32
10000a36:	1010                	addi	a2,sp,32
10000a38:	1010                	addi	a2,sp,32
10000a3a:	1010                	addi	a2,sp,32
10000a3c:	1010                	addi	a2,sp,32
10000a3e:	1010                	addi	a2,sp,32
10000a40:	1010                	addi	a2,sp,32
10000a42:	1010                	addi	a2,sp,32
10000a44:	0600                	addi	s0,sp,768
10000a46:	0808                	addi	a0,sp,16
10000a48:	0808                	addi	a0,sp,16
10000a4a:	1008                	addi	a0,sp,32
10000a4c:	0808                	addi	a0,sp,16
10000a4e:	0808                	addi	a0,sp,16
10000a50:	0808                	addi	a0,sp,16
10000a52:	0006                	c.slli	zero,0x1
10000a54:	320c                	fld	fa1,32(a2)
10000a56:	00c2                	slli	ra,ra,0x10
	...

10000a64 <ascii_2412>:
	...
10000a9c:	0060                	addi	s0,sp,12
10000a9e:	0060                	addi	s0,sp,12
10000aa0:	0060                	addi	s0,sp,12
10000aa2:	0060                	addi	s0,sp,12
10000aa4:	0060                	addi	s0,sp,12
10000aa6:	0060                	addi	s0,sp,12
10000aa8:	0060                	addi	s0,sp,12
10000aaa:	0040                	addi	s0,sp,4
10000aac:	0020                	addi	s0,sp,8
10000aae:	0020                	addi	s0,sp,8
10000ab0:	0020                	addi	s0,sp,8
10000ab2:	0000                	unimp
10000ab4:	0000                	unimp
10000ab6:	0000                	unimp
10000ab8:	0060                	addi	s0,sp,12
10000aba:	0060                	addi	s0,sp,12
10000abc:	0060                	addi	s0,sp,12
	...
10000ac6:	0000                	unimp
10000ac8:	0660                	addi	s0,sp,780
10000aca:	0660                	addi	s0,sp,780
10000acc:	0330                	addi	a2,sp,392
10000ace:	0198                	addi	a4,sp,192
10000ad0:	0088                	addi	a0,sp,64
10000ad2:	0044                	addi	s1,sp,4
	...
10000afc:	0210                	addi	a2,sp,256
10000afe:	0210                	addi	a2,sp,256
10000b00:	0210                	addi	a2,sp,256
10000b02:	0210                	addi	a2,sp,256
10000b04:	07fe                	slli	a5,a5,0x1f
10000b06:	07fe                	slli	a5,a5,0x1f
10000b08:	0208                	addi	a0,sp,256
10000b0a:	0108                	addi	a0,sp,128
10000b0c:	0108                	addi	a0,sp,128
10000b0e:	0108                	addi	a0,sp,128
10000b10:	0108                	addi	a0,sp,128
10000b12:	07fe                	slli	a5,a5,0x1f
10000b14:	07fe                	slli	a5,a5,0x1f
10000b16:	0104                	addi	s1,sp,128
10000b18:	0104                	addi	s1,sp,128
10000b1a:	0104                	addi	s1,sp,128
10000b1c:	0104                	addi	s1,sp,128
	...
10000b2a:	0040                	addi	s0,sp,4
10000b2c:	0040                	addi	s0,sp,4
10000b2e:	01f0                	addi	a2,sp,204
10000b30:	0358                	addi	a4,sp,388
10000b32:	034c                	addi	a1,sp,388
10000b34:	03cc                	addi	a1,sp,452
10000b36:	004c                	addi	a1,sp,4
10000b38:	0058                	addi	a4,sp,4
10000b3a:	0070                	addi	a2,sp,12
10000b3c:	00e0                	addi	s0,sp,76
10000b3e:	01c0                	addi	s0,sp,196
10000b40:	01c0                	addi	s0,sp,196
10000b42:	0340                	addi	s0,sp,388
10000b44:	034c                	addi	a1,sp,388
10000b46:	035c                	addi	a5,sp,388
10000b48:	034c                	addi	a1,sp,388
10000b4a:	0148                	addi	a0,sp,132
10000b4c:	00f0                	addi	a2,sp,76
10000b4e:	0040                	addi	s0,sp,4
10000b50:	0040                	addi	s0,sp,4
	...
10000b5a:	0000                	unimp
10000b5c:	010e                	slli	sp,sp,0x3
10000b5e:	010a                	slli	sp,sp,0x2
10000b60:	0091                	addi	ra,ra,4
10000b62:	0091                	addi	ra,ra,4
10000b64:	0091                	addi	ra,ra,4
10000b66:	0051                	c.nop	20
10000b68:	0051                	c.nop	20
10000b6a:	003a                	c.slli	zero,0xe
10000b6c:	03ae                	slli	t2,t2,0xb
10000b6e:	02a0                	addi	s0,sp,328
10000b70:	0450                	addi	a2,sp,516
10000b72:	0450                	addi	a2,sp,516
10000b74:	0448                	addi	a0,sp,516
10000b76:	0448                	addi	a0,sp,516
10000b78:	0448                	addi	a0,sp,516
10000b7a:	0284                	addi	s1,sp,320
10000b7c:	0384                	addi	s1,sp,448
	...
10000b8a:	0000                	unimp
10000b8c:	0038                	addi	a4,sp,8
10000b8e:	006c                	addi	a1,sp,12
10000b90:	006c                	addi	a1,sp,12
10000b92:	006c                	addi	a1,sp,12
10000b94:	006c                	addi	a1,sp,12
10000b96:	006c                	addi	a1,sp,12
10000b98:	002c                	addi	a1,sp,8
10000b9a:	0798                	addi	a4,sp,960
10000b9c:	011c                	addi	a5,sp,128
10000b9e:	011a                	slli	sp,sp,0x6
10000ba0:	01330133          	add	sp,t1,s3
10000ba4:	00e30163          	beq	t1,a4,10000ba6 <ascii_2412+0x142>
10000ba8:	09c608c3          	fmadd.s	fa7,fa2,ft8,ft1,rne
10000bac:	073c                	addi	a5,sp,904
	...
10000bb6:	0000                	unimp
10000bb8:	000c                	0xc
10000bba:	001c                	0x1c
10000bbc:	0010                	0x10
10000bbe:	0010                	0x10
10000bc0:	0008                	0x8
10000bc2:	0004                	0x4
	...
10000be8:	0400                	addi	s0,sp,512
10000bea:	0200                	addi	s0,sp,256
10000bec:	0100                	addi	s0,sp,128
10000bee:	0080                	addi	s0,sp,64
10000bf0:	0080                	addi	s0,sp,64
10000bf2:	0040                	addi	s0,sp,4
10000bf4:	0040                	addi	s0,sp,4
10000bf6:	0020                	addi	s0,sp,8
10000bf8:	0020                	addi	s0,sp,8
10000bfa:	0020                	addi	s0,sp,8
10000bfc:	0020                	addi	s0,sp,8
10000bfe:	0020                	addi	s0,sp,8
10000c00:	0020                	addi	s0,sp,8
10000c02:	0020                	addi	s0,sp,8
10000c04:	0040                	addi	s0,sp,4
10000c06:	0040                	addi	s0,sp,4
10000c08:	0080                	addi	s0,sp,64
10000c0a:	0080                	addi	s0,sp,64
10000c0c:	0100                	addi	s0,sp,128
10000c0e:	0200                	addi	s0,sp,256
10000c10:	0400                	addi	s0,sp,512
10000c12:	0000                	unimp
10000c14:	0000                	unimp
10000c16:	0000                	unimp
10000c18:	0002                	c.slli64	zero
10000c1a:	0004                	0x4
10000c1c:	0008                	0x8
10000c1e:	0010                	0x10
10000c20:	0010                	0x10
10000c22:	0020                	addi	s0,sp,8
10000c24:	0020                	addi	s0,sp,8
10000c26:	0040                	addi	s0,sp,4
10000c28:	0040                	addi	s0,sp,4
10000c2a:	0040                	addi	s0,sp,4
10000c2c:	0040                	addi	s0,sp,4
10000c2e:	0040                	addi	s0,sp,4
10000c30:	0040                	addi	s0,sp,4
10000c32:	0040                	addi	s0,sp,4
10000c34:	0020                	addi	s0,sp,8
10000c36:	0020                	addi	s0,sp,8
10000c38:	0010                	0x10
10000c3a:	0010                	0x10
10000c3c:	0008                	0x8
10000c3e:	0004                	0x4
10000c40:	0002                	c.slli64	zero
	...
10000c4e:	0000                	unimp
10000c50:	0040                	addi	s0,sp,4
10000c52:	00c0                	addi	s0,sp,68
10000c54:	0040                	addi	s0,sp,4
10000c56:	0c46                	slli	s8,s8,0x11
10000c58:	0f4e                	slli	t5,t5,0x13
10000c5a:	01d0                	addi	a2,sp,196
10000c5c:	01f0                	addi	a2,sp,204
10000c5e:	0f5e                	slli	t5,t5,0x17
10000c60:	0c46                	slli	s8,s8,0x11
10000c62:	0040                	addi	s0,sp,4
10000c64:	0040                	addi	s0,sp,4
10000c66:	0040                	addi	s0,sp,4
	...
10000c80:	0000                	unimp
10000c82:	0040                	addi	s0,sp,4
10000c84:	0040                	addi	s0,sp,4
10000c86:	0040                	addi	s0,sp,4
10000c88:	0040                	addi	s0,sp,4
10000c8a:	0040                	addi	s0,sp,4
10000c8c:	0ffe                	slli	t6,t6,0x1f
10000c8e:	0040                	addi	s0,sp,4
10000c90:	0040                	addi	s0,sp,4
10000c92:	0040                	addi	s0,sp,4
10000c94:	0040                	addi	s0,sp,4
10000c96:	0040                	addi	s0,sp,4
	...
10000cc8:	000c                	0xc
10000cca:	001c                	0x1c
10000ccc:	0010                	0x10
10000cce:	0010                	0x10
10000cd0:	0008                	0x8
10000cd2:	0004                	0x4
	...
10000cec:	07fe                	slli	a5,a5,0x1f
	...
10000d26:	0000                	unimp
10000d28:	001c                	0x1c
10000d2a:	001c                	0x1c
10000d2c:	001c                	0x1c
	...
10000d36:	0000                	unimp
10000d38:	0400                	addi	s0,sp,512
10000d3a:	0600                	addi	s0,sp,768
10000d3c:	0200                	addi	s0,sp,256
10000d3e:	0300                	addi	s0,sp,384
10000d40:	0100                	addi	s0,sp,128
10000d42:	0100                	addi	s0,sp,128
10000d44:	0080                	addi	s0,sp,64
10000d46:	0080                	addi	s0,sp,64
10000d48:	0040                	addi	s0,sp,4
10000d4a:	0040                	addi	s0,sp,4
10000d4c:	0060                	addi	s0,sp,12
10000d4e:	0020                	addi	s0,sp,8
10000d50:	0020                	addi	s0,sp,8
10000d52:	0010                	0x10
10000d54:	0010                	0x10
10000d56:	0008                	0x8
10000d58:	0008                	0x8
10000d5a:	000c                	0xc
10000d5c:	0004                	0x4
10000d5e:	0006                	c.slli	zero,0x1
10000d60:	0002                	c.slli64	zero
	...
10000d6e:	00f0                	addi	a2,sp,76
10000d70:	0198                	addi	a4,sp,192
10000d72:	030c                	addi	a1,sp,384
10000d74:	030c                	addi	a1,sp,384
10000d76:	0606                	slli	a2,a2,0x1
10000d78:	0606                	slli	a2,a2,0x1
10000d7a:	0606                	slli	a2,a2,0x1
10000d7c:	0606                	slli	a2,a2,0x1
10000d7e:	0606                	slli	a2,a2,0x1
10000d80:	0606                	slli	a2,a2,0x1
10000d82:	0606                	slli	a2,a2,0x1
10000d84:	0606                	slli	a2,a2,0x1
10000d86:	030c                	addi	a1,sp,384
10000d88:	030c                	addi	a1,sp,384
10000d8a:	0198                	addi	a4,sp,192
10000d8c:	00f0                	addi	a2,sp,76
	...
10000d9e:	0040                	addi	s0,sp,4
10000da0:	007c                	addi	a5,sp,12
10000da2:	0060                	addi	s0,sp,12
10000da4:	0060                	addi	s0,sp,12
10000da6:	0060                	addi	s0,sp,12
10000da8:	0060                	addi	s0,sp,12
10000daa:	0060                	addi	s0,sp,12
10000dac:	0060                	addi	s0,sp,12
10000dae:	0060                	addi	s0,sp,12
10000db0:	0060                	addi	s0,sp,12
10000db2:	0060                	addi	s0,sp,12
10000db4:	0060                	addi	s0,sp,12
10000db6:	0060                	addi	s0,sp,12
10000db8:	0060                	addi	s0,sp,12
10000dba:	0060                	addi	s0,sp,12
10000dbc:	03fc                	addi	a5,sp,460
	...
10000dce:	00f8                	addi	a4,sp,76
10000dd0:	0184                	addi	s1,sp,192
10000dd2:	0302                	c.slli64	t1
10000dd4:	0306                	slli	t1,t1,0x1
10000dd6:	0306                	slli	t1,t1,0x1
10000dd8:	0300                	addi	s0,sp,384
10000dda:	0100                	addi	s0,sp,128
10000ddc:	0180                	addi	s0,sp,192
10000dde:	00c0                	addi	s0,sp,68
10000de0:	0060                	addi	s0,sp,12
10000de2:	0020                	addi	s0,sp,8
10000de4:	0010                	0x10
10000de6:	0208                	addi	a0,sp,256
10000de8:	0204                	addi	s1,sp,256
10000dea:	0206                	slli	tp,tp,0x1
10000dec:	03fe                	slli	t2,t2,0x1f
	...
10000dfe:	0078                	addi	a4,sp,12
10000e00:	00c6                	slli	ra,ra,0x11
10000e02:	0186                	slli	gp,gp,0x1
10000e04:	0186                	slli	gp,gp,0x1
10000e06:	0180                	addi	s0,sp,192
10000e08:	0180                	addi	s0,sp,192
10000e0a:	00c0                	addi	s0,sp,68
10000e0c:	0070                	addi	a2,sp,12
10000e0e:	0180                	addi	s0,sp,192
10000e10:	0100                	addi	s0,sp,128
10000e12:	0300                	addi	s0,sp,384
10000e14:	0300                	addi	s0,sp,384
10000e16:	0306                	slli	t1,t1,0x1
10000e18:	0306                	slli	t1,t1,0x1
10000e1a:	0186                	slli	gp,gp,0x1
10000e1c:	00f8                	addi	a4,sp,76
	...
10000e2e:	0180                	addi	s0,sp,192
10000e30:	0180                	addi	s0,sp,192
10000e32:	01c0                	addi	s0,sp,196
10000e34:	01a0                	addi	s0,sp,200
10000e36:	01a0                	addi	s0,sp,200
10000e38:	0190                	addi	a2,sp,192
10000e3a:	0188                	addi	a0,sp,192
10000e3c:	0188                	addi	a0,sp,192
10000e3e:	0184                	addi	s1,sp,192
10000e40:	0182                	c.slli64	gp
10000e42:	0ffe                	slli	t6,t6,0x1f
10000e44:	0180                	addi	s0,sp,192
10000e46:	0180                	addi	s0,sp,192
10000e48:	0180                	addi	s0,sp,192
10000e4a:	0180                	addi	s0,sp,192
10000e4c:	07e0                	addi	s0,sp,972
	...
10000e5e:	03fc                	addi	a5,sp,460
10000e60:	0004                	0x4
10000e62:	0004                	0x4
10000e64:	0004                	0x4
10000e66:	0004                	0x4
10000e68:	0004                	0x4
10000e6a:	00f4                	addi	a3,sp,76
10000e6c:	018c                	addi	a1,sp,192
10000e6e:	0304                	addi	s1,sp,384
10000e70:	0300                	addi	s0,sp,384
10000e72:	0300                	addi	s0,sp,384
10000e74:	0306                	slli	t1,t1,0x1
10000e76:	0306                	slli	t1,t1,0x1
10000e78:	0182                	c.slli64	gp
10000e7a:	0184                	addi	s1,sp,192
10000e7c:	00f8                	addi	a4,sp,76
	...
10000e8e:	01e0                	addi	s0,sp,204
10000e90:	0318                	addi	a4,sp,384
10000e92:	030c                	addi	a1,sp,384
10000e94:	000c                	0xc
10000e96:	0004                	0x4
10000e98:	0006                	c.slli	zero,0x1
10000e9a:	01e6                	slli	gp,gp,0x19
10000e9c:	0316                	slli	t1,t1,0x5
10000e9e:	060e                	slli	a2,a2,0x3
10000ea0:	0606                	slli	a2,a2,0x1
10000ea2:	0606                	slli	a2,a2,0x1
10000ea4:	0606                	slli	a2,a2,0x1
10000ea6:	0604                	addi	s1,sp,768
10000ea8:	020c                	addi	a1,sp,256
10000eaa:	0318                	addi	a4,sp,384
10000eac:	00f0                	addi	a2,sp,76
	...
10000ebe:	07f8                	addi	a4,sp,972
10000ec0:	060c                	addi	a1,sp,768
10000ec2:	0204                	addi	s1,sp,256
10000ec4:	0104                	addi	s1,sp,128
10000ec6:	0100                	addi	s0,sp,128
10000ec8:	0100                	addi	s0,sp,128
10000eca:	0080                	addi	s0,sp,64
10000ecc:	0080                	addi	s0,sp,64
10000ece:	0040                	addi	s0,sp,4
10000ed0:	0040                	addi	s0,sp,4
10000ed2:	0040                	addi	s0,sp,4
10000ed4:	0060                	addi	s0,sp,12
10000ed6:	0060                	addi	s0,sp,12
10000ed8:	0060                	addi	s0,sp,12
10000eda:	0060                	addi	s0,sp,12
10000edc:	0060                	addi	s0,sp,12
	...
10000eee:	01f8                	addi	a4,sp,204
10000ef0:	030c                	addi	a1,sp,384
10000ef2:	0606                	slli	a2,a2,0x1
10000ef4:	0606                	slli	a2,a2,0x1
10000ef6:	0606                	slli	a2,a2,0x1
10000ef8:	020c                	addi	a1,sp,256
10000efa:	031c                	addi	a5,sp,384
10000efc:	00f0                	addi	a2,sp,76
10000efe:	01c8                	addi	a0,sp,196
10000f00:	030c                	addi	a1,sp,384
10000f02:	0606                	slli	a2,a2,0x1
10000f04:	0606                	slli	a2,a2,0x1
10000f06:	0606                	slli	a2,a2,0x1
10000f08:	0606                	slli	a2,a2,0x1
10000f0a:	030c                	addi	a1,sp,384
10000f0c:	01f0                	addi	a2,sp,204
	...
10000f1e:	00f0                	addi	a2,sp,76
10000f20:	010c                	addi	a1,sp,128
10000f22:	030c                	addi	a1,sp,384
10000f24:	0206                	slli	tp,tp,0x1
10000f26:	0606                	slli	a2,a2,0x1
10000f28:	0606                	slli	a2,a2,0x1
10000f2a:	0606                	slli	a2,a2,0x1
10000f2c:	0706                	slli	a4,a4,0x1
10000f2e:	068c                	addi	a1,sp,832
10000f30:	0678                	addi	a4,sp,780
10000f32:	0600                	addi	s0,sp,768
10000f34:	0300                	addi	s0,sp,384
10000f36:	0300                	addi	s0,sp,384
10000f38:	010c                	addi	a1,sp,128
10000f3a:	018c                	addi	a1,sp,192
10000f3c:	0078                	addi	a4,sp,12
	...
10000f56:	0000                	unimp
10000f58:	00e0                	addi	s0,sp,76
10000f5a:	00e0                	addi	s0,sp,76
10000f5c:	00e0                	addi	s0,sp,76
	...
10000f66:	0000                	unimp
10000f68:	00e0                	addi	s0,sp,76
10000f6a:	00e0                	addi	s0,sp,76
10000f6c:	00e0                	addi	s0,sp,76
	...
10000f86:	0000                	unimp
10000f88:	0060                	addi	s0,sp,12
10000f8a:	0060                	addi	s0,sp,12
	...
10000f98:	0000                	unimp
10000f9a:	0060                	addi	s0,sp,12
10000f9c:	0060                	addi	s0,sp,12
10000f9e:	0040                	addi	s0,sp,4
10000fa0:	0020                	addi	s0,sp,8
10000fa2:	0020                	addi	s0,sp,8
	...
10000fac:	0400                	addi	s0,sp,512
10000fae:	0200                	addi	s0,sp,256
10000fb0:	0100                	addi	s0,sp,128
10000fb2:	0080                	addi	s0,sp,64
10000fb4:	0040                	addi	s0,sp,4
10000fb6:	0020                	addi	s0,sp,8
10000fb8:	0010                	0x10
10000fba:	0008                	0x8
10000fbc:	0004                	0x4
10000fbe:	0008                	0x8
10000fc0:	0010                	0x10
10000fc2:	0020                	addi	s0,sp,8
10000fc4:	0040                	addi	s0,sp,4
10000fc6:	0080                	addi	s0,sp,64
10000fc8:	0100                	addi	s0,sp,128
10000fca:	0200                	addi	s0,sp,256
10000fcc:	0400                	addi	s0,sp,512
	...
10000fe6:	0000                	unimp
10000fe8:	07fe                	slli	a5,a5,0x1f
10000fea:	0000                	unimp
10000fec:	0000                	unimp
10000fee:	0000                	unimp
10000ff0:	07fe                	slli	a5,a5,0x1f
	...
1000100a:	0000                	unimp
1000100c:	0004                	0x4
1000100e:	0008                	0x8
10001010:	0010                	0x10
10001012:	0020                	addi	s0,sp,8
10001014:	0040                	addi	s0,sp,4
10001016:	0080                	addi	s0,sp,64
10001018:	0100                	addi	s0,sp,128
1000101a:	0200                	addi	s0,sp,256
1000101c:	0400                	addi	s0,sp,512
1000101e:	0200                	addi	s0,sp,256
10001020:	0100                	addi	s0,sp,128
10001022:	0080                	addi	s0,sp,64
10001024:	0040                	addi	s0,sp,4
10001026:	0020                	addi	s0,sp,8
10001028:	0010                	0x10
1000102a:	0008                	0x8
1000102c:	0004                	0x4
	...
1000103e:	03e0                	addi	s0,sp,460
10001040:	0618                	addi	a4,sp,768
10001042:	0c04                	addi	s1,sp,528
10001044:	0c04                	addi	s1,sp,528
10001046:	0c0c                	addi	a1,sp,528
10001048:	0c0c                	addi	a1,sp,528
1000104a:	0700                	addi	s0,sp,896
1000104c:	0180                	addi	s0,sp,192
1000104e:	0040                	addi	s0,sp,4
10001050:	0040                	addi	s0,sp,4
10001052:	0040                	addi	s0,sp,4
10001054:	0000                	unimp
10001056:	0000                	unimp
10001058:	00e0                	addi	s0,sp,76
1000105a:	00e0                	addi	s0,sp,76
1000105c:	00e0                	addi	s0,sp,76
	...
1000106a:	0000                	unimp
1000106c:	00e0                	addi	s0,sp,76
1000106e:	0318                	addi	a4,sp,384
10001070:	020c                	addi	a1,sp,256
10001072:	05cc                	addi	a1,sp,708
10001074:	0564                	addi	s1,sp,652
10001076:	0566                	slli	a0,a0,0x19
10001078:	05a6                	slli	a1,a1,0x9
1000107a:	04b6                	slli	s1,s1,0xd
1000107c:	04b6                	slli	s1,s1,0xd
1000107e:	04b6                	slli	s1,s1,0xd
10001080:	04b6                	slli	s1,s1,0xd
10001082:	02b6                	slli	t0,t0,0xd
10001084:	01e4                	addi	s1,sp,204
10001086:	040c                	addi	a1,sp,512
10001088:	020c                	addi	a1,sp,256
1000108a:	0318                	addi	a4,sp,384
1000108c:	00f0                	addi	a2,sp,76
	...
1000109e:	0060                	addi	s0,sp,12
100010a0:	0060                	addi	s0,sp,12
100010a2:	0050                	addi	a2,sp,4
100010a4:	00d0                	addi	a2,sp,68
100010a6:	0090                	addi	a2,sp,64
100010a8:	0090                	addi	a2,sp,64
100010aa:	0088                	addi	a0,sp,64
100010ac:	0188                	addi	a0,sp,192
100010ae:	0108                	addi	a0,sp,128
100010b0:	01f8                	addi	a4,sp,204
100010b2:	0304                	addi	s1,sp,384
100010b4:	0304                	addi	s1,sp,384
100010b6:	0204                	addi	s1,sp,256
100010b8:	0202                	c.slli64	tp
100010ba:	0602                	c.slli64	a2
100010bc:	00000f0f          	0xf0f
	...
100010cc:	0000                	unimp
100010ce:	00fe                	slli	ra,ra,0x1f
100010d0:	038c                	addi	a1,sp,448
100010d2:	030c                	addi	a1,sp,384
100010d4:	030c                	addi	a1,sp,384
100010d6:	030c                	addi	a1,sp,384
100010d8:	030c                	addi	a1,sp,384
100010da:	018c                	addi	a1,sp,192
100010dc:	00fc                	addi	a5,sp,76
100010de:	030c                	addi	a1,sp,384
100010e0:	020c                	addi	a1,sp,256
100010e2:	060c                	addi	a1,sp,768
100010e4:	060c                	addi	a1,sp,768
100010e6:	060c                	addi	a1,sp,768
100010e8:	060c                	addi	a1,sp,768
100010ea:	030c                	addi	a1,sp,384
100010ec:	01fe                	slli	gp,gp,0x1f
	...
100010fe:	03e0                	addi	s0,sp,460
10001100:	0318                	addi	a4,sp,384
10001102:	060c                	addi	a1,sp,768
10001104:	040c                	addi	a1,sp,512
10001106:	0404                	addi	s1,sp,512
10001108:	0006                	c.slli	zero,0x1
1000110a:	0006                	c.slli	zero,0x1
1000110c:	0006                	c.slli	zero,0x1
1000110e:	0006                	c.slli	zero,0x1
10001110:	0006                	c.slli	zero,0x1
10001112:	0006                	c.slli	zero,0x1
10001114:	0406                	slli	s0,s0,0x1
10001116:	040c                	addi	a1,sp,512
10001118:	020c                	addi	a1,sp,256
1000111a:	0318                	addi	a4,sp,384
1000111c:	00f0                	addi	a2,sp,76
	...
1000112e:	007f                	0x7f
10001130:	018c                	addi	a1,sp,192
10001132:	030c                	addi	a1,sp,384
10001134:	030c                	addi	a1,sp,384
10001136:	060c                	addi	a1,sp,768
10001138:	060c                	addi	a1,sp,768
1000113a:	060c                	addi	a1,sp,768
1000113c:	060c                	addi	a1,sp,768
1000113e:	060c                	addi	a1,sp,768
10001140:	060c                	addi	a1,sp,768
10001142:	060c                	addi	a1,sp,768
10001144:	060c                	addi	a1,sp,768
10001146:	030c                	addi	a1,sp,384
10001148:	030c                	addi	a1,sp,384
1000114a:	018c                	addi	a1,sp,192
1000114c:	007f                	0x7f
	...
1000115e:	03ff                	0x3ff
10001160:	0306                	slli	t1,t1,0x1
10001162:	0406                	slli	s0,s0,0x1
10001164:	0406                	slli	s0,s0,0x1
10001166:	0006                	c.slli	zero,0x1
10001168:	0086                	slli	ra,ra,0x1
1000116a:	0086                	slli	ra,ra,0x1
1000116c:	00fe                	slli	ra,ra,0x1f
1000116e:	0086                	slli	ra,ra,0x1
10001170:	0086                	slli	ra,ra,0x1
10001172:	0086                	slli	ra,ra,0x1
10001174:	0006                	c.slli	zero,0x1
10001176:	0406                	slli	s0,s0,0x1
10001178:	0406                	slli	s0,s0,0x1
1000117a:	0206                	slli	tp,tp,0x1
1000117c:	03ff                	0x3ff
	...
1000118e:	03ff                	0x3ff
10001190:	0306                	slli	t1,t1,0x1
10001192:	0406                	slli	s0,s0,0x1
10001194:	0406                	slli	s0,s0,0x1
10001196:	0006                	c.slli	zero,0x1
10001198:	0086                	slli	ra,ra,0x1
1000119a:	0086                	slli	ra,ra,0x1
1000119c:	00fe                	slli	ra,ra,0x1f
1000119e:	0086                	slli	ra,ra,0x1
100011a0:	0086                	slli	ra,ra,0x1
100011a2:	0086                	slli	ra,ra,0x1
100011a4:	0006                	c.slli	zero,0x1
100011a6:	0006                	c.slli	zero,0x1
100011a8:	0006                	c.slli	zero,0x1
100011aa:	0006                	c.slli	zero,0x1
100011ac:	001f 0000 0000      	0x1f
	...
100011be:	00f0                	addi	a2,sp,76
100011c0:	0118                	addi	a4,sp,128
100011c2:	020c                	addi	a1,sp,256
100011c4:	020c                	addi	a1,sp,256
100011c6:	0204                	addi	s1,sp,256
100011c8:	0006                	c.slli	zero,0x1
100011ca:	0006                	c.slli	zero,0x1
100011cc:	0006                	c.slli	zero,0x1
100011ce:	0006                	c.slli	zero,0x1
100011d0:	0fc6                	slli	t6,t6,0x11
100011d2:	0306                	slli	t1,t1,0x1
100011d4:	0306                	slli	t1,t1,0x1
100011d6:	030c                	addi	a1,sp,384
100011d8:	030c                	addi	a1,sp,384
100011da:	0318                	addi	a4,sp,384
100011dc:	00f0                	addi	a2,sp,76
	...
100011ee:	06060f0f          	0x6060f0f
100011f2:	0606                	slli	a2,a2,0x1
100011f4:	0606                	slli	a2,a2,0x1
100011f6:	0606                	slli	a2,a2,0x1
100011f8:	0606                	slli	a2,a2,0x1
100011fa:	0606                	slli	a2,a2,0x1
100011fc:	07fe                	slli	a5,a5,0x1f
100011fe:	0606                	slli	a2,a2,0x1
10001200:	0606                	slli	a2,a2,0x1
10001202:	0606                	slli	a2,a2,0x1
10001204:	0606                	slli	a2,a2,0x1
10001206:	0606                	slli	a2,a2,0x1
10001208:	0606                	slli	a2,a2,0x1
1000120a:	0606                	slli	a2,a2,0x1
1000120c:	00000f0f          	0xf0f
	...
1000121c:	0000                	unimp
1000121e:	03fc                	addi	a5,sp,460
10001220:	0060                	addi	s0,sp,12
10001222:	0060                	addi	s0,sp,12
10001224:	0060                	addi	s0,sp,12
10001226:	0060                	addi	s0,sp,12
10001228:	0060                	addi	s0,sp,12
1000122a:	0060                	addi	s0,sp,12
1000122c:	0060                	addi	s0,sp,12
1000122e:	0060                	addi	s0,sp,12
10001230:	0060                	addi	s0,sp,12
10001232:	0060                	addi	s0,sp,12
10001234:	0060                	addi	s0,sp,12
10001236:	0060                	addi	s0,sp,12
10001238:	0060                	addi	s0,sp,12
1000123a:	0060                	addi	s0,sp,12
1000123c:	03fc                	addi	a5,sp,460
	...
1000124e:	07f8                	addi	a4,sp,972
10001250:	00c0                	addi	s0,sp,68
10001252:	00c0                	addi	s0,sp,68
10001254:	00c0                	addi	s0,sp,68
10001256:	00c0                	addi	s0,sp,68
10001258:	00c0                	addi	s0,sp,68
1000125a:	00c0                	addi	s0,sp,68
1000125c:	00c0                	addi	s0,sp,68
1000125e:	00c0                	addi	s0,sp,68
10001260:	00c0                	addi	s0,sp,68
10001262:	00c0                	addi	s0,sp,68
10001264:	00c0                	addi	s0,sp,68
10001266:	00c0                	addi	s0,sp,68
10001268:	00c0                	addi	s0,sp,68
1000126a:	00c0                	addi	s0,sp,68
1000126c:	00c0                	addi	s0,sp,68
1000126e:	00c6                	slli	ra,ra,0x11
10001270:	0066                	c.slli	zero,0x19
10001272:	003c                	addi	a5,sp,8
	...
1000127c:	0000                	unimp
1000127e:	018603cf          	fnmadd.s	ft7,fa2,fs8,ft0,rne
10001282:	00c6                	slli	ra,ra,0x11
10001284:	0046                	c.slli	zero,0x11
10001286:	0026                	c.slli	zero,0x9
10001288:	0016                	c.slli	zero,0x5
1000128a:	0036                	c.slli	zero,0xd
1000128c:	002e                	c.slli	zero,0xb
1000128e:	006e                	c.slli	zero,0x1b
10001290:	0046                	c.slli	zero,0x11
10001292:	00c6                	slli	ra,ra,0x11
10001294:	0086                	slli	ra,ra,0x1
10001296:	0186                	slli	gp,gp,0x1
10001298:	0106                	slli	sp,sp,0x1
1000129a:	0306                	slli	t1,t1,0x1
1000129c:	0000078f          	0x78f
	...
100012ac:	0000                	unimp
100012ae:	001f 0006 0006      	0x60006001f
100012b4:	0006                	c.slli	zero,0x1
100012b6:	0006                	c.slli	zero,0x1
100012b8:	0006                	c.slli	zero,0x1
100012ba:	0006                	c.slli	zero,0x1
100012bc:	0006                	c.slli	zero,0x1
100012be:	0006                	c.slli	zero,0x1
100012c0:	0006                	c.slli	zero,0x1
100012c2:	0006                	c.slli	zero,0x1
100012c4:	0006                	c.slli	zero,0x1
100012c6:	0406                	slli	s0,s0,0x1
100012c8:	0406                	slli	s0,s0,0x1
100012ca:	0206                	slli	tp,tp,0x1
100012cc:	03ff                	0x3ff
	...
100012de:	03860707          	0x3860707
100012e2:	0386                	slli	t2,t2,0x1
100012e4:	038e                	slli	t2,t2,0x3
100012e6:	038e                	slli	t2,t2,0x3
100012e8:	034e                	slli	t1,t1,0x13
100012ea:	034e                	slli	t1,t1,0x13
100012ec:	034a                	slli	t1,t1,0x12
100012ee:	035a                	slli	t1,t1,0x16
100012f0:	035a                	slli	t1,t1,0x16
100012f2:	033a                	slli	t1,t1,0xe
100012f4:	0332                	slli	t1,t1,0xc
100012f6:	0332                	slli	t1,t1,0xc
100012f8:	0332                	slli	t1,t1,0xc
100012fa:	0312                	slli	t1,t1,0x4
100012fc:	00000787          	0x787
	...
1000130c:	0000                	unimp
1000130e:	0f8e                	slli	t6,t6,0x3
10001310:	020c                	addi	a1,sp,256
10001312:	021c                	addi	a5,sp,256
10001314:	021c                	addi	a5,sp,256
10001316:	0234                	addi	a3,sp,264
10001318:	0234                	addi	a3,sp,264
1000131a:	0264                	addi	s1,sp,268
1000131c:	0264                	addi	s1,sp,268
1000131e:	0244                	addi	s1,sp,260
10001320:	02c4                	addi	s1,sp,324
10001322:	0284                	addi	s1,sp,320
10001324:	0384                	addi	s1,sp,448
10001326:	0384                	addi	s1,sp,448
10001328:	0304                	addi	s1,sp,384
1000132a:	0304                	addi	s1,sp,384
1000132c:	021f 0000 0000      	0x21f
	...
1000133e:	00f0                	addi	a2,sp,76
10001340:	0198                	addi	a4,sp,192
10001342:	030c                	addi	a1,sp,384
10001344:	020c                	addi	a1,sp,256
10001346:	0606                	slli	a2,a2,0x1
10001348:	0606                	slli	a2,a2,0x1
1000134a:	0606                	slli	a2,a2,0x1
1000134c:	0606                	slli	a2,a2,0x1
1000134e:	0606                	slli	a2,a2,0x1
10001350:	0606                	slli	a2,a2,0x1
10001352:	0606                	slli	a2,a2,0x1
10001354:	0606                	slli	a2,a2,0x1
10001356:	020c                	addi	a1,sp,256
10001358:	030c                	addi	a1,sp,384
1000135a:	0198                	addi	a4,sp,192
1000135c:	00f0                	addi	a2,sp,76
	...
1000136e:	00ff                	0xff
10001370:	0306                	slli	t1,t1,0x1
10001372:	0606                	slli	a2,a2,0x1
10001374:	0606                	slli	a2,a2,0x1
10001376:	0606                	slli	a2,a2,0x1
10001378:	0606                	slli	a2,a2,0x1
1000137a:	0606                	slli	a2,a2,0x1
1000137c:	0386                	slli	t2,t2,0x1
1000137e:	00fe                	slli	ra,ra,0x1f
10001380:	0006                	c.slli	zero,0x1
10001382:	0006                	c.slli	zero,0x1
10001384:	0006                	c.slli	zero,0x1
10001386:	0006                	c.slli	zero,0x1
10001388:	0006                	c.slli	zero,0x1
1000138a:	0006                	c.slli	zero,0x1
1000138c:	001f 0000 0000      	0x1f
	...
1000139e:	00f0                	addi	a2,sp,76
100013a0:	0198                	addi	a4,sp,192
100013a2:	030c                	addi	a1,sp,384
100013a4:	020c                	addi	a1,sp,256
100013a6:	0606                	slli	a2,a2,0x1
100013a8:	0606                	slli	a2,a2,0x1
100013aa:	0606                	slli	a2,a2,0x1
100013ac:	0606                	slli	a2,a2,0x1
100013ae:	0606                	slli	a2,a2,0x1
100013b0:	0606                	slli	a2,a2,0x1
100013b2:	0606                	slli	a2,a2,0x1
100013b4:	0676                	slli	a2,a2,0x1d
100013b6:	024c                	addi	a1,sp,260
100013b8:	03cc                	addi	a1,sp,452
100013ba:	0198                	addi	a4,sp,192
100013bc:	00f0                	addi	a2,sp,76
100013be:	0780                	addi	s0,sp,960
100013c0:	0300                	addi	s0,sp,384
	...
100013ce:	01ff                	0x1ff
100013d0:	0306                	slli	t1,t1,0x1
100013d2:	0606                	slli	a2,a2,0x1
100013d4:	0606                	slli	a2,a2,0x1
100013d6:	0606                	slli	a2,a2,0x1
100013d8:	0606                	slli	a2,a2,0x1
100013da:	0306                	slli	t1,t1,0x1
100013dc:	00fe                	slli	ra,ra,0x1f
100013de:	0046                	c.slli	zero,0x11
100013e0:	00c6                	slli	ra,ra,0x11
100013e2:	0086                	slli	ra,ra,0x1
100013e4:	0186                	slli	gp,gp,0x1
100013e6:	0306                	slli	t1,t1,0x1
100013e8:	0306                	slli	t1,t1,0x1
100013ea:	0606                	slli	a2,a2,0x1
100013ec:	00000e0f          	0xe0f
	...
100013fc:	0000                	unimp
100013fe:	02f8                	addi	a4,sp,332
10001400:	030c                	addi	a1,sp,384
10001402:	0206                	slli	tp,tp,0x1
10001404:	0206                	slli	tp,tp,0x1
10001406:	0006                	c.slli	zero,0x1
10001408:	000e                	c.slli	zero,0x3
1000140a:	003c                	addi	a5,sp,8
1000140c:	00f8                	addi	a4,sp,76
1000140e:	03e0                	addi	s0,sp,460
10001410:	0380                	addi	s0,sp,448
10001412:	0700                	addi	s0,sp,896
10001414:	0602                	c.slli64	a2
10001416:	0602                	c.slli64	a2
10001418:	0606                	slli	a2,a2,0x1
1000141a:	030c                	addi	a1,sp,384
1000141c:	01f0                	addi	a2,sp,204
	...
1000142e:	07fe                	slli	a5,a5,0x1f
10001430:	0462                	slli	s0,s0,0x18
10001432:	0861                	addi	a6,a6,24
10001434:	0861                	addi	a6,a6,24
10001436:	0060                	addi	s0,sp,12
10001438:	0060                	addi	s0,sp,12
1000143a:	0060                	addi	s0,sp,12
1000143c:	0060                	addi	s0,sp,12
1000143e:	0060                	addi	s0,sp,12
10001440:	0060                	addi	s0,sp,12
10001442:	0060                	addi	s0,sp,12
10001444:	0060                	addi	s0,sp,12
10001446:	0060                	addi	s0,sp,12
10001448:	0060                	addi	s0,sp,12
1000144a:	0060                	addi	s0,sp,12
1000144c:	01f8                	addi	a4,sp,204
	...
1000145e:	071e                	slli	a4,a4,0x7
10001460:	020c                	addi	a1,sp,256
10001462:	020c                	addi	a1,sp,256
10001464:	020c                	addi	a1,sp,256
10001466:	020c                	addi	a1,sp,256
10001468:	020c                	addi	a1,sp,256
1000146a:	020c                	addi	a1,sp,256
1000146c:	020c                	addi	a1,sp,256
1000146e:	020c                	addi	a1,sp,256
10001470:	020c                	addi	a1,sp,256
10001472:	020c                	addi	a1,sp,256
10001474:	020c                	addi	a1,sp,256
10001476:	020c                	addi	a1,sp,256
10001478:	020c                	addi	a1,sp,256
1000147a:	0118                	addi	a4,sp,128
1000147c:	00f0                	addi	a2,sp,76
	...
1000148e:	0206070f          	0x206070f
10001492:	0104                	addi	s1,sp,128
10001494:	0104                	addi	s1,sp,128
10001496:	010c                	addi	a1,sp,128
10001498:	010c                	addi	a1,sp,128
1000149a:	0088                	addi	a0,sp,64
1000149c:	0088                	addi	a0,sp,64
1000149e:	0098                	addi	a4,sp,64
100014a0:	0098                	addi	a4,sp,64
100014a2:	0050                	addi	a2,sp,4
100014a4:	0050                	addi	a2,sp,4
100014a6:	0070                	addi	a2,sp,12
100014a8:	0030                	addi	a2,sp,8
100014aa:	0020                	addi	s0,sp,8
100014ac:	0020                	addi	s0,sp,8
	...
100014be:	04620ef7          	0x4620ef7
100014c2:	0442                	slli	s0,s0,0x10
100014c4:	0446                	slli	s0,s0,0x11
100014c6:	0446                	slli	s0,s0,0x11
100014c8:	0264                	addi	s1,sp,268
100014ca:	0264                	addi	s1,sp,268
100014cc:	02e4                	addi	s1,sp,332
100014ce:	02e4                	addi	s1,sp,332
100014d0:	029c                	addi	a5,sp,320
100014d2:	019c                	addi	a5,sp,192
100014d4:	0198                	addi	a4,sp,192
100014d6:	0198                	addi	a4,sp,192
100014d8:	0188                	addi	a0,sp,192
100014da:	0088                	addi	a0,sp,64
100014dc:	0088                	addi	a0,sp,64
	...
100014ee:	079e                	slli	a5,a5,0x7
100014f0:	010c                	addi	a1,sp,128
100014f2:	0108                	addi	a0,sp,128
100014f4:	0118                	addi	a4,sp,128
100014f6:	0090                	addi	a2,sp,64
100014f8:	00b0                	addi	a2,sp,72
100014fa:	0060                	addi	s0,sp,12
100014fc:	0020                	addi	s0,sp,8
100014fe:	0060                	addi	s0,sp,12
10001500:	0060                	addi	s0,sp,12
10001502:	00d0                	addi	a2,sp,68
10001504:	0090                	addi	a2,sp,64
10001506:	0188                	addi	a0,sp,192
10001508:	0108                	addi	a0,sp,128
1000150a:	0304                	addi	s1,sp,384
1000150c:	078e                	slli	a5,a5,0x3
	...
1000151e:	04060f0f          	0x4060f0f
10001522:	0204                	addi	s1,sp,256
10001524:	020c                	addi	a1,sp,256
10001526:	0108                	addi	a0,sp,128
10001528:	0118                	addi	a4,sp,128
1000152a:	00b8                	addi	a4,sp,72
1000152c:	00b0                	addi	a2,sp,72
1000152e:	0070                	addi	a2,sp,12
10001530:	0060                	addi	s0,sp,12
10001532:	0060                	addi	s0,sp,12
10001534:	0060                	addi	s0,sp,12
10001536:	0060                	addi	s0,sp,12
10001538:	0060                	addi	s0,sp,12
1000153a:	0060                	addi	s0,sp,12
1000153c:	01f8                	addi	a4,sp,204
	...
1000154e:	07fc                	addi	a5,sp,972
10001550:	020c                	addi	a1,sp,256
10001552:	0306                	slli	t1,t1,0x1
10001554:	0102                	c.slli64	sp
10001556:	0180                	addi	s0,sp,192
10001558:	0080                	addi	s0,sp,64
1000155a:	0040                	addi	s0,sp,4
1000155c:	0040                	addi	s0,sp,4
1000155e:	0020                	addi	s0,sp,8
10001560:	0020                	addi	s0,sp,8
10001562:	0010                	0x10
10001564:	0018                	0x18
10001566:	0408                	addi	a0,sp,512
10001568:	040c                	addi	a1,sp,512
1000156a:	0204                	addi	s1,sp,256
1000156c:	03fe                	slli	t2,t2,0x1f
	...
10001576:	0000                	unimp
10001578:	03e0                	addi	s0,sp,460
1000157a:	0020                	addi	s0,sp,8
1000157c:	0020                	addi	s0,sp,8
1000157e:	0020                	addi	s0,sp,8
10001580:	0020                	addi	s0,sp,8
10001582:	0020                	addi	s0,sp,8
10001584:	0020                	addi	s0,sp,8
10001586:	0020                	addi	s0,sp,8
10001588:	0020                	addi	s0,sp,8
1000158a:	0020                	addi	s0,sp,8
1000158c:	0020                	addi	s0,sp,8
1000158e:	0020                	addi	s0,sp,8
10001590:	0020                	addi	s0,sp,8
10001592:	0020                	addi	s0,sp,8
10001594:	0020                	addi	s0,sp,8
10001596:	0020                	addi	s0,sp,8
10001598:	0020                	addi	s0,sp,8
1000159a:	0020                	addi	s0,sp,8
1000159c:	0020                	addi	s0,sp,8
1000159e:	0020                	addi	s0,sp,8
100015a0:	03e0                	addi	s0,sp,460
	...
100015aa:	0000                	unimp
100015ac:	0004                	0x4
100015ae:	0004                	0x4
100015b0:	0008                	0x8
100015b2:	0008                	0x8
100015b4:	0010                	0x10
100015b6:	0010                	0x10
100015b8:	0010                	0x10
100015ba:	0020                	addi	s0,sp,8
100015bc:	0020                	addi	s0,sp,8
100015be:	0040                	addi	s0,sp,4
100015c0:	0040                	addi	s0,sp,4
100015c2:	00c0                	addi	s0,sp,68
100015c4:	0080                	addi	s0,sp,64
100015c6:	0080                	addi	s0,sp,64
100015c8:	0100                	addi	s0,sp,128
100015ca:	0100                	addi	s0,sp,128
100015cc:	0200                	addi	s0,sp,256
100015ce:	0200                	addi	s0,sp,256
100015d0:	0200                	addi	s0,sp,256
100015d2:	0400                	addi	s0,sp,512
100015d4:	0000                	unimp
100015d6:	0000                	unimp
100015d8:	007c                	addi	a5,sp,12
100015da:	0040                	addi	s0,sp,4
100015dc:	0040                	addi	s0,sp,4
100015de:	0040                	addi	s0,sp,4
100015e0:	0040                	addi	s0,sp,4
100015e2:	0040                	addi	s0,sp,4
100015e4:	0040                	addi	s0,sp,4
100015e6:	0040                	addi	s0,sp,4
100015e8:	0040                	addi	s0,sp,4
100015ea:	0040                	addi	s0,sp,4
100015ec:	0040                	addi	s0,sp,4
100015ee:	0040                	addi	s0,sp,4
100015f0:	0040                	addi	s0,sp,4
100015f2:	0040                	addi	s0,sp,4
100015f4:	0040                	addi	s0,sp,4
100015f6:	0040                	addi	s0,sp,4
100015f8:	0040                	addi	s0,sp,4
100015fa:	0040                	addi	s0,sp,4
100015fc:	0040                	addi	s0,sp,4
100015fe:	0040                	addi	s0,sp,4
10001600:	007c                	addi	a5,sp,12
10001602:	0000                	unimp
10001604:	0000                	unimp
10001606:	0060                	addi	s0,sp,12
10001608:	0090                	addi	a2,sp,64
1000160a:	0108                	addi	a0,sp,128
	...
10001660:	0000                	unimp
10001662:	0fff                	0xfff
10001664:	0000                	unimp
10001666:	0000                	unimp
10001668:	0018                	0x18
1000166a:	0060                	addi	s0,sp,12
	...
100016a8:	01f0                	addi	a2,sp,204
100016aa:	030c                	addi	a1,sp,384
100016ac:	030c                	addi	a1,sp,384
100016ae:	0300                	addi	s0,sp,384
100016b0:	03e0                	addi	s0,sp,460
100016b2:	031c                	addi	a5,sp,384
100016b4:	030e                	slli	t1,t1,0x3
100016b6:	0306                	slli	t1,t1,0x1
100016b8:	0306                	slli	t1,t1,0x1
100016ba:	0b8e                	slli	s7,s7,0x3
100016bc:	0e7c                	addi	a5,sp,796
	...
100016ca:	0000                	unimp
100016cc:	0008                	0x8
100016ce:	000e                	c.slli	zero,0x3
100016d0:	000c                	0xc
100016d2:	000c                	0xc
100016d4:	000c                	0xc
100016d6:	000c                	0xc
100016d8:	01cc                	addi	a1,sp,196
100016da:	033c                	addi	a5,sp,392
100016dc:	061c                	addi	a5,sp,768
100016de:	060c                	addi	a1,sp,768
100016e0:	060c                	addi	a1,sp,768
100016e2:	060c                	addi	a1,sp,768
100016e4:	060c                	addi	a1,sp,768
100016e6:	060c                	addi	a1,sp,768
100016e8:	020c                	addi	a1,sp,256
100016ea:	031c                	addi	a5,sp,384
100016ec:	01e4                	addi	s1,sp,204
	...
10001706:	0000                	unimp
10001708:	00f0                	addi	a2,sp,76
1000170a:	018c                	addi	a1,sp,192
1000170c:	018c                	addi	a1,sp,192
1000170e:	0186                	slli	gp,gp,0x1
10001710:	0006                	c.slli	zero,0x1
10001712:	0006                	c.slli	zero,0x1
10001714:	0006                	c.slli	zero,0x1
10001716:	0206                	slli	tp,tp,0x1
10001718:	020c                	addi	a1,sp,256
1000171a:	010c                	addi	a1,sp,128
1000171c:	00f0                	addi	a2,sp,76
	...
1000172a:	0000                	unimp
1000172c:	0200                	addi	s0,sp,256
1000172e:	03c0                	addi	s0,sp,452
10001730:	0300                	addi	s0,sp,384
10001732:	0300                	addi	s0,sp,384
10001734:	0300                	addi	s0,sp,384
10001736:	0300                	addi	s0,sp,384
10001738:	0378                	addi	a4,sp,396
1000173a:	038c                	addi	a1,sp,448
1000173c:	030c                	addi	a1,sp,384
1000173e:	0306                	slli	t1,t1,0x1
10001740:	0306                	slli	t1,t1,0x1
10001742:	0306                	slli	t1,t1,0x1
10001744:	0306                	slli	t1,t1,0x1
10001746:	0306                	slli	t1,t1,0x1
10001748:	0304                	addi	s1,sp,384
1000174a:	078c                	addi	a1,sp,960
1000174c:	0178                	addi	a4,sp,140
	...
10001766:	0000                	unimp
10001768:	01e0                	addi	s0,sp,204
1000176a:	0318                	addi	a4,sp,384
1000176c:	0208                	addi	a0,sp,256
1000176e:	060c                	addi	a1,sp,768
10001770:	060c                	addi	a1,sp,768
10001772:	07fc                	addi	a5,sp,972
10001774:	000c                	0xc
10001776:	000c                	0xc
10001778:	0418                	addi	a4,sp,512
1000177a:	0218                	addi	a4,sp,256
1000177c:	01e0                	addi	s0,sp,204
	...
1000178e:	03c0                	addi	s0,sp,452
10001790:	0660                	addi	s0,sp,780
10001792:	0630                	addi	a2,sp,776
10001794:	0030                	addi	a2,sp,8
10001796:	0030                	addi	a2,sp,8
10001798:	01fe                	slli	gp,gp,0x1f
1000179a:	0030                	addi	a2,sp,8
1000179c:	0030                	addi	a2,sp,8
1000179e:	0030                	addi	a2,sp,8
100017a0:	0030                	addi	a2,sp,8
100017a2:	0030                	addi	a2,sp,8
100017a4:	0030                	addi	a2,sp,8
100017a6:	0030                	addi	a2,sp,8
100017a8:	0030                	addi	a2,sp,8
100017aa:	0030                	addi	a2,sp,8
100017ac:	01fc                	addi	a5,sp,204
	...
100017c6:	0000                	unimp
100017c8:	07f0                	addi	a2,sp,972
100017ca:	06d8                	addi	a4,sp,836
100017cc:	018c                	addi	a1,sp,192
100017ce:	018c                	addi	a1,sp,192
100017d0:	018c                	addi	a1,sp,192
100017d2:	0198                	addi	a4,sp,192
100017d4:	00f8                	addi	a4,sp,76
100017d6:	000c                	0xc
100017d8:	00fc                	addi	a5,sp,76
100017da:	03cc                	addi	a1,sp,452
100017dc:	0306                	slli	t1,t1,0x1
100017de:	0306                	slli	t1,t1,0x1
100017e0:	038e                	slli	t2,t2,0x3
100017e2:	00f8                	addi	a4,sp,76
	...
100017ec:	0008                	0x8
100017ee:	000e                	c.slli	zero,0x3
100017f0:	000c                	0xc
100017f2:	000c                	0xc
100017f4:	000c                	0xc
100017f6:	000c                	0xc
100017f8:	01ec                	addi	a1,sp,204
100017fa:	031c                	addi	a5,sp,384
100017fc:	030c                	addi	a1,sp,384
100017fe:	030c                	addi	a1,sp,384
10001800:	030c                	addi	a1,sp,384
10001802:	030c                	addi	a1,sp,384
10001804:	030c                	addi	a1,sp,384
10001806:	030c                	addi	a1,sp,384
10001808:	030c                	addi	a1,sp,384
1000180a:	030c                	addi	a1,sp,384
1000180c:	079e                	slli	a5,a5,0x7
	...
1000181e:	0060                	addi	s0,sp,12
10001820:	0060                	addi	s0,sp,12
10001822:	0000                	unimp
10001824:	0000                	unimp
10001826:	0040                	addi	s0,sp,4
10001828:	007c                	addi	a5,sp,12
1000182a:	0060                	addi	s0,sp,12
1000182c:	0060                	addi	s0,sp,12
1000182e:	0060                	addi	s0,sp,12
10001830:	0060                	addi	s0,sp,12
10001832:	0060                	addi	s0,sp,12
10001834:	0060                	addi	s0,sp,12
10001836:	0060                	addi	s0,sp,12
10001838:	0060                	addi	s0,sp,12
1000183a:	0060                	addi	s0,sp,12
1000183c:	03fc                	addi	a5,sp,460
	...
1000184e:	01c0                	addi	s0,sp,196
10001850:	01c0                	addi	s0,sp,196
10001852:	0000                	unimp
10001854:	0000                	unimp
10001856:	0100                	addi	s0,sp,128
10001858:	01f0                	addi	a2,sp,204
1000185a:	0180                	addi	s0,sp,192
1000185c:	0180                	addi	s0,sp,192
1000185e:	0180                	addi	s0,sp,192
10001860:	0180                	addi	s0,sp,192
10001862:	0180                	addi	s0,sp,192
10001864:	0180                	addi	s0,sp,192
10001866:	0180                	addi	s0,sp,192
10001868:	0180                	addi	s0,sp,192
1000186a:	0180                	addi	s0,sp,192
1000186c:	0180                	addi	s0,sp,192
1000186e:	0180                	addi	s0,sp,192
10001870:	00cc                	addi	a1,sp,68
10001872:	007c                	addi	a5,sp,12
	...
1000187c:	0008                	0x8
1000187e:	000e                	c.slli	zero,0x3
10001880:	000c                	0xc
10001882:	000c                	0xc
10001884:	000c                	0xc
10001886:	000c                	0xc
10001888:	038c                	addi	a1,sp,448
1000188a:	008c                	addi	a1,sp,64
1000188c:	008c                	addi	a1,sp,64
1000188e:	004c                	addi	a1,sp,4
10001890:	006c                	addi	a1,sp,12
10001892:	005c                	addi	a5,sp,4
10001894:	008c                	addi	a1,sp,64
10001896:	018c                	addi	a1,sp,192
10001898:	010c                	addi	a1,sp,128
1000189a:	030c                	addi	a1,sp,384
1000189c:	079e                	slli	a5,a5,0x7
	...
100018aa:	0000                	unimp
100018ac:	0040                	addi	s0,sp,4
100018ae:	007c                	addi	a5,sp,12
100018b0:	0060                	addi	s0,sp,12
100018b2:	0060                	addi	s0,sp,12
100018b4:	0060                	addi	s0,sp,12
100018b6:	0060                	addi	s0,sp,12
100018b8:	0060                	addi	s0,sp,12
100018ba:	0060                	addi	s0,sp,12
100018bc:	0060                	addi	s0,sp,12
100018be:	0060                	addi	s0,sp,12
100018c0:	0060                	addi	s0,sp,12
100018c2:	0060                	addi	s0,sp,12
100018c4:	0060                	addi	s0,sp,12
100018c6:	0060                	addi	s0,sp,12
100018c8:	0060                	addi	s0,sp,12
100018ca:	0060                	addi	s0,sp,12
100018cc:	03fc                	addi	a5,sp,460
	...
100018e6:	0000                	unimp
100018e8:	06ee0737          	lui	a4,0x6ee0
100018ec:	0666                	slli	a2,a2,0x19
100018ee:	0666                	slli	a2,a2,0x19
100018f0:	0666                	slli	a2,a2,0x19
100018f2:	0666                	slli	a2,a2,0x19
100018f4:	0666                	slli	a2,a2,0x19
100018f6:	0666                	slli	a2,a2,0x19
100018f8:	0666                	slli	a2,a2,0x19
100018fa:	0666                	slli	a2,a2,0x19
100018fc:	0fff                	0xfff
	...
10001916:	0000                	unimp
10001918:	01ee                	slli	gp,gp,0x1b
1000191a:	031c                	addi	a5,sp,384
1000191c:	030c                	addi	a1,sp,384
1000191e:	030c                	addi	a1,sp,384
10001920:	030c                	addi	a1,sp,384
10001922:	030c                	addi	a1,sp,384
10001924:	030c                	addi	a1,sp,384
10001926:	030c                	addi	a1,sp,384
10001928:	030c                	addi	a1,sp,384
1000192a:	030c                	addi	a1,sp,384
1000192c:	079e                	slli	a5,a5,0x7
	...
10001946:	0000                	unimp
10001948:	00f0                	addi	a2,sp,76
1000194a:	0198                	addi	a4,sp,192
1000194c:	030c                	addi	a1,sp,384
1000194e:	0606                	slli	a2,a2,0x1
10001950:	0606                	slli	a2,a2,0x1
10001952:	0606                	slli	a2,a2,0x1
10001954:	0606                	slli	a2,a2,0x1
10001956:	0606                	slli	a2,a2,0x1
10001958:	030c                	addi	a1,sp,384
1000195a:	030c                	addi	a1,sp,384
1000195c:	00f0                	addi	a2,sp,76
	...
10001976:	0000                	unimp
10001978:	01ee                	slli	gp,gp,0x1b
1000197a:	031c                	addi	a5,sp,384
1000197c:	060c                	addi	a1,sp,768
1000197e:	060c                	addi	a1,sp,768
10001980:	060c                	addi	a1,sp,768
10001982:	060c                	addi	a1,sp,768
10001984:	060c                	addi	a1,sp,768
10001986:	060c                	addi	a1,sp,768
10001988:	030c                	addi	a1,sp,384
1000198a:	031c                	addi	a5,sp,384
1000198c:	01ec                	addi	a1,sp,204
1000198e:	000c                	0xc
10001990:	000c                	0xc
10001992:	003e                	c.slli	zero,0xf
	...
100019a8:	0278                	addi	a4,sp,268
100019aa:	038c                	addi	a1,sp,448
100019ac:	030c                	addi	a1,sp,384
100019ae:	0306                	slli	t1,t1,0x1
100019b0:	0306                	slli	t1,t1,0x1
100019b2:	0306                	slli	t1,t1,0x1
100019b4:	0306                	slli	t1,t1,0x1
100019b6:	0306                	slli	t1,t1,0x1
100019b8:	0304                	addi	s1,sp,384
100019ba:	038c                	addi	a1,sp,448
100019bc:	0378                	addi	a4,sp,396
100019be:	0300                	addi	s0,sp,384
100019c0:	0300                	addi	s0,sp,384
100019c2:	07c0                	addi	s0,sp,964
	...
100019d8:	039f 0658 0638      	0x6380658039f
100019de:	0018                	0x18
100019e0:	0018                	0x18
100019e2:	0018                	0x18
100019e4:	0018                	0x18
100019e6:	0018                	0x18
100019e8:	0018                	0x18
100019ea:	0018                	0x18
100019ec:	00ff                	0xff
	...
10001a06:	0000                	unimp
10001a08:	03f0                	addi	a2,sp,460
10001a0a:	031c                	addi	a5,sp,384
10001a0c:	020c                	addi	a1,sp,256
10001a0e:	020c                	addi	a1,sp,256
10001a10:	0038                	addi	a4,sp,8
10001a12:	00f0                	addi	a2,sp,76
10001a14:	03c0                	addi	s0,sp,452
10001a16:	0304                	addi	s1,sp,384
10001a18:	0304                	addi	s1,sp,384
10001a1a:	038c                	addi	a1,sp,448
10001a1c:	01fc                	addi	a5,sp,204
	...
10001a2e:	0000                	unimp
10001a30:	0020                	addi	s0,sp,8
10001a32:	0020                	addi	s0,sp,8
10001a34:	0030                	addi	a2,sp,8
10001a36:	0030                	addi	a2,sp,8
10001a38:	01fe                	slli	gp,gp,0x1f
10001a3a:	0030                	addi	a2,sp,8
10001a3c:	0030                	addi	a2,sp,8
10001a3e:	0030                	addi	a2,sp,8
10001a40:	0030                	addi	a2,sp,8
10001a42:	0030                	addi	a2,sp,8
10001a44:	0030                	addi	a2,sp,8
10001a46:	0030                	addi	a2,sp,8
10001a48:	0230                	addi	a2,sp,264
10001a4a:	0230                	addi	a2,sp,264
10001a4c:	01e0                	addi	s0,sp,204
	...
10001a66:	0208                	addi	a0,sp,256
10001a68:	038e                	slli	t2,t2,0x3
10001a6a:	030c                	addi	a1,sp,384
10001a6c:	030c                	addi	a1,sp,384
10001a6e:	030c                	addi	a1,sp,384
10001a70:	030c                	addi	a1,sp,384
10001a72:	030c                	addi	a1,sp,384
10001a74:	030c                	addi	a1,sp,384
10001a76:	030c                	addi	a1,sp,384
10001a78:	030c                	addi	a1,sp,384
10001a7a:	079c                	addi	a5,sp,960
10001a7c:	0178                	addi	a4,sp,140
	...
10001a96:	0000                	unimp
10001a98:	071e                	slli	a4,a4,0x7
10001a9a:	020c                	addi	a1,sp,256
10001a9c:	0108                	addi	a0,sp,128
10001a9e:	0108                	addi	a0,sp,128
10001aa0:	0118                	addi	a4,sp,128
10001aa2:	0090                	addi	a2,sp,64
10001aa4:	00b0                	addi	a2,sp,72
10001aa6:	00b0                	addi	a2,sp,72
10001aa8:	0060                	addi	s0,sp,12
10001aaa:	0060                	addi	s0,sp,12
10001aac:	0020                	addi	s0,sp,8
	...
10001ac6:	0000                	unimp
10001ac8:	04620ef7          	0x4620ef7
10001acc:	0446                	slli	s0,s0,0x11
10001ace:	0264                	addi	s1,sp,268
10001ad0:	0264                	addi	s1,sp,268
10001ad2:	02ec                	addi	a1,sp,332
10001ad4:	019c                	addi	a5,sp,192
10001ad6:	0198                	addi	a4,sp,192
10001ad8:	0198                	addi	a4,sp,192
10001ada:	0198                	addi	a4,sp,192
10001adc:	0008                	0x8
	...
10001af6:	0000                	unimp
10001af8:	07bc                	addi	a5,sp,968
10001afa:	0118                	addi	a4,sp,128
10001afc:	0110                	addi	a2,sp,128
10001afe:	00b0                	addi	a2,sp,72
10001b00:	0060                	addi	s0,sp,12
10001b02:	0060                	addi	s0,sp,12
10001b04:	00e0                	addi	s0,sp,76
10001b06:	0090                	addi	a2,sp,64
10001b08:	0108                	addi	a0,sp,128
10001b0a:	0308                	addi	a0,sp,384
10001b0c:	079e                	slli	a5,a5,0x7
	...
10001b26:	0000                	unimp
10001b28:	079e                	slli	a5,a5,0x7
10001b2a:	0108                	addi	a0,sp,128
10001b2c:	0108                	addi	a0,sp,128
10001b2e:	0108                	addi	a0,sp,128
10001b30:	0090                	addi	a2,sp,64
10001b32:	0090                	addi	a2,sp,64
10001b34:	00b0                	addi	a2,sp,72
10001b36:	0060                	addi	s0,sp,12
10001b38:	0060                	addi	s0,sp,12
10001b3a:	0060                	addi	s0,sp,12
10001b3c:	0020                	addi	s0,sp,8
10001b3e:	0020                	addi	s0,sp,8
10001b40:	0024                	addi	s1,sp,8
10001b42:	001c                	0x1c
	...
10001b58:	01fc                	addi	a5,sp,204
10001b5a:	0184                	addi	s1,sp,192
10001b5c:	00c4                	addi	s1,sp,68
10001b5e:	0044                	addi	s1,sp,4
10001b60:	0060                	addi	s0,sp,12
10001b62:	0020                	addi	s0,sp,8
10001b64:	0030                	addi	a2,sp,8
10001b66:	0218                	addi	a4,sp,256
10001b68:	0208                	addi	a0,sp,256
10001b6a:	030c                	addi	a1,sp,384
10001b6c:	01fc                	addi	a5,sp,204
	...
10001b76:	0000                	unimp
10001b78:	0300                	addi	s0,sp,384
10001b7a:	0080                	addi	s0,sp,64
10001b7c:	0080                	addi	s0,sp,64
10001b7e:	0080                	addi	s0,sp,64
10001b80:	0080                	addi	s0,sp,64
10001b82:	0080                	addi	s0,sp,64
10001b84:	0080                	addi	s0,sp,64
10001b86:	0080                	addi	s0,sp,64
10001b88:	0080                	addi	s0,sp,64
10001b8a:	0040                	addi	s0,sp,4
10001b8c:	0020                	addi	s0,sp,8
10001b8e:	0040                	addi	s0,sp,4
10001b90:	0080                	addi	s0,sp,64
10001b92:	0080                	addi	s0,sp,64
10001b94:	0080                	addi	s0,sp,64
10001b96:	0080                	addi	s0,sp,64
10001b98:	0080                	addi	s0,sp,64
10001b9a:	0080                	addi	s0,sp,64
10001b9c:	0080                	addi	s0,sp,64
10001b9e:	0080                	addi	s0,sp,64
10001ba0:	0300                	addi	s0,sp,384
10001ba2:	0000                	unimp
10001ba4:	0040                	addi	s0,sp,4
10001ba6:	0040                	addi	s0,sp,4
10001ba8:	0040                	addi	s0,sp,4
10001baa:	0040                	addi	s0,sp,4
10001bac:	0040                	addi	s0,sp,4
10001bae:	0040                	addi	s0,sp,4
10001bb0:	0040                	addi	s0,sp,4
10001bb2:	0040                	addi	s0,sp,4
10001bb4:	0040                	addi	s0,sp,4
10001bb6:	0040                	addi	s0,sp,4
10001bb8:	0040                	addi	s0,sp,4
10001bba:	0040                	addi	s0,sp,4
10001bbc:	0040                	addi	s0,sp,4
10001bbe:	0040                	addi	s0,sp,4
10001bc0:	0040                	addi	s0,sp,4
10001bc2:	0040                	addi	s0,sp,4
10001bc4:	0040                	addi	s0,sp,4
10001bc6:	0040                	addi	s0,sp,4
10001bc8:	0040                	addi	s0,sp,4
10001bca:	0040                	addi	s0,sp,4
10001bcc:	0040                	addi	s0,sp,4
10001bce:	0040                	addi	s0,sp,4
10001bd0:	0040                	addi	s0,sp,4
10001bd2:	0040                	addi	s0,sp,4
10001bd4:	0000                	unimp
10001bd6:	0000                	unimp
10001bd8:	000c                	0xc
10001bda:	0010                	0x10
10001bdc:	0010                	0x10
10001bde:	0010                	0x10
10001be0:	0010                	0x10
10001be2:	0010                	0x10
10001be4:	0010                	0x10
10001be6:	0010                	0x10
10001be8:	0010                	0x10
10001bea:	0020                	addi	s0,sp,8
10001bec:	0040                	addi	s0,sp,4
10001bee:	0020                	addi	s0,sp,8
10001bf0:	0010                	0x10
10001bf2:	0010                	0x10
10001bf4:	0010                	0x10
10001bf6:	0010                	0x10
10001bf8:	0010                	0x10
10001bfa:	0010                	0x10
10001bfc:	0010                	0x10
10001bfe:	0010                	0x10
10001c00:	000c                	0xc
10001c02:	0000                	unimp
10001c04:	0000                	unimp
10001c06:	001c                	0x1c
10001c08:	0422                	slli	s0,s0,0x8
10001c0a:	04c2                	slli	s1,s1,0x10
10001c0c:	0380                	addi	s0,sp,448
	...

10001c34 <ascii_3216>:
	...
10001c7c:	0000                	unimp
10001c7e:	01c0                	addi	s0,sp,196
10001c80:	01c0                	addi	s0,sp,196
10001c82:	01c0                	addi	s0,sp,196
10001c84:	01c0                	addi	s0,sp,196
10001c86:	01c0                	addi	s0,sp,196
10001c88:	01c0                	addi	s0,sp,196
10001c8a:	01c0                	addi	s0,sp,196
10001c8c:	0080                	addi	s0,sp,64
10001c8e:	0080                	addi	s0,sp,64
10001c90:	0080                	addi	s0,sp,64
10001c92:	0080                	addi	s0,sp,64
10001c94:	0080                	addi	s0,sp,64
10001c96:	0080                	addi	s0,sp,64
10001c98:	0080                	addi	s0,sp,64
	...
10001ca2:	0180                	addi	s0,sp,192
10001ca4:	03c0                	addi	s0,sp,452
10001ca6:	03c0                	addi	s0,sp,452
10001ca8:	0180                	addi	s0,sp,192
	...
10001cba:	1ce0                	addi	s0,sp,636
10001cbc:	1ce0                	addi	s0,sp,636
10001cbe:	1ef0                	addi	a2,sp,892
10001cc0:	0e70                	addi	a2,sp,796
10001cc2:	0738                	addi	a4,sp,904
10001cc4:	0318                	addi	a4,sp,384
10001cc6:	0108                	addi	a0,sp,128
10001cc8:	0084                	addi	s1,sp,64
	...
10001cfe:	0000                	unimp
10001d00:	1020                	addi	s0,sp,40
10001d02:	1020                	addi	s0,sp,40
10001d04:	1020                	addi	s0,sp,40
10001d06:	1020                	addi	s0,sp,40
10001d08:	1020                	addi	s0,sp,40
10001d0a:	7ffe                	flw	ft11,252(sp)
10001d0c:	7ffe                	flw	ft11,252(sp)
10001d0e:	0810                	addi	a2,sp,16
10001d10:	0810                	addi	a2,sp,16
10001d12:	0810                	addi	a2,sp,16
10001d14:	0810                	addi	a2,sp,16
10001d16:	0810                	addi	a2,sp,16
10001d18:	0810                	addi	a2,sp,16
10001d1a:	0810                	addi	a2,sp,16
10001d1c:	7ffe                	flw	ft11,252(sp)
10001d1e:	7ffe                	flw	ft11,252(sp)
10001d20:	0408                	addi	a0,sp,512
10001d22:	0408                	addi	a0,sp,512
10001d24:	0408                	addi	a0,sp,512
10001d26:	0408                	addi	a0,sp,512
10001d28:	0408                	addi	a0,sp,512
	...
10001d3a:	0000                	unimp
10001d3c:	0100                	addi	s0,sp,128
10001d3e:	0100                	addi	s0,sp,128
10001d40:	07c0                	addi	s0,sp,964
10001d42:	1960                	addi	s0,sp,188
10001d44:	3110                	fld	fa2,32(a0)
10001d46:	3118                	fld	fa4,32(a0)
10001d48:	3918                	fld	fa4,48(a0)
10001d4a:	3918                	fld	fa4,48(a0)
10001d4c:	0138                	addi	a4,sp,136
10001d4e:	0170                	addi	a2,sp,140
10001d50:	01e0                	addi	s0,sp,204
10001d52:	03c0                	addi	s0,sp,452
10001d54:	0780                	addi	s0,sp,960
10001d56:	0f00                	addi	s0,sp,912
10001d58:	1d00                	addi	s0,sp,688
10001d5a:	3900                	fld	fs0,48(a0)
10001d5c:	3100                	fld	fs0,32(a0)
10001d5e:	311c                	fld	fa5,32(a0)
10001d60:	311c                	fld	fa5,32(a0)
10001d62:	310c                	fld	fa1,32(a0)
10001d64:	110c                	addi	a1,sp,160
10001d66:	0d18                	addi	a4,sp,656
10001d68:	07e0                	addi	s0,sp,972
10001d6a:	0100                	addi	s0,sp,128
10001d6c:	0100                	addi	s0,sp,128
10001d6e:	0100                	addi	s0,sp,128
	...
10001d80:	101c                	addi	a5,sp,32
10001d82:	1836                	slli	a6,a6,0x2d
10001d84:	0c630863          	beq	t1,t1,10001e54 <ascii_3216+0x220>
10001d88:	04630463          	beq	t1,t1,10001dd0 <ascii_3216+0x19c>
10001d8c:	02630263          	beq	t1,t1,10001db0 <ascii_3216+0x17c>
10001d90:	1d360163          	beq	a2,s3,10001f52 <ascii_3216+0x31e>
10001d94:	379c                	fld	fa5,40(a5)
10001d96:	2280                	fld	fs0,0(a3)
10001d98:	6380                	flw	fs0,0(a5)
10001d9a:	6340                	flw	fs0,4(a4)
10001d9c:	6340                	flw	fs0,4(a4)
10001d9e:	6320                	flw	fs0,64(a4)
10001da0:	6320                	flw	fs0,64(a4)
10001da2:	6330                	flw	fa2,64(a4)
10001da4:	2210                	fld	fa2,0(a2)
10001da6:	3618                	fld	fa4,40(a2)
10001da8:	1c08                	addi	a0,sp,560
	...
10001dbe:	0000                	unimp
10001dc0:	00f0                	addi	a2,sp,76
10001dc2:	0198                	addi	a4,sp,192
10001dc4:	018c                	addi	a1,sp,192
10001dc6:	018c                	addi	a1,sp,192
10001dc8:	018c                	addi	a1,sp,192
10001dca:	018c                	addi	a1,sp,192
10001dcc:	008c                	addi	a1,sp,64
10001dce:	00cc                	addi	a1,sp,68
10001dd0:	0078                	addi	a4,sp,12
10001dd2:	3e18                	fld	fa4,56(a2)
10001dd4:	081c                	addi	a5,sp,16
10001dd6:	0836                	slli	a6,a6,0xd
10001dd8:	0832                	slli	a6,a6,0xc
10001dda:	04630463          	beq	t1,t1,10001e22 <ascii_3216+0x1ee>
10001dde:	03c304c3          	fmadd.d	fs1,ft6,ft8,ft0,rne
10001de2:	43064383          	lbu	t2,1072(a2) # 800430 <_data_lma+0x7fd820>
10001de6:	268e                	fld	fa3,192(sp)
10001de8:	1c78                	addi	a4,sp,572
	...
10001dfa:	001c                	0x1c
10001dfc:	003c                	addi	a5,sp,8
10001dfe:	003c                	addi	a5,sp,8
10001e00:	0030                	addi	a2,sp,8
10001e02:	0030                	addi	a2,sp,8
10001e04:	0010                	0x10
10001e06:	000c                	0xc
10001e08:	0006                	c.slli	zero,0x1
	...
10001e3a:	4000                	lw	s0,0(s0)
10001e3c:	2000                	fld	fs0,0(s0)
10001e3e:	1000                	addi	s0,sp,32
10001e40:	0800                	addi	s0,sp,16
10001e42:	0c00                	addi	s0,sp,528
10001e44:	0400                	addi	s0,sp,512
10001e46:	0600                	addi	s0,sp,768
10001e48:	0300                	addi	s0,sp,384
10001e4a:	0300                	addi	s0,sp,384
10001e4c:	0300                	addi	s0,sp,384
10001e4e:	0180                	addi	s0,sp,192
10001e50:	0180                	addi	s0,sp,192
10001e52:	0180                	addi	s0,sp,192
10001e54:	0180                	addi	s0,sp,192
10001e56:	0180                	addi	s0,sp,192
10001e58:	0180                	addi	s0,sp,192
10001e5a:	0180                	addi	s0,sp,192
10001e5c:	0180                	addi	s0,sp,192
10001e5e:	0300                	addi	s0,sp,384
10001e60:	0300                	addi	s0,sp,384
10001e62:	0300                	addi	s0,sp,384
10001e64:	0600                	addi	s0,sp,768
10001e66:	0600                	addi	s0,sp,768
10001e68:	0c00                	addi	s0,sp,528
10001e6a:	0800                	addi	s0,sp,16
10001e6c:	1000                	addi	s0,sp,32
10001e6e:	2000                	fld	fs0,0(s0)
10001e70:	4000                	lw	s0,0(s0)
	...
10001e7a:	0002                	c.slli64	zero
10001e7c:	0004                	0x4
10001e7e:	0008                	0x8
10001e80:	0010                	0x10
10001e82:	0030                	addi	a2,sp,8
10001e84:	0020                	addi	s0,sp,8
10001e86:	0060                	addi	s0,sp,12
10001e88:	00c0                	addi	s0,sp,68
10001e8a:	00c0                	addi	s0,sp,68
10001e8c:	00c0                	addi	s0,sp,68
10001e8e:	0180                	addi	s0,sp,192
10001e90:	0180                	addi	s0,sp,192
10001e92:	0180                	addi	s0,sp,192
10001e94:	0180                	addi	s0,sp,192
10001e96:	0180                	addi	s0,sp,192
10001e98:	0180                	addi	s0,sp,192
10001e9a:	0180                	addi	s0,sp,192
10001e9c:	0180                	addi	s0,sp,192
10001e9e:	00c0                	addi	s0,sp,68
10001ea0:	00c0                	addi	s0,sp,68
10001ea2:	00c0                	addi	s0,sp,68
10001ea4:	0060                	addi	s0,sp,12
10001ea6:	0060                	addi	s0,sp,12
10001ea8:	0030                	addi	a2,sp,8
10001eaa:	0010                	0x10
10001eac:	0008                	0x8
10001eae:	0004                	0x4
10001eb0:	0002                	c.slli64	zero
	...
10001ec2:	0000                	unimp
10001ec4:	0100                	addi	s0,sp,128
10001ec6:	0380                	addi	s0,sp,448
10001ec8:	0380                	addi	s0,sp,448
10001eca:	0100                	addi	s0,sp,128
10001ecc:	711c                	flw	fa5,32(a0)
10001ece:	793c                	flw	fa5,112(a0)
10001ed0:	3d78                	fld	fa4,248(a0)
10001ed2:	07c0                	addi	s0,sp,964
10001ed4:	0100                	addi	s0,sp,128
10001ed6:	07c0                	addi	s0,sp,964
10001ed8:	3d78                	fld	fa4,248(a0)
10001eda:	793c                	flw	fa5,112(a0)
10001edc:	711c                	flw	fa5,32(a0)
10001ede:	0100                	addi	s0,sp,128
10001ee0:	0380                	addi	s0,sp,448
10001ee2:	0380                	addi	s0,sp,448
10001ee4:	0180                	addi	s0,sp,192
	...
10001f06:	0100                	addi	s0,sp,128
10001f08:	0100                	addi	s0,sp,128
10001f0a:	0100                	addi	s0,sp,128
10001f0c:	0100                	addi	s0,sp,128
10001f0e:	0100                	addi	s0,sp,128
10001f10:	0100                	addi	s0,sp,128
10001f12:	0100                	addi	s0,sp,128
10001f14:	7ffc                	flw	fa5,124(a5)
10001f16:	0100                	addi	s0,sp,128
10001f18:	0100                	addi	s0,sp,128
10001f1a:	0100                	addi	s0,sp,128
10001f1c:	0100                	addi	s0,sp,128
10001f1e:	0100                	addi	s0,sp,128
10001f20:	0100                	addi	s0,sp,128
10001f22:	0100                	addi	s0,sp,128
	...
10001f64:	001c                	0x1c
10001f66:	003c                	addi	a5,sp,8
10001f68:	003c                	addi	a5,sp,8
10001f6a:	0030                	addi	a2,sp,8
10001f6c:	0030                	addi	a2,sp,8
10001f6e:	0010                	0x10
10001f70:	000c                	0xc
10001f72:	0006                	c.slli	zero,0x1
	...
10001f94:	7ffe                	flw	ft11,252(sp)
	...
10001fe2:	0018                	0x18
10001fe4:	003c                	addi	a5,sp,8
10001fe6:	003c                	addi	a5,sp,8
10001fe8:	0018                	0x18
	...
10001ffa:	4000                	lw	s0,0(s0)
10001ffc:	6000                	flw	fs0,0(s0)
10001ffe:	2000                	fld	fs0,0(s0)
10002000:	3000                	fld	fs0,32(s0)
10002002:	1000                	addi	s0,sp,32
10002004:	1800                	addi	s0,sp,48
10002006:	0800                	addi	s0,sp,16
10002008:	0c00                	addi	s0,sp,528
1000200a:	0400                	addi	s0,sp,512
1000200c:	0600                	addi	s0,sp,768
1000200e:	0200                	addi	s0,sp,256
10002010:	0300                	addi	s0,sp,384
10002012:	0100                	addi	s0,sp,128
10002014:	0180                	addi	s0,sp,192
10002016:	0080                	addi	s0,sp,64
10002018:	00c0                	addi	s0,sp,68
1000201a:	0040                	addi	s0,sp,4
1000201c:	0060                	addi	s0,sp,12
1000201e:	0020                	addi	s0,sp,8
10002020:	0030                	addi	a2,sp,8
10002022:	0010                	0x10
10002024:	0018                	0x18
10002026:	0008                	0x8
10002028:	000c                	0xc
1000202a:	0004                	0x4
1000202c:	0006                	c.slli	zero,0x1
1000202e:	0002                	c.slli64	zero
	...
10002040:	07c0                	addi	s0,sp,964
10002042:	0c60                	addi	s0,sp,540
10002044:	1830                	addi	a2,sp,56
10002046:	3018                	fld	fa4,32(s0)
10002048:	3018                	fld	fa4,32(s0)
1000204a:	2018                	fld	fa4,0(s0)
1000204c:	600c                	flw	fa1,0(s0)
1000204e:	600c                	flw	fa1,0(s0)
10002050:	600c                	flw	fa1,0(s0)
10002052:	600c                	flw	fa1,0(s0)
10002054:	600c                	flw	fa1,0(s0)
10002056:	600c                	flw	fa1,0(s0)
10002058:	600c                	flw	fa1,0(s0)
1000205a:	600c                	flw	fa1,0(s0)
1000205c:	600c                	flw	fa1,0(s0)
1000205e:	2018                	fld	fa4,0(s0)
10002060:	3018                	fld	fa4,32(s0)
10002062:	3018                	fld	fa4,32(s0)
10002064:	1830                	addi	a2,sp,56
10002066:	0c60                	addi	s0,sp,540
10002068:	07c0                	addi	s0,sp,964
	...
1000207e:	0000                	unimp
10002080:	0100                	addi	s0,sp,128
10002082:	0180                	addi	s0,sp,192
10002084:	01f8                	addi	a4,sp,204
10002086:	0180                	addi	s0,sp,192
10002088:	0180                	addi	s0,sp,192
1000208a:	0180                	addi	s0,sp,192
1000208c:	0180                	addi	s0,sp,192
1000208e:	0180                	addi	s0,sp,192
10002090:	0180                	addi	s0,sp,192
10002092:	0180                	addi	s0,sp,192
10002094:	0180                	addi	s0,sp,192
10002096:	0180                	addi	s0,sp,192
10002098:	0180                	addi	s0,sp,192
1000209a:	0180                	addi	s0,sp,192
1000209c:	0180                	addi	s0,sp,192
1000209e:	0180                	addi	s0,sp,192
100020a0:	0180                	addi	s0,sp,192
100020a2:	0180                	addi	s0,sp,192
100020a4:	0180                	addi	s0,sp,192
100020a6:	03c0                	addi	s0,sp,452
100020a8:	1ff8                	addi	a4,sp,1020
	...
100020be:	0000                	unimp
100020c0:	07e0                	addi	s0,sp,972
100020c2:	1c10                	addi	a2,sp,560
100020c4:	1808                	addi	a0,sp,48
100020c6:	3004                	fld	fs1,32(s0)
100020c8:	3004                	fld	fs1,32(s0)
100020ca:	300c                	fld	fa1,32(s0)
100020cc:	300c                	fld	fa1,32(s0)
100020ce:	3000                	fld	fs0,32(s0)
100020d0:	1800                	addi	s0,sp,48
100020d2:	0800                	addi	s0,sp,16
100020d4:	0400                	addi	s0,sp,512
100020d6:	0200                	addi	s0,sp,256
100020d8:	0100                	addi	s0,sp,128
100020da:	0080                	addi	s0,sp,64
100020dc:	0040                	addi	s0,sp,4
100020de:	2020                	fld	fs0,64(s0)
100020e0:	2010                	fld	fa2,0(s0)
100020e2:	2008                	fld	fa0,0(s0)
100020e4:	3004                	fld	fs1,32(s0)
100020e6:	1ffc                	addi	a5,sp,1020
100020e8:	1ffc                	addi	a5,sp,1020
	...
100020fe:	0000                	unimp
10002100:	03e0                	addi	s0,sp,460
10002102:	0e18                	addi	a4,sp,784
10002104:	0c0c                	addi	a1,sp,528
10002106:	180c                	addi	a1,sp,48
10002108:	180c                	addi	a1,sp,48
1000210a:	180c                	addi	a1,sp,48
1000210c:	1800                	addi	s0,sp,48
1000210e:	0c00                	addi	s0,sp,528
10002110:	0600                	addi	s0,sp,768
10002112:	03c0                	addi	s0,sp,452
10002114:	0e00                	addi	s0,sp,784
10002116:	1800                	addi	s0,sp,48
10002118:	1000                	addi	s0,sp,32
1000211a:	3000                	fld	fs0,32(s0)
1000211c:	3000                	fld	fs0,32(s0)
1000211e:	300c                	fld	fa1,32(s0)
10002120:	300c                	fld	fa1,32(s0)
10002122:	100c                	addi	a1,sp,32
10002124:	180c                	addi	a1,sp,48
10002126:	0c18                	addi	a4,sp,528
10002128:	03e0                	addi	s0,sp,460
	...
1000213e:	0000                	unimp
10002140:	0c00                	addi	s0,sp,528
10002142:	0e00                	addi	s0,sp,784
10002144:	0e00                	addi	s0,sp,784
10002146:	0f00                	addi	s0,sp,912
10002148:	0e80                	addi	s0,sp,848
1000214a:	0e80                	addi	s0,sp,848
1000214c:	0e40                	addi	s0,sp,788
1000214e:	0e60                	addi	s0,sp,796
10002150:	0e20                	addi	s0,sp,792
10002152:	0e10                	addi	a2,sp,784
10002154:	0e10                	addi	a2,sp,784
10002156:	0e08                	addi	a0,sp,784
10002158:	0e04                	addi	s1,sp,784
1000215a:	0e04                	addi	s1,sp,784
1000215c:	7ffe                	flw	ft11,252(sp)
1000215e:	0e00                	addi	s0,sp,784
10002160:	0e00                	addi	s0,sp,784
10002162:	0e00                	addi	s0,sp,784
10002164:	0e00                	addi	s0,sp,784
10002166:	0e00                	addi	s0,sp,784
10002168:	0e00                	addi	s0,sp,784
1000216a:	7fc0                	flw	fs0,60(a5)
	...
10002180:	3ff0                	fld	fa2,248(a5)
10002182:	3ff0                	fld	fa2,248(a5)
10002184:	0010                	0x10
10002186:	0010                	0x10
10002188:	0010                	0x10
1000218a:	0008                	0x8
1000218c:	0008                	0x8
1000218e:	07c8                	addi	a0,sp,964
10002190:	0c28                	addi	a0,sp,536
10002192:	1818                	addi	a4,sp,48
10002194:	1008                	addi	a0,sp,32
10002196:	3000                	fld	fs0,32(s0)
10002198:	3000                	fld	fs0,32(s0)
1000219a:	3000                	fld	fs0,32(s0)
1000219c:	3000                	fld	fs0,32(s0)
1000219e:	300c                	fld	fa1,32(s0)
100021a0:	300c                	fld	fa1,32(s0)
100021a2:	1804                	addi	s1,sp,48
100021a4:	1804                	addi	s1,sp,48
100021a6:	0c08                	addi	a0,sp,528
100021a8:	03f0                	addi	a2,sp,460
	...
100021be:	0000                	unimp
100021c0:	0f80                	addi	s0,sp,976
100021c2:	10c0                	addi	s0,sp,100
100021c4:	3020                	fld	fs0,96(s0)
100021c6:	3010                	fld	fa2,32(s0)
100021c8:	0018                	0x18
100021ca:	0018                	0x18
100021cc:	0008                	0x8
100021ce:	000c                	0xc
100021d0:	0f8c                	addi	a1,sp,976
100021d2:	186c                	addi	a1,sp,60
100021d4:	303c                	fld	fa5,96(s0)
100021d6:	601c                	flw	fa5,0(s0)
100021d8:	600c                	flw	fa1,0(s0)
100021da:	600c                	flw	fa1,0(s0)
100021dc:	600c                	flw	fa1,0(s0)
100021de:	600c                	flw	fa1,0(s0)
100021e0:	6018                	flw	fa4,0(s0)
100021e2:	2018                	fld	fa4,0(s0)
100021e4:	3030                	fld	fa2,96(s0)
100021e6:	1860                	addi	s0,sp,60
100021e8:	07c0                	addi	s0,sp,964
	...
100021fe:	0000                	unimp
10002200:	3ff8                	fld	fa4,248(a5)
10002202:	3ff8                	fld	fa4,248(a5)
10002204:	101c                	addi	a5,sp,32
10002206:	080c                	addi	a1,sp,16
10002208:	0804                	addi	s1,sp,16
1000220a:	0404                	addi	s1,sp,512
1000220c:	0400                	addi	s0,sp,512
1000220e:	0200                	addi	s0,sp,256
10002210:	0200                	addi	s0,sp,256
10002212:	0100                	addi	s0,sp,128
10002214:	0100                	addi	s0,sp,128
10002216:	0100                	addi	s0,sp,128
10002218:	0080                	addi	s0,sp,64
1000221a:	0080                	addi	s0,sp,64
1000221c:	0080                	addi	s0,sp,64
1000221e:	00c0                	addi	s0,sp,68
10002220:	00c0                	addi	s0,sp,68
10002222:	00c0                	addi	s0,sp,68
10002224:	00c0                	addi	s0,sp,68
10002226:	00c0                	addi	s0,sp,68
10002228:	00c0                	addi	s0,sp,68
	...
1000223e:	0000                	unimp
10002240:	07e0                	addi	s0,sp,972
10002242:	0c30                	addi	a2,sp,536
10002244:	1818                	addi	a4,sp,48
10002246:	300c                	fld	fa1,32(s0)
10002248:	300c                	fld	fa1,32(s0)
1000224a:	300c                	fld	fa1,32(s0)
1000224c:	301c                	fld	fa5,32(s0)
1000224e:	1838                	addi	a4,sp,56
10002250:	0870                	addi	a2,sp,28
10002252:	07e0                	addi	s0,sp,972
10002254:	07b0                	addi	a2,sp,968
10002256:	0e18                	addi	a4,sp,784
10002258:	1c0c                	addi	a1,sp,560
1000225a:	3806                	fld	fa6,96(sp)
1000225c:	3006                	fld	ft0,96(sp)
1000225e:	3006                	fld	ft0,96(sp)
10002260:	3006                	fld	ft0,96(sp)
10002262:	3006                	fld	ft0,96(sp)
10002264:	180c                	addi	a1,sp,48
10002266:	0c18                	addi	a4,sp,528
10002268:	03e0                	addi	s0,sp,460
	...
1000227e:	0000                	unimp
10002280:	03e0                	addi	s0,sp,460
10002282:	0418                	addi	a4,sp,512
10002284:	080c                	addi	a1,sp,16
10002286:	180c                	addi	a1,sp,48
10002288:	1006                	c.slli	zero,0x21
1000228a:	3006                	fld	ft0,96(sp)
1000228c:	3006                	fld	ft0,96(sp)
1000228e:	3006                	fld	ft0,96(sp)
10002290:	3006                	fld	ft0,96(sp)
10002292:	3806                	fld	fa6,96(sp)
10002294:	3c0c                	fld	fa1,56(s0)
10002296:	3618                	fld	fa4,40(a2)
10002298:	31f0                	fld	fa2,224(a1)
1000229a:	3000                	fld	fs0,32(s0)
1000229c:	1800                	addi	s0,sp,48
1000229e:	1800                	addi	s0,sp,48
100022a0:	1800                	addi	s0,sp,48
100022a2:	0c0c                	addi	a1,sp,528
100022a4:	060c                	addi	a1,sp,768
100022a6:	030c                	addi	a1,sp,384
100022a8:	01f0                	addi	a2,sp,204
	...
100022ce:	0180                	addi	s0,sp,192
100022d0:	03c0                	addi	s0,sp,452
100022d2:	03c0                	addi	s0,sp,452
100022d4:	0180                	addi	s0,sp,192
	...
100022e2:	0180                	addi	s0,sp,192
100022e4:	03c0                	addi	s0,sp,452
100022e6:	03c0                	addi	s0,sp,452
100022e8:	0180                	addi	s0,sp,192
	...
1000230e:	00c0                	addi	s0,sp,68
10002310:	00c0                	addi	s0,sp,68
	...
10002326:	00c0                	addi	s0,sp,68
10002328:	00c0                	addi	s0,sp,68
1000232a:	0080                	addi	s0,sp,64
1000232c:	0080                	addi	s0,sp,64
1000232e:	0040                	addi	s0,sp,4
10002330:	0040                	addi	s0,sp,4
	...
1000233e:	2000                	fld	fs0,0(s0)
10002340:	1000                	addi	s0,sp,32
10002342:	0800                	addi	s0,sp,16
10002344:	0400                	addi	s0,sp,512
10002346:	0600                	addi	s0,sp,768
10002348:	0300                	addi	s0,sp,384
1000234a:	0180                	addi	s0,sp,192
1000234c:	00c0                	addi	s0,sp,68
1000234e:	0060                	addi	s0,sp,12
10002350:	0030                	addi	a2,sp,8
10002352:	0018                	0x18
10002354:	000c                	0xc
10002356:	0018                	0x18
10002358:	0030                	addi	a2,sp,8
1000235a:	0060                	addi	s0,sp,12
1000235c:	00c0                	addi	s0,sp,68
1000235e:	0180                	addi	s0,sp,192
10002360:	0300                	addi	s0,sp,384
10002362:	0600                	addi	s0,sp,768
10002364:	0400                	addi	s0,sp,512
10002366:	0800                	addi	s0,sp,16
10002368:	1000                	addi	s0,sp,32
1000236a:	2000                	fld	fs0,0(s0)
	...
1000238c:	0000                	unimp
1000238e:	7ffe                	flw	ft11,252(sp)
	...
10002398:	0000                	unimp
1000239a:	7ffe                	flw	ft11,252(sp)
	...
100023bc:	0000                	unimp
100023be:	0004                	0x4
100023c0:	0008                	0x8
100023c2:	0010                	0x10
100023c4:	0020                	addi	s0,sp,8
100023c6:	0060                	addi	s0,sp,12
100023c8:	00c0                	addi	s0,sp,68
100023ca:	0180                	addi	s0,sp,192
100023cc:	0300                	addi	s0,sp,384
100023ce:	0600                	addi	s0,sp,768
100023d0:	0c00                	addi	s0,sp,528
100023d2:	1800                	addi	s0,sp,48
100023d4:	3000                	fld	fs0,32(s0)
100023d6:	1800                	addi	s0,sp,48
100023d8:	0c00                	addi	s0,sp,528
100023da:	0600                	addi	s0,sp,768
100023dc:	0300                	addi	s0,sp,384
100023de:	0180                	addi	s0,sp,192
100023e0:	00c0                	addi	s0,sp,68
100023e2:	0060                	addi	s0,sp,12
100023e4:	0020                	addi	s0,sp,8
100023e6:	0010                	0x10
100023e8:	0008                	0x8
100023ea:	0004                	0x4
	...
100023fc:	0000                	unimp
100023fe:	07c0                	addi	s0,sp,964
10002400:	1830                	addi	a2,sp,56
10002402:	3008                	fld	fa0,32(s0)
10002404:	6008                	flw	fa0,0(s0)
10002406:	600c                	flw	fa1,0(s0)
10002408:	601c                	flw	fa5,0(s0)
1000240a:	601c                	flw	fa5,0(s0)
1000240c:	601c                	flw	fa5,0(s0)
1000240e:	3000                	fld	fs0,32(s0)
10002410:	1c00                	addi	s0,sp,560
10002412:	0600                	addi	s0,sp,768
10002414:	0100                	addi	s0,sp,128
10002416:	0080                	addi	s0,sp,64
10002418:	0080                	addi	s0,sp,64
1000241a:	0080                	addi	s0,sp,64
1000241c:	0080                	addi	s0,sp,64
1000241e:	0000                	unimp
10002420:	0000                	unimp
10002422:	0180                	addi	s0,sp,192
10002424:	03c0                	addi	s0,sp,452
10002426:	03c0                	addi	s0,sp,452
10002428:	0180                	addi	s0,sp,192
	...
1000243e:	0000                	unimp
10002440:	07c0                	addi	s0,sp,964
10002442:	1860                	addi	s0,sp,60
10002444:	3010                	fld	fa2,32(s0)
10002446:	2018                	fld	fa4,0(s0)
10002448:	2f0c                	fld	fa1,24(a4)
1000244a:	4d8c                	lw	a1,24(a1)
1000244c:	4c86                	lw	s9,64(sp)
1000244e:	4cc6                	lw	s9,80(sp)
10002450:	4cc6                	lw	s9,80(sp)
10002452:	4c66                	lw	s8,88(sp)
10002454:	4466                	lw	s0,88(sp)
10002456:	4466                	lw	s0,88(sp)
10002458:	2666                	fld	fa2,88(sp)
1000245a:	2666                	fld	fa2,88(sp)
1000245c:	1566                	slli	a0,a0,0x39
1000245e:	1ccc                	addi	a1,sp,628
10002460:	400c                	lw	a1,0(s0)
10002462:	2008                	fld	fa0,0(s0)
10002464:	3018                	fld	fa4,32(s0)
10002466:	1830                	addi	a2,sp,56
10002468:	07c0                	addi	s0,sp,964
	...
1000247e:	0100                	addi	s0,sp,128
10002480:	01c0                	addi	s0,sp,196
10002482:	01c0                	addi	s0,sp,196
10002484:	01c0                	addi	s0,sp,196
10002486:	0140                	addi	s0,sp,132
10002488:	0360                	addi	s0,sp,396
1000248a:	0320                	addi	s0,sp,392
1000248c:	0320                	addi	s0,sp,392
1000248e:	0320                	addi	s0,sp,392
10002490:	0630                	addi	a2,sp,776
10002492:	0610                	addi	a2,sp,768
10002494:	0610                	addi	a2,sp,768
10002496:	0610                	addi	a2,sp,768
10002498:	0ff8                	addi	a4,sp,988
1000249a:	0c08                	addi	a0,sp,528
1000249c:	0c08                	addi	a0,sp,528
1000249e:	0c08                	addi	a0,sp,528
100024a0:	0c0c                	addi	a1,sp,528
100024a2:	1804                	addi	s1,sp,48
100024a4:	1804                	addi	s1,sp,48
100024a6:	1806                	slli	a6,a6,0x21
100024a8:	7c1f 0000 0000      	0x7c1f
	...
100024be:	0000                	unimp
100024c0:	07fe                	slli	a5,a5,0x1f
100024c2:	1c18                	addi	a4,sp,560
100024c4:	3818                	fld	fa4,48(s0)
100024c6:	3018                	fld	fa4,32(s0)
100024c8:	3018                	fld	fa4,32(s0)
100024ca:	3018                	fld	fa4,32(s0)
100024cc:	3018                	fld	fa4,32(s0)
100024ce:	1818                	addi	a4,sp,48
100024d0:	0c18                	addi	a4,sp,528
100024d2:	07f8                	addi	a4,sp,972
100024d4:	1818                	addi	a4,sp,48
100024d6:	3018                	fld	fa4,32(s0)
100024d8:	2018                	fld	fa4,0(s0)
100024da:	6018                	flw	fa4,0(s0)
100024dc:	6018                	flw	fa4,0(s0)
100024de:	6018                	flw	fa4,0(s0)
100024e0:	6018                	flw	fa4,0(s0)
100024e2:	6018                	flw	fa4,0(s0)
100024e4:	3018                	fld	fa4,32(s0)
100024e6:	1818                	addi	a4,sp,48
100024e8:	0ffe                	slli	t6,t6,0x1f
	...
100024fe:	0000                	unimp
10002500:	27c0                	fld	fs0,136(a5)
10002502:	3860                	fld	fs0,240(s0)
10002504:	3010                	fld	fa2,32(s0)
10002506:	2018                	fld	fa4,0(s0)
10002508:	400c                	lw	a1,0(s0)
1000250a:	400c                	lw	a1,0(s0)
1000250c:	0004                	0x4
1000250e:	0006                	c.slli	zero,0x1
10002510:	0006                	c.slli	zero,0x1
10002512:	0006                	c.slli	zero,0x1
10002514:	0006                	c.slli	zero,0x1
10002516:	0006                	c.slli	zero,0x1
10002518:	0006                	c.slli	zero,0x1
1000251a:	0006                	c.slli	zero,0x1
1000251c:	0006                	c.slli	zero,0x1
1000251e:	400c                	lw	a1,0(s0)
10002520:	400c                	lw	a1,0(s0)
10002522:	200c                	fld	fa1,0(s0)
10002524:	3018                	fld	fa4,32(s0)
10002526:	1830                	addi	a2,sp,56
10002528:	07c0                	addi	s0,sp,964
	...
1000253e:	0000                	unimp
10002540:	03fe                	slli	t2,t2,0x1f
10002542:	0e18                	addi	a4,sp,784
10002544:	1818                	addi	a4,sp,48
10002546:	3018                	fld	fa4,32(s0)
10002548:	3018                	fld	fa4,32(s0)
1000254a:	3018                	fld	fa4,32(s0)
1000254c:	6018                	flw	fa4,0(s0)
1000254e:	6018                	flw	fa4,0(s0)
10002550:	6018                	flw	fa4,0(s0)
10002552:	6018                	flw	fa4,0(s0)
10002554:	6018                	flw	fa4,0(s0)
10002556:	6018                	flw	fa4,0(s0)
10002558:	6018                	flw	fa4,0(s0)
1000255a:	6018                	flw	fa4,0(s0)
1000255c:	6018                	flw	fa4,0(s0)
1000255e:	3018                	fld	fa4,32(s0)
10002560:	3018                	fld	fa4,32(s0)
10002562:	1018                	addi	a4,sp,32
10002564:	1818                	addi	a4,sp,48
10002566:	0e18                	addi	a4,sp,784
10002568:	03fe                	slli	t2,t2,0x1f
	...
1000257e:	0000                	unimp
10002580:	3ffe                	fld	ft11,504(sp)
10002582:	3018                	fld	fa4,32(s0)
10002584:	2018                	fld	fa4,0(s0)
10002586:	6018                	flw	fa4,0(s0)
10002588:	4018                	lw	a4,0(s0)
1000258a:	0018                	0x18
1000258c:	0818                	addi	a4,sp,16
1000258e:	0818                	addi	a4,sp,16
10002590:	0c18                	addi	a4,sp,528
10002592:	0ff8                	addi	a4,sp,988
10002594:	0c18                	addi	a4,sp,528
10002596:	0818                	addi	a4,sp,16
10002598:	0818                	addi	a4,sp,16
1000259a:	0018                	0x18
1000259c:	0018                	0x18
1000259e:	0018                	0x18
100025a0:	4018                	lw	a4,0(s0)
100025a2:	4018                	lw	a4,0(s0)
100025a4:	2018                	fld	fa4,0(s0)
100025a6:	3018                	fld	fa4,32(s0)
100025a8:	3ffe                	fld	ft11,504(sp)
	...
100025be:	0000                	unimp
100025c0:	7ffe                	flw	ft11,252(sp)
100025c2:	7018                	flw	fa4,32(s0)
100025c4:	4018                	lw	a4,0(s0)
100025c6:	c018                	sw	a4,0(s0)
100025c8:	8018                	0x8018
100025ca:	0018                	0x18
100025cc:	1018                	addi	a4,sp,32
100025ce:	1018                	addi	a4,sp,32
100025d0:	1818                	addi	a4,sp,48
100025d2:	1ff8                	addi	a4,sp,1020
100025d4:	1818                	addi	a4,sp,48
100025d6:	1018                	addi	a4,sp,32
100025d8:	1018                	addi	a4,sp,32
100025da:	0018                	0x18
100025dc:	0018                	0x18
100025de:	0018                	0x18
100025e0:	0018                	0x18
100025e2:	0018                	0x18
100025e4:	0018                	0x18
100025e6:	0018                	0x18
100025e8:	007e                	c.slli	zero,0x1f
	...
100025fe:	0000                	unimp
10002600:	13c0                	addi	s0,sp,484
10002602:	1c70                	addi	a2,sp,572
10002604:	1010                	addi	a2,sp,32
10002606:	1018                	addi	a4,sp,32
10002608:	200c                	fld	fa1,0(s0)
1000260a:	200c                	fld	fa1,0(s0)
1000260c:	0004                	0x4
1000260e:	0006                	c.slli	zero,0x1
10002610:	0006                	c.slli	zero,0x1
10002612:	0006                	c.slli	zero,0x1
10002614:	0006                	c.slli	zero,0x1
10002616:	0006                	c.slli	zero,0x1
10002618:	fc06                	fsw	ft1,56(sp)
1000261a:	3006                	fld	ft0,96(sp)
1000261c:	3006                	fld	ft0,96(sp)
1000261e:	300c                	fld	fa1,32(s0)
10002620:	300c                	fld	fa1,32(s0)
10002622:	3018                	fld	fa4,32(s0)
10002624:	3018                	fld	fa4,32(s0)
10002626:	0830                	addi	a2,sp,24
10002628:	07c0                	addi	s0,sp,964
	...
1000263e:	0000                	unimp
10002640:	180c7e3f 180c180c 	0x180c180c180c7e3f
10002648:	180c                	addi	a1,sp,48
1000264a:	180c                	addi	a1,sp,48
1000264c:	180c                	addi	a1,sp,48
1000264e:	180c                	addi	a1,sp,48
10002650:	180c                	addi	a1,sp,48
10002652:	180c                	addi	a1,sp,48
10002654:	1ffc                	addi	a5,sp,1020
10002656:	180c                	addi	a1,sp,48
10002658:	180c                	addi	a1,sp,48
1000265a:	180c                	addi	a1,sp,48
1000265c:	180c                	addi	a1,sp,48
1000265e:	180c                	addi	a1,sp,48
10002660:	180c                	addi	a1,sp,48
10002662:	180c                	addi	a1,sp,48
10002664:	180c                	addi	a1,sp,48
10002666:	180c                	addi	a1,sp,48
10002668:	00007e3f 00000000 	0x7e3f
	...
10002680:	1ff8                	addi	a4,sp,1020
10002682:	0180                	addi	s0,sp,192
10002684:	0180                	addi	s0,sp,192
10002686:	0180                	addi	s0,sp,192
10002688:	0180                	addi	s0,sp,192
1000268a:	0180                	addi	s0,sp,192
1000268c:	0180                	addi	s0,sp,192
1000268e:	0180                	addi	s0,sp,192
10002690:	0180                	addi	s0,sp,192
10002692:	0180                	addi	s0,sp,192
10002694:	0180                	addi	s0,sp,192
10002696:	0180                	addi	s0,sp,192
10002698:	0180                	addi	s0,sp,192
1000269a:	0180                	addi	s0,sp,192
1000269c:	0180                	addi	s0,sp,192
1000269e:	0180                	addi	s0,sp,192
100026a0:	0180                	addi	s0,sp,192
100026a2:	0180                	addi	s0,sp,192
100026a4:	0180                	addi	s0,sp,192
100026a6:	0180                	addi	s0,sp,192
100026a8:	1ff8                	addi	a4,sp,1020
	...
100026be:	0000                	unimp
100026c0:	7fe0                	flw	fs0,124(a5)
100026c2:	0600                	addi	s0,sp,768
100026c4:	0600                	addi	s0,sp,768
100026c6:	0600                	addi	s0,sp,768
100026c8:	0600                	addi	s0,sp,768
100026ca:	0600                	addi	s0,sp,768
100026cc:	0600                	addi	s0,sp,768
100026ce:	0600                	addi	s0,sp,768
100026d0:	0600                	addi	s0,sp,768
100026d2:	0600                	addi	s0,sp,768
100026d4:	0600                	addi	s0,sp,768
100026d6:	0600                	addi	s0,sp,768
100026d8:	0600                	addi	s0,sp,768
100026da:	0600                	addi	s0,sp,768
100026dc:	0600                	addi	s0,sp,768
100026de:	0600                	addi	s0,sp,768
100026e0:	0600                	addi	s0,sp,768
100026e2:	0600                	addi	s0,sp,768
100026e4:	0600                	addi	s0,sp,768
100026e6:	0600                	addi	s0,sp,768
100026e8:	0600                	addi	s0,sp,768
100026ea:	0600                	addi	s0,sp,768
100026ec:	060e                	slli	a2,a2,0x3
100026ee:	030e                	slli	t1,t1,0x3
100026f0:	018e                	slli	gp,gp,0x3
100026f2:	00fc                	addi	a5,sp,76
	...
10002700:	7c7e                	flw	fs8,252(sp)
10002702:	1818                	addi	a4,sp,48
10002704:	0818                	addi	a4,sp,16
10002706:	0418                	addi	a4,sp,512
10002708:	0618                	addi	a4,sp,768
1000270a:	0218                	addi	a4,sp,256
1000270c:	0118                	addi	a4,sp,128
1000270e:	0198                	addi	a4,sp,192
10002710:	0198                	addi	a4,sp,192
10002712:	01d8                	addi	a4,sp,196
10002714:	03b8                	addi	a4,sp,456
10002716:	0338                	addi	a4,sp,392
10002718:	0718                	addi	a4,sp,896
1000271a:	0618                	addi	a4,sp,768
1000271c:	0e18                	addi	a4,sp,784
1000271e:	0c18                	addi	a4,sp,528
10002720:	1c18                	addi	a4,sp,560
10002722:	1818                	addi	a4,sp,48
10002724:	3018                	fld	fa4,32(s0)
10002726:	3018                	fld	fa4,32(s0)
10002728:	fc7e                	fsw	ft11,56(sp)
	...
1000273e:	0000                	unimp
10002740:	007e                	c.slli	zero,0x1f
10002742:	0018                	0x18
10002744:	0018                	0x18
10002746:	0018                	0x18
10002748:	0018                	0x18
1000274a:	0018                	0x18
1000274c:	0018                	0x18
1000274e:	0018                	0x18
10002750:	0018                	0x18
10002752:	0018                	0x18
10002754:	0018                	0x18
10002756:	0018                	0x18
10002758:	0018                	0x18
1000275a:	0018                	0x18
1000275c:	0018                	0x18
1000275e:	0018                	0x18
10002760:	4018                	lw	a4,0(s0)
10002762:	4018                	lw	a4,0(s0)
10002764:	2018                	fld	fa4,0(s0)
10002766:	3018                	fld	fa4,32(s0)
10002768:	3ffe                	fld	ft11,504(sp)
	...
1000277e:	0000                	unimp
10002780:	f81f 381c 381c      	0x381c381cf81f
10002786:	381c                	fld	fa5,48(s0)
10002788:	3c1c                	fld	fa5,56(s0)
1000278a:	3434                	fld	fa3,104(s0)
1000278c:	3434                	fld	fa3,104(s0)
1000278e:	3434                	fld	fa3,104(s0)
10002790:	3634                	fld	fa3,104(a2)
10002792:	3274                	fld	fa3,224(a2)
10002794:	3264                	fld	fs1,224(a2)
10002796:	3264                	fld	fs1,224(a2)
10002798:	3264                	fld	fs1,224(a2)
1000279a:	3164                	fld	fs1,224(a0)
1000279c:	31c4                	fld	fs1,160(a1)
1000279e:	31c4                	fld	fs1,160(a1)
100027a0:	31c4                	fld	fs1,160(a1)
100027a2:	30c4                	fld	fs1,160(s1)
100027a4:	30c4                	fld	fs1,160(s1)
100027a6:	3084                	fld	fs1,32(s1)
100027a8:	fc9f 0000 0000      	0xfc9f
	...
100027be:	0000                	unimp
100027c0:	7c1f 101c 103c      	0x103c101c7c1f
100027c6:	1034                	addi	a3,sp,40
100027c8:	1034                	addi	a3,sp,40
100027ca:	1074                	addi	a3,sp,44
100027cc:	1064                	addi	s1,sp,44
100027ce:	10e4                	addi	s1,sp,108
100027d0:	10c4                	addi	s1,sp,100
100027d2:	11c4                	addi	s1,sp,228
100027d4:	1184                	addi	s1,sp,224
100027d6:	1384                	addi	s1,sp,480
100027d8:	1304                	addi	s1,sp,416
100027da:	1704                	addi	s1,sp,928
100027dc:	1604                	addi	s1,sp,800
100027de:	1e04                	addi	s1,sp,816
100027e0:	1c04                	addi	s1,sp,560
100027e2:	1c04                	addi	s1,sp,560
100027e4:	1c04                	addi	s1,sp,560
100027e6:	1804                	addi	s1,sp,48
100027e8:	181f 0000 0000      	0x181f
	...
100027fe:	0000                	unimp
10002800:	03c0                	addi	s0,sp,452
10002802:	0c30                	addi	a2,sp,536
10002804:	1818                	addi	a4,sp,48
10002806:	1008                	addi	a0,sp,32
10002808:	300c                	fld	fa1,32(s0)
1000280a:	300c                	fld	fa1,32(s0)
1000280c:	6006                	flw	ft0,64(sp)
1000280e:	6006                	flw	ft0,64(sp)
10002810:	6006                	flw	ft0,64(sp)
10002812:	6006                	flw	ft0,64(sp)
10002814:	6006                	flw	ft0,64(sp)
10002816:	6006                	flw	ft0,64(sp)
10002818:	6006                	flw	ft0,64(sp)
1000281a:	6006                	flw	ft0,64(sp)
1000281c:	6006                	flw	ft0,64(sp)
1000281e:	200c                	fld	fa1,0(s0)
10002820:	300c                	fld	fa1,32(s0)
10002822:	1008                	addi	a0,sp,32
10002824:	1818                	addi	a4,sp,48
10002826:	0c30                	addi	a2,sp,536
10002828:	03c0                	addi	s0,sp,452
	...
1000283e:	0000                	unimp
10002840:	0ffe                	slli	t6,t6,0x1f
10002842:	1818                	addi	a4,sp,48
10002844:	3018                	fld	fa4,32(s0)
10002846:	6018                	flw	fa4,0(s0)
10002848:	6018                	flw	fa4,0(s0)
1000284a:	6018                	flw	fa4,0(s0)
1000284c:	6018                	flw	fa4,0(s0)
1000284e:	6018                	flw	fa4,0(s0)
10002850:	3018                	fld	fa4,32(s0)
10002852:	1818                	addi	a4,sp,48
10002854:	0ff8                	addi	a4,sp,988
10002856:	0018                	0x18
10002858:	0018                	0x18
1000285a:	0018                	0x18
1000285c:	0018                	0x18
1000285e:	0018                	0x18
10002860:	0018                	0x18
10002862:	0018                	0x18
10002864:	0018                	0x18
10002866:	0018                	0x18
10002868:	007e                	c.slli	zero,0x1f
	...
1000287e:	0000                	unimp
10002880:	03c0                	addi	s0,sp,452
10002882:	0c30                	addi	a2,sp,536
10002884:	1818                	addi	a4,sp,48
10002886:	100c                	addi	a1,sp,32
10002888:	300c                	fld	fa1,32(s0)
1000288a:	200c                	fld	fa1,0(s0)
1000288c:	6006                	flw	ft0,64(sp)
1000288e:	6006                	flw	ft0,64(sp)
10002890:	6006                	flw	ft0,64(sp)
10002892:	6006                	flw	ft0,64(sp)
10002894:	6006                	flw	ft0,64(sp)
10002896:	6006                	flw	ft0,64(sp)
10002898:	6006                	flw	ft0,64(sp)
1000289a:	6006                	flw	ft0,64(sp)
1000289c:	6006                	flw	ft0,64(sp)
1000289e:	61e4                	flw	fs1,68(a1)
100028a0:	332c                	fld	fa1,96(a4)
100028a2:	321c                	fld	fa5,32(a2)
100028a4:	1618                	addi	a4,sp,800
100028a6:	0e30                	addi	a2,sp,792
100028a8:	07c0                	addi	s0,sp,964
100028aa:	4c00                	lw	s0,24(s0)
100028ac:	7c00                	flw	fs0,56(s0)
100028ae:	3800                	fld	fs0,48(s0)
	...
100028c0:	07fe                	slli	a5,a5,0x1f
100028c2:	1c18                	addi	a4,sp,560
100028c4:	3818                	fld	fa4,48(s0)
100028c6:	3018                	fld	fa4,32(s0)
100028c8:	3018                	fld	fa4,32(s0)
100028ca:	3018                	fld	fa4,32(s0)
100028cc:	3018                	fld	fa4,32(s0)
100028ce:	1818                	addi	a4,sp,48
100028d0:	0c18                	addi	a4,sp,528
100028d2:	07f8                	addi	a4,sp,972
100028d4:	0398                	addi	a4,sp,448
100028d6:	0318                	addi	a4,sp,384
100028d8:	0718                	addi	a4,sp,896
100028da:	0618                	addi	a4,sp,768
100028dc:	0618                	addi	a4,sp,768
100028de:	0e18                	addi	a4,sp,784
100028e0:	0c18                	addi	a4,sp,528
100028e2:	0c18                	addi	a4,sp,528
100028e4:	1c18                	addi	a4,sp,560
100028e6:	1818                	addi	a4,sp,48
100028e8:	787e                	flw	fa6,252(sp)
	...
100028fe:	0000                	unimp
10002900:	27e0                	fld	fs0,200(a5)
10002902:	3830                	fld	fa2,112(s0)
10002904:	3018                	fld	fa4,32(s0)
10002906:	200c                	fld	fa1,0(s0)
10002908:	200c                	fld	fa1,0(s0)
1000290a:	000c                	0xc
1000290c:	000c                	0xc
1000290e:	0018                	0x18
10002910:	0078                	addi	a4,sp,12
10002912:	03e0                	addi	s0,sp,460
10002914:	0f80                	addi	s0,sp,976
10002916:	1e00                	addi	s0,sp,816
10002918:	3800                	fld	fs0,48(s0)
1000291a:	7000                	flw	fs0,32(s0)
1000291c:	6000                	flw	fs0,0(s0)
1000291e:	6004                	flw	fs1,0(s0)
10002920:	6004                	flw	fs1,0(s0)
10002922:	6008                	flw	fa0,0(s0)
10002924:	3018                	fld	fa4,32(s0)
10002926:	1838                	addi	a4,sp,56
10002928:	0fc8                	addi	a0,sp,980
	...
1000293e:	0000                	unimp
10002940:	3ffc                	fld	fa5,248(a5)
10002942:	218c                	fld	fa1,0(a1)
10002944:	6184                	flw	fs1,0(a1)
10002946:	4182                	lw	gp,0(sp)
10002948:	4182                	lw	gp,0(sp)
1000294a:	0180                	addi	s0,sp,192
1000294c:	0180                	addi	s0,sp,192
1000294e:	0180                	addi	s0,sp,192
10002950:	0180                	addi	s0,sp,192
10002952:	0180                	addi	s0,sp,192
10002954:	0180                	addi	s0,sp,192
10002956:	0180                	addi	s0,sp,192
10002958:	0180                	addi	s0,sp,192
1000295a:	0180                	addi	s0,sp,192
1000295c:	0180                	addi	s0,sp,192
1000295e:	0180                	addi	s0,sp,192
10002960:	0180                	addi	s0,sp,192
10002962:	0180                	addi	s0,sp,192
10002964:	0180                	addi	s0,sp,192
10002966:	0180                	addi	s0,sp,192
10002968:	07e0                	addi	s0,sp,972
	...
1000297e:	0000                	unimp
10002980:	100c7c3f 100c100c 	0x100c100c100c7c3f
10002988:	100c                	addi	a1,sp,32
1000298a:	100c                	addi	a1,sp,32
1000298c:	100c                	addi	a1,sp,32
1000298e:	100c                	addi	a1,sp,32
10002990:	100c                	addi	a1,sp,32
10002992:	100c                	addi	a1,sp,32
10002994:	100c                	addi	a1,sp,32
10002996:	100c                	addi	a1,sp,32
10002998:	100c                	addi	a1,sp,32
1000299a:	100c                	addi	a1,sp,32
1000299c:	100c                	addi	a1,sp,32
1000299e:	100c                	addi	a1,sp,32
100029a0:	100c                	addi	a1,sp,32
100029a2:	100c                	addi	a1,sp,32
100029a4:	0808                	addi	a0,sp,16
100029a6:	0438                	addi	a4,sp,520
100029a8:	03e0                	addi	s0,sp,460
	...
100029be:	0000                	unimp
100029c0:	f83e                	fsw	fa5,48(sp)
100029c2:	2018                	fld	fa4,0(s0)
100029c4:	2018                	fld	fa4,0(s0)
100029c6:	2018                	fld	fa4,0(s0)
100029c8:	1030                	addi	a2,sp,40
100029ca:	1030                	addi	a2,sp,40
100029cc:	1030                	addi	a2,sp,40
100029ce:	1030                	addi	a2,sp,40
100029d0:	0860                	addi	s0,sp,28
100029d2:	0860                	addi	s0,sp,28
100029d4:	0860                	addi	s0,sp,28
100029d6:	0ce0                	addi	s0,sp,604
100029d8:	04c0                	addi	s0,sp,580
100029da:	04c0                	addi	s0,sp,580
100029dc:	04c0                	addi	s0,sp,580
100029de:	0380                	addi	s0,sp,448
100029e0:	0380                	addi	s0,sp,448
100029e2:	0380                	addi	s0,sp,448
100029e4:	0380                	addi	s0,sp,448
100029e6:	0100                	addi	s0,sp,128
100029e8:	0100                	addi	s0,sp,128
	...
100029fe:	0000                	unimp
10002a00:	f3df 6186 2186      	0x21866186f3df
10002a06:	2186                	fld	ft3,64(sp)
10002a08:	218c                	fld	fa1,0(a1)
10002a0a:	210c                	fld	fa1,0(a0)
10002a0c:	238c                	fld	fa1,0(a5)
10002a0e:	138c                	addi	a1,sp,480
10002a10:	138c                	addi	a1,sp,480
10002a12:	138c                	addi	a1,sp,480
10002a14:	134c                	addi	a1,sp,420
10002a16:	1258                	addi	a4,sp,292
10002a18:	1658                	addi	a4,sp,804
10002a1a:	0e58                	addi	a4,sp,788
10002a1c:	0e38                	addi	a4,sp,792
10002a1e:	0e38                	addi	a4,sp,792
10002a20:	0e38                	addi	a4,sp,792
10002a22:	0c30                	addi	a2,sp,536
10002a24:	0410                	addi	a2,sp,512
10002a26:	0410                	addi	a2,sp,512
10002a28:	0410                	addi	a2,sp,512
	...
10002a3e:	0000                	unimp
10002a40:	3e7e                	fld	ft8,504(sp)
10002a42:	0818                	addi	a4,sp,16
10002a44:	0838                	addi	a4,sp,24
10002a46:	0430                	addi	a2,sp,520
10002a48:	0430                	addi	a2,sp,520
10002a4a:	0270                	addi	a2,sp,268
10002a4c:	0260                	addi	s0,sp,268
10002a4e:	01e0                	addi	s0,sp,204
10002a50:	01c0                	addi	s0,sp,196
10002a52:	01c0                	addi	s0,sp,196
10002a54:	0180                	addi	s0,sp,192
10002a56:	0380                	addi	s0,sp,448
10002a58:	0340                	addi	s0,sp,388
10002a5a:	0740                	addi	s0,sp,900
10002a5c:	0620                	addi	s0,sp,776
10002a5e:	0620                	addi	s0,sp,776
10002a60:	0c10                	addi	a2,sp,528
10002a62:	0c10                	addi	a2,sp,528
10002a64:	1808                	addi	a0,sp,48
10002a66:	1808                	addi	a0,sp,48
10002a68:	7c3e                	flw	fs8,236(sp)
	...
10002a7e:	0000                	unimp
10002a80:	7c7e                	flw	fs8,252(sp)
10002a82:	101c                	addi	a5,sp,32
10002a84:	1018                	addi	a4,sp,32
10002a86:	0818                	addi	a4,sp,16
10002a88:	0830                	addi	a2,sp,24
10002a8a:	0c30                	addi	a2,sp,536
10002a8c:	0470                	addi	a2,sp,524
10002a8e:	0460                	addi	s0,sp,524
10002a90:	0260                	addi	s0,sp,268
10002a92:	02c0                	addi	s0,sp,324
10002a94:	02c0                	addi	s0,sp,324
10002a96:	01c0                	addi	s0,sp,196
10002a98:	0180                	addi	s0,sp,192
10002a9a:	0180                	addi	s0,sp,192
10002a9c:	0180                	addi	s0,sp,192
10002a9e:	0180                	addi	s0,sp,192
10002aa0:	0180                	addi	s0,sp,192
10002aa2:	0180                	addi	s0,sp,192
10002aa4:	0180                	addi	s0,sp,192
10002aa6:	0180                	addi	s0,sp,192
10002aa8:	07e0                	addi	s0,sp,972
	...
10002abe:	0000                	unimp
10002ac0:	3ff8                	fld	fa4,248(a5)
10002ac2:	1818                	addi	a4,sp,48
10002ac4:	1808                	addi	a0,sp,48
10002ac6:	0c04                	addi	s1,sp,528
10002ac8:	0e04                	addi	s1,sp,784
10002aca:	0600                	addi	s0,sp,768
10002acc:	0700                	addi	s0,sp,896
10002ace:	0300                	addi	s0,sp,384
10002ad0:	0380                	addi	s0,sp,448
10002ad2:	0180                	addi	s0,sp,192
10002ad4:	01c0                	addi	s0,sp,196
10002ad6:	00c0                	addi	s0,sp,68
10002ad8:	00e0                	addi	s0,sp,76
10002ada:	0060                	addi	s0,sp,12
10002adc:	0070                	addi	a2,sp,12
10002ade:	0030                	addi	a2,sp,8
10002ae0:	2038                	fld	fa4,64(s0)
10002ae2:	2018                	fld	fa4,0(s0)
10002ae4:	101c                	addi	a5,sp,32
10002ae6:	180c                	addi	a1,sp,48
10002ae8:	1ffe                	slli	t6,t6,0x3f
	...
10002afa:	3fc0                	fld	fs0,184(a5)
10002afc:	0040                	addi	s0,sp,4
10002afe:	0040                	addi	s0,sp,4
10002b00:	0040                	addi	s0,sp,4
10002b02:	0040                	addi	s0,sp,4
10002b04:	0040                	addi	s0,sp,4
10002b06:	0040                	addi	s0,sp,4
10002b08:	0040                	addi	s0,sp,4
10002b0a:	0040                	addi	s0,sp,4
10002b0c:	0040                	addi	s0,sp,4
10002b0e:	0040                	addi	s0,sp,4
10002b10:	0040                	addi	s0,sp,4
10002b12:	0040                	addi	s0,sp,4
10002b14:	0040                	addi	s0,sp,4
10002b16:	0040                	addi	s0,sp,4
10002b18:	0040                	addi	s0,sp,4
10002b1a:	0040                	addi	s0,sp,4
10002b1c:	0040                	addi	s0,sp,4
10002b1e:	0040                	addi	s0,sp,4
10002b20:	0040                	addi	s0,sp,4
10002b22:	0040                	addi	s0,sp,4
10002b24:	0040                	addi	s0,sp,4
10002b26:	0040                	addi	s0,sp,4
10002b28:	0040                	addi	s0,sp,4
10002b2a:	0040                	addi	s0,sp,4
10002b2c:	0040                	addi	s0,sp,4
10002b2e:	3fc0                	fld	fs0,184(a5)
	...
10002b3c:	0000                	unimp
10002b3e:	0008                	0x8
10002b40:	0018                	0x18
10002b42:	0018                	0x18
10002b44:	0010                	0x10
10002b46:	0030                	addi	a2,sp,8
10002b48:	0020                	addi	s0,sp,8
10002b4a:	0060                	addi	s0,sp,12
10002b4c:	0060                	addi	s0,sp,12
10002b4e:	0040                	addi	s0,sp,4
10002b50:	00c0                	addi	s0,sp,68
10002b52:	0080                	addi	s0,sp,64
10002b54:	0180                	addi	s0,sp,192
10002b56:	0180                	addi	s0,sp,192
10002b58:	0100                	addi	s0,sp,128
10002b5a:	0300                	addi	s0,sp,384
10002b5c:	0200                	addi	s0,sp,256
10002b5e:	0600                	addi	s0,sp,768
10002b60:	0600                	addi	s0,sp,768
10002b62:	0400                	addi	s0,sp,512
10002b64:	0c00                	addi	s0,sp,528
10002b66:	0800                	addi	s0,sp,16
10002b68:	1800                	addi	s0,sp,48
10002b6a:	1800                	addi	s0,sp,48
10002b6c:	1000                	addi	s0,sp,32
10002b6e:	3000                	fld	fs0,32(s0)
10002b70:	2000                	fld	fs0,0(s0)
	...
10002b7a:	03fc                	addi	a5,sp,460
10002b7c:	0200                	addi	s0,sp,256
10002b7e:	0200                	addi	s0,sp,256
10002b80:	0200                	addi	s0,sp,256
10002b82:	0200                	addi	s0,sp,256
10002b84:	0200                	addi	s0,sp,256
10002b86:	0200                	addi	s0,sp,256
10002b88:	0200                	addi	s0,sp,256
10002b8a:	0200                	addi	s0,sp,256
10002b8c:	0200                	addi	s0,sp,256
10002b8e:	0200                	addi	s0,sp,256
10002b90:	0200                	addi	s0,sp,256
10002b92:	0200                	addi	s0,sp,256
10002b94:	0200                	addi	s0,sp,256
10002b96:	0200                	addi	s0,sp,256
10002b98:	0200                	addi	s0,sp,256
10002b9a:	0200                	addi	s0,sp,256
10002b9c:	0200                	addi	s0,sp,256
10002b9e:	0200                	addi	s0,sp,256
10002ba0:	0200                	addi	s0,sp,256
10002ba2:	0200                	addi	s0,sp,256
10002ba4:	0200                	addi	s0,sp,256
10002ba6:	0200                	addi	s0,sp,256
10002ba8:	0200                	addi	s0,sp,256
10002baa:	0200                	addi	s0,sp,256
10002bac:	0200                	addi	s0,sp,256
10002bae:	03fc                	addi	a5,sp,460
	...
10002bb8:	0000                	unimp
10002bba:	0780                	addi	s0,sp,960
10002bbc:	06c0                	addi	s0,sp,836
10002bbe:	0820                	addi	s0,sp,24
10002bc0:	1010                	addi	a2,sp,32
	...
10002c32:	ffff                	0xffff
10002c34:	0000                	unimp
10002c36:	0000                	unimp
10002c38:	0000                	unimp
10002c3a:	0078                	addi	a4,sp,12
10002c3c:	00c0                	addi	s0,sp,68
10002c3e:	0100                	addi	s0,sp,128
	...
10002c8c:	0000                	unimp
10002c8e:	03f0                	addi	a2,sp,460
10002c90:	0618                	addi	a4,sp,768
10002c92:	0c0c                	addi	a1,sp,528
10002c94:	0c0c                	addi	a1,sp,528
10002c96:	0c00                	addi	s0,sp,528
10002c98:	0f80                	addi	s0,sp,976
10002c9a:	0c70                	addi	a2,sp,540
10002c9c:	0c1c                	addi	a5,sp,528
10002c9e:	0c0c                	addi	a1,sp,528
10002ca0:	0c06                	slli	s8,s8,0x1
10002ca2:	0c06                	slli	s8,s8,0x1
10002ca4:	4c06                	lw	s8,64(sp)
10002ca6:	4f0c                	lw	a1,24(a4)
10002ca8:	38f8                	fld	fa4,240(s1)
	...
10002cbe:	0010                	0x10
10002cc0:	001e                	c.slli	zero,0x7
10002cc2:	0018                	0x18
10002cc4:	0018                	0x18
10002cc6:	0018                	0x18
10002cc8:	0018                	0x18
10002cca:	0018                	0x18
10002ccc:	0018                	0x18
10002cce:	0f18                	addi	a4,sp,912
10002cd0:	18d8                	addi	a4,sp,116
10002cd2:	3038                	fld	fa4,96(s0)
10002cd4:	6038                	flw	fa4,64(s0)
10002cd6:	6018                	flw	fa4,0(s0)
10002cd8:	6018                	flw	fa4,0(s0)
10002cda:	6018                	flw	fa4,0(s0)
10002cdc:	6018                	flw	fa4,0(s0)
10002cde:	6018                	flw	fa4,0(s0)
10002ce0:	6018                	flw	fa4,0(s0)
10002ce2:	2018                	fld	fa4,0(s0)
10002ce4:	3038                	fld	fa4,96(s0)
10002ce6:	1878                	addi	a4,sp,60
10002ce8:	07c8                	addi	a0,sp,964
	...
10002d0e:	07c0                	addi	s0,sp,964
10002d10:	0c70                	addi	a2,sp,540
10002d12:	1818                	addi	a4,sp,48
10002d14:	1818                	addi	a4,sp,48
10002d16:	180c                	addi	a1,sp,48
10002d18:	000c                	0xc
10002d1a:	000c                	0xc
10002d1c:	000c                	0xc
10002d1e:	000c                	0xc
10002d20:	200c                	fld	fa1,0(s0)
10002d22:	2018                	fld	fa4,0(s0)
10002d24:	1018                	addi	a4,sp,32
10002d26:	0830                	addi	a2,sp,24
10002d28:	07c0                	addi	s0,sp,964
	...
10002d3e:	1000                	addi	s0,sp,32
10002d40:	1e00                	addi	s0,sp,816
10002d42:	1800                	addi	s0,sp,48
10002d44:	1800                	addi	s0,sp,48
10002d46:	1800                	addi	s0,sp,48
10002d48:	1800                	addi	s0,sp,48
10002d4a:	1800                	addi	s0,sp,48
10002d4c:	1800                	addi	s0,sp,48
10002d4e:	1be0                	addi	s0,sp,508
10002d50:	1c30                	addi	a2,sp,568
10002d52:	1818                	addi	a4,sp,48
10002d54:	1818                	addi	a4,sp,48
10002d56:	180c                	addi	a1,sp,48
10002d58:	180c                	addi	a1,sp,48
10002d5a:	180c                	addi	a1,sp,48
10002d5c:	180c                	addi	a1,sp,48
10002d5e:	180c                	addi	a1,sp,48
10002d60:	180c                	addi	a1,sp,48
10002d62:	1808                	addi	a0,sp,48
10002d64:	1c18                	addi	a4,sp,560
10002d66:	7a30                	flw	fa2,112(a2)
10002d68:	09e0                	addi	s0,sp,220
	...
10002d8e:	07c0                	addi	s0,sp,964
10002d90:	0c30                	addi	a2,sp,536
10002d92:	1818                	addi	a4,sp,48
10002d94:	1008                	addi	a0,sp,32
10002d96:	300c                	fld	fa1,32(s0)
10002d98:	300c                	fld	fa1,32(s0)
10002d9a:	3ffc                	fld	fa5,248(a5)
10002d9c:	000c                	0xc
10002d9e:	000c                	0xc
10002da0:	000c                	0xc
10002da2:	2018                	fld	fa4,0(s0)
10002da4:	1018                	addi	a4,sp,32
10002da6:	1870                	addi	a2,sp,60
10002da8:	07c0                	addi	s0,sp,964
	...
10002dbe:	0000                	unimp
10002dc0:	3e00                	fld	fs0,56(a2)
10002dc2:	c380                	sw	s0,0(a5)
10002dc4:	c080                	sw	s0,0(s1)
10002dc6:	c0c0                	sw	s0,4(s1)
10002dc8:	00c0                	addi	s0,sp,68
10002dca:	00c0                	addi	s0,sp,68
10002dcc:	00c0                	addi	s0,sp,68
10002dce:	1ffc                	addi	a5,sp,1020
10002dd0:	00c0                	addi	s0,sp,68
10002dd2:	00c0                	addi	s0,sp,68
10002dd4:	00c0                	addi	s0,sp,68
10002dd6:	00c0                	addi	s0,sp,68
10002dd8:	00c0                	addi	s0,sp,68
10002dda:	00c0                	addi	s0,sp,68
10002ddc:	00c0                	addi	s0,sp,68
10002dde:	00c0                	addi	s0,sp,68
10002de0:	00c0                	addi	s0,sp,68
10002de2:	00c0                	addi	s0,sp,68
10002de4:	00c0                	addi	s0,sp,68
10002de6:	00c0                	addi	s0,sp,68
10002de8:	0ff8                	addi	a4,sp,988
	...
10002e0e:	77c0                	flw	fs0,44(a5)
10002e10:	6c30                	flw	fa2,88(s0)
10002e12:	1810                	addi	a2,sp,48
10002e14:	1818                	addi	a4,sp,48
10002e16:	1818                	addi	a4,sp,48
10002e18:	1818                	addi	a4,sp,48
10002e1a:	1810                	addi	a2,sp,48
10002e1c:	0c30                	addi	a2,sp,536
10002e1e:	07f0                	addi	a2,sp,972
10002e20:	0018                	0x18
10002e22:	0018                	0x18
10002e24:	0ff0                	addi	a2,sp,988
10002e26:	3ff0                	fld	fa2,248(a5)
10002e28:	7008                	flw	fa0,32(s0)
10002e2a:	600c                	flw	fa1,0(s0)
10002e2c:	600c                	flw	fa1,0(s0)
10002e2e:	600c                	flw	fa1,0(s0)
10002e30:	3838                	fld	fa4,112(s0)
10002e32:	0fe0                	addi	s0,sp,988
	...
10002e3c:	0000                	unimp
10002e3e:	0010                	0x10
10002e40:	001e                	c.slli	zero,0x7
10002e42:	0018                	0x18
10002e44:	0018                	0x18
10002e46:	0018                	0x18
10002e48:	0018                	0x18
10002e4a:	0018                	0x18
10002e4c:	0018                	0x18
10002e4e:	0f98                	addi	a4,sp,976
10002e50:	18d8                	addi	a4,sp,116
10002e52:	3038                	fld	fa4,96(s0)
10002e54:	3018                	fld	fa4,32(s0)
10002e56:	3018                	fld	fa4,32(s0)
10002e58:	3018                	fld	fa4,32(s0)
10002e5a:	3018                	fld	fa4,32(s0)
10002e5c:	3018                	fld	fa4,32(s0)
10002e5e:	3018                	fld	fa4,32(s0)
10002e60:	3018                	fld	fa4,32(s0)
10002e62:	3018                	fld	fa4,32(s0)
10002e64:	3018                	fld	fa4,32(s0)
10002e66:	3018                	fld	fa4,32(s0)
10002e68:	fc7e                	fsw	ft11,56(sp)
	...
10002e7e:	0000                	unimp
10002e80:	0380                	addi	s0,sp,448
10002e82:	0380                	addi	s0,sp,448
10002e84:	0380                	addi	s0,sp,448
10002e86:	0000                	unimp
10002e88:	0000                	unimp
10002e8a:	0000                	unimp
10002e8c:	0100                	addi	s0,sp,128
10002e8e:	01f8                	addi	a4,sp,204
10002e90:	0180                	addi	s0,sp,192
10002e92:	0180                	addi	s0,sp,192
10002e94:	0180                	addi	s0,sp,192
10002e96:	0180                	addi	s0,sp,192
10002e98:	0180                	addi	s0,sp,192
10002e9a:	0180                	addi	s0,sp,192
10002e9c:	0180                	addi	s0,sp,192
10002e9e:	0180                	addi	s0,sp,192
10002ea0:	0180                	addi	s0,sp,192
10002ea2:	0180                	addi	s0,sp,192
10002ea4:	0180                	addi	s0,sp,192
10002ea6:	0180                	addi	s0,sp,192
10002ea8:	1ff8                	addi	a4,sp,1020
	...
10002ebe:	0000                	unimp
10002ec0:	3800                	fld	fs0,48(s0)
10002ec2:	3800                	fld	fs0,48(s0)
10002ec4:	3800                	fld	fs0,48(s0)
10002ec6:	0000                	unimp
10002ec8:	0000                	unimp
10002eca:	0000                	unimp
10002ecc:	1000                	addi	s0,sp,32
10002ece:	1f80                	addi	s0,sp,1008
10002ed0:	1800                	addi	s0,sp,48
10002ed2:	1800                	addi	s0,sp,48
10002ed4:	1800                	addi	s0,sp,48
10002ed6:	1800                	addi	s0,sp,48
10002ed8:	1800                	addi	s0,sp,48
10002eda:	1800                	addi	s0,sp,48
10002edc:	1800                	addi	s0,sp,48
10002ede:	1800                	addi	s0,sp,48
10002ee0:	1800                	addi	s0,sp,48
10002ee2:	1800                	addi	s0,sp,48
10002ee4:	1800                	addi	s0,sp,48
10002ee6:	1800                	addi	s0,sp,48
10002ee8:	1800                	addi	s0,sp,48
10002eea:	1800                	addi	s0,sp,48
10002eec:	1800                	addi	s0,sp,48
10002eee:	0c18                	addi	a4,sp,528
10002ef0:	0618                	addi	a4,sp,768
10002ef2:	03f0                	addi	a2,sp,460
	...
10002efc:	0000                	unimp
10002efe:	0010                	0x10
10002f00:	001e                	c.slli	zero,0x7
10002f02:	0018                	0x18
10002f04:	0018                	0x18
10002f06:	0018                	0x18
10002f08:	0018                	0x18
10002f0a:	0018                	0x18
10002f0c:	0018                	0x18
10002f0e:	3e18                	fld	fa4,56(a2)
10002f10:	0c18                	addi	a4,sp,528
10002f12:	0618                	addi	a4,sp,768
10002f14:	0318                	addi	a4,sp,384
10002f16:	0118                	addi	a4,sp,128
10002f18:	0198                	addi	a4,sp,192
10002f1a:	01d8                	addi	a4,sp,196
10002f1c:	0338                	addi	a4,sp,392
10002f1e:	0718                	addi	a4,sp,896
10002f20:	0618                	addi	a4,sp,768
10002f22:	0c18                	addi	a4,sp,528
10002f24:	1c18                	addi	a4,sp,560
10002f26:	1818                	addi	a4,sp,48
10002f28:	7c7e                	flw	fs8,252(sp)
	...
10002f3e:	0100                	addi	s0,sp,128
10002f40:	01f8                	addi	a4,sp,204
10002f42:	0180                	addi	s0,sp,192
10002f44:	0180                	addi	s0,sp,192
10002f46:	0180                	addi	s0,sp,192
10002f48:	0180                	addi	s0,sp,192
10002f4a:	0180                	addi	s0,sp,192
10002f4c:	0180                	addi	s0,sp,192
10002f4e:	0180                	addi	s0,sp,192
10002f50:	0180                	addi	s0,sp,192
10002f52:	0180                	addi	s0,sp,192
10002f54:	0180                	addi	s0,sp,192
10002f56:	0180                	addi	s0,sp,192
10002f58:	0180                	addi	s0,sp,192
10002f5a:	0180                	addi	s0,sp,192
10002f5c:	0180                	addi	s0,sp,192
10002f5e:	0180                	addi	s0,sp,192
10002f60:	0180                	addi	s0,sp,192
10002f62:	0180                	addi	s0,sp,192
10002f64:	0180                	addi	s0,sp,192
10002f66:	0180                	addi	s0,sp,192
10002f68:	1ff8                	addi	a4,sp,1020
	...
10002f8a:	0000                	unimp
10002f8c:	0008                	0x8
10002f8e:	1cee                	slli	s9,s9,0x3b
10002f90:	339c                	fld	fa5,32(a5)
10002f92:	318c                	fld	fa1,32(a1)
10002f94:	318c                	fld	fa1,32(a1)
10002f96:	318c                	fld	fa1,32(a1)
10002f98:	318c                	fld	fa1,32(a1)
10002f9a:	318c                	fld	fa1,32(a1)
10002f9c:	318c                	fld	fa1,32(a1)
10002f9e:	318c                	fld	fa1,32(a1)
10002fa0:	318c                	fld	fa1,32(a1)
10002fa2:	318c                	fld	fa1,32(a1)
10002fa4:	318c                	fld	fa1,32(a1)
10002fa6:	318c                	fld	fa1,32(a1)
10002fa8:	7bde                	flw	fs7,244(sp)
	...
10002fca:	0000                	unimp
10002fcc:	0010                	0x10
10002fce:	0f1e                	slli	t5,t5,0x7
10002fd0:	18d8                	addi	a4,sp,116
10002fd2:	3038                	fld	fa4,96(s0)
10002fd4:	3018                	fld	fa4,32(s0)
10002fd6:	3018                	fld	fa4,32(s0)
10002fd8:	3018                	fld	fa4,32(s0)
10002fda:	3018                	fld	fa4,32(s0)
10002fdc:	3018                	fld	fa4,32(s0)
10002fde:	3018                	fld	fa4,32(s0)
10002fe0:	3018                	fld	fa4,32(s0)
10002fe2:	3018                	fld	fa4,32(s0)
10002fe4:	3018                	fld	fa4,32(s0)
10002fe6:	3018                	fld	fa4,32(s0)
10002fe8:	fc7e                	fsw	ft11,56(sp)
	...
1000300e:	07c0                	addi	s0,sp,964
10003010:	1c70                	addi	a2,sp,572
10003012:	3010                	fld	fa2,32(s0)
10003014:	3018                	fld	fa4,32(s0)
10003016:	600c                	flw	fa1,0(s0)
10003018:	600c                	flw	fa1,0(s0)
1000301a:	600c                	flw	fa1,0(s0)
1000301c:	600c                	flw	fa1,0(s0)
1000301e:	600c                	flw	fa1,0(s0)
10003020:	600c                	flw	fa1,0(s0)
10003022:	3018                	fld	fa4,32(s0)
10003024:	3018                	fld	fa4,32(s0)
10003026:	1830                	addi	a2,sp,56
10003028:	07c0                	addi	s0,sp,964
	...
1000304a:	0000                	unimp
1000304c:	0010                	0x10
1000304e:	0f9e                	slli	t6,t6,0x7
10003050:	1858                	addi	a4,sp,52
10003052:	3038                	fld	fa4,96(s0)
10003054:	2018                	fld	fa4,0(s0)
10003056:	6018                	flw	fa4,0(s0)
10003058:	6018                	flw	fa4,0(s0)
1000305a:	6018                	flw	fa4,0(s0)
1000305c:	6018                	flw	fa4,0(s0)
1000305e:	6018                	flw	fa4,0(s0)
10003060:	6018                	flw	fa4,0(s0)
10003062:	3018                	fld	fa4,32(s0)
10003064:	3038                	fld	fa4,96(s0)
10003066:	1878                	addi	a4,sp,60
10003068:	0798                	addi	a4,sp,960
1000306a:	0018                	0x18
1000306c:	0018                	0x18
1000306e:	0018                	0x18
10003070:	0018                	0x18
10003072:	007e                	c.slli	zero,0x1f
	...
1000308c:	0000                	unimp
1000308e:	23c0                	fld	fs0,128(a5)
10003090:	3c30                	fld	fa2,120(s0)
10003092:	3818                	fld	fa4,48(s0)
10003094:	3018                	fld	fa4,32(s0)
10003096:	300c                	fld	fa1,32(s0)
10003098:	300c                	fld	fa1,32(s0)
1000309a:	300c                	fld	fa1,32(s0)
1000309c:	300c                	fld	fa1,32(s0)
1000309e:	300c                	fld	fa1,32(s0)
100030a0:	300c                	fld	fa1,32(s0)
100030a2:	3008                	fld	fa0,32(s0)
100030a4:	3818                	fld	fa4,48(s0)
100030a6:	3c30                	fld	fa2,120(s0)
100030a8:	33e0                	fld	fs0,224(a5)
100030aa:	3000                	fld	fs0,32(s0)
100030ac:	3000                	fld	fs0,32(s0)
100030ae:	3000                	fld	fs0,32(s0)
100030b0:	3000                	fld	fs0,32(s0)
100030b2:	fc00                	fsw	fs0,56(s0)
	...
100030cc:	0060                	addi	s0,sp,12
100030ce:	3c7e                	fld	fs8,504(sp)
100030d0:	6660                	flw	fs0,76(a2)
100030d2:	6160                	flw	fs0,68(a0)
100030d4:	00e0                	addi	s0,sp,76
100030d6:	00e0                	addi	s0,sp,76
100030d8:	0060                	addi	s0,sp,12
100030da:	0060                	addi	s0,sp,12
100030dc:	0060                	addi	s0,sp,12
100030de:	0060                	addi	s0,sp,12
100030e0:	0060                	addi	s0,sp,12
100030e2:	0060                	addi	s0,sp,12
100030e4:	0060                	addi	s0,sp,12
100030e6:	0060                	addi	s0,sp,12
100030e8:	07fe                	slli	a5,a5,0x1f
	...
1000310e:	27e0                	fld	fs0,200(a5)
10003110:	3830                	fld	fa2,112(s0)
10003112:	3018                	fld	fa4,32(s0)
10003114:	2018                	fld	fa4,0(s0)
10003116:	0018                	0x18
10003118:	0070                	addi	a2,sp,12
1000311a:	03e0                	addi	s0,sp,460
1000311c:	0f80                	addi	s0,sp,976
1000311e:	1c00                	addi	s0,sp,560
10003120:	3004                	fld	fs1,32(s0)
10003122:	3004                	fld	fs1,32(s0)
10003124:	300c                	fld	fa1,32(s0)
10003126:	181c                	addi	a5,sp,48
10003128:	0fec                	addi	a1,sp,988
	...
10003142:	0000                	unimp
10003144:	0080                	addi	s0,sp,64
10003146:	0080                	addi	s0,sp,64
10003148:	0080                	addi	s0,sp,64
1000314a:	00c0                	addi	s0,sp,68
1000314c:	00e0                	addi	s0,sp,76
1000314e:	1ffc                	addi	a5,sp,1020
10003150:	00c0                	addi	s0,sp,68
10003152:	00c0                	addi	s0,sp,68
10003154:	00c0                	addi	s0,sp,68
10003156:	00c0                	addi	s0,sp,68
10003158:	00c0                	addi	s0,sp,68
1000315a:	00c0                	addi	s0,sp,68
1000315c:	00c0                	addi	s0,sp,68
1000315e:	00c0                	addi	s0,sp,68
10003160:	00c0                	addi	s0,sp,68
10003162:	20c0                	fld	fs0,128(s1)
10003164:	20c0                	fld	fs0,128(s1)
10003166:	1180                	addi	s0,sp,224
10003168:	0f00                	addi	s0,sp,912
	...
1000318a:	0000                	unimp
1000318c:	2010                	fld	fa2,0(s0)
1000318e:	3c1e                	fld	fs8,480(sp)
10003190:	3018                	fld	fa4,32(s0)
10003192:	3018                	fld	fa4,32(s0)
10003194:	3018                	fld	fa4,32(s0)
10003196:	3018                	fld	fa4,32(s0)
10003198:	3018                	fld	fa4,32(s0)
1000319a:	3018                	fld	fa4,32(s0)
1000319c:	3018                	fld	fa4,32(s0)
1000319e:	3018                	fld	fa4,32(s0)
100031a0:	3018                	fld	fa4,32(s0)
100031a2:	3018                	fld	fa4,32(s0)
100031a4:	3818                	fld	fa4,48(s0)
100031a6:	f430                	fsw	fa2,104(s0)
100031a8:	13e0                	addi	s0,sp,492
	...
100031ce:	3c7e                	fld	fs8,504(sp)
100031d0:	1818                	addi	a4,sp,48
100031d2:	0818                	addi	a4,sp,16
100031d4:	0838                	addi	a4,sp,24
100031d6:	0430                	addi	a2,sp,520
100031d8:	0430                	addi	a2,sp,520
100031da:	0270                	addi	a2,sp,268
100031dc:	0260                	addi	s0,sp,268
100031de:	0260                	addi	s0,sp,268
100031e0:	01e0                	addi	s0,sp,204
100031e2:	01c0                	addi	s0,sp,196
100031e4:	01c0                	addi	s0,sp,196
100031e6:	00c0                	addi	s0,sp,68
100031e8:	0080                	addi	s0,sp,64
	...
1000320e:	f7df 638e 230c      	0x230c638ef7df
10003214:	238c                	fld	fa1,0(a5)
10003216:	238c                	fld	fa1,0(a5)
10003218:	1398                	addi	a4,sp,480
1000321a:	1398                	addi	a4,sp,480
1000321c:	1658                	addi	a4,sp,804
1000321e:	1658                	addi	a4,sp,804
10003220:	0e70                	addi	a2,sp,796
10003222:	0e70                	addi	a2,sp,796
10003224:	0e70                	addi	a2,sp,796
10003226:	0420                	addi	s0,sp,520
10003228:	0420                	addi	s0,sp,520
	...
1000324e:	3efc                	fld	fa5,248(a3)
10003250:	0870                	addi	a2,sp,28
10003252:	0470                	addi	a2,sp,524
10003254:	04e0                	addi	s0,sp,588
10003256:	02c0                	addi	s0,sp,324
10003258:	01c0                	addi	s0,sp,196
1000325a:	0380                	addi	s0,sp,448
1000325c:	0380                	addi	s0,sp,448
1000325e:	0740                	addi	s0,sp,900
10003260:	0660                	addi	s0,sp,780
10003262:	0c20                	addi	s0,sp,536
10003264:	0c10                	addi	a2,sp,528
10003266:	1818                	addi	a4,sp,48
10003268:	7e3e                	flw	ft8,236(sp)
	...
1000328e:	7c7e                	flw	fs8,252(sp)
10003290:	1818                	addi	a4,sp,48
10003292:	0818                	addi	a4,sp,16
10003294:	0830                	addi	a2,sp,24
10003296:	0830                	addi	a2,sp,24
10003298:	0430                	addi	a2,sp,520
1000329a:	0460                	addi	s0,sp,524
1000329c:	0460                	addi	s0,sp,524
1000329e:	02c0                	addi	s0,sp,324
100032a0:	02c0                	addi	s0,sp,324
100032a2:	02c0                	addi	s0,sp,324
100032a4:	0180                	addi	s0,sp,192
100032a6:	0180                	addi	s0,sp,192
100032a8:	0180                	addi	s0,sp,192
100032aa:	0080                	addi	s0,sp,64
100032ac:	0080                	addi	s0,sp,64
100032ae:	0080                	addi	s0,sp,64
100032b0:	004c                	addi	a1,sp,4
100032b2:	003c                	addi	a5,sp,8
	...
100032cc:	0000                	unimp
100032ce:	1ffc                	addi	a5,sp,1020
100032d0:	0c0c                	addi	a1,sp,528
100032d2:	0e04                	addi	s1,sp,784
100032d4:	0604                	addi	s1,sp,768
100032d6:	0300                	addi	s0,sp,384
100032d8:	0380                	addi	s0,sp,448
100032da:	0180                	addi	s0,sp,192
100032dc:	00c0                	addi	s0,sp,68
100032de:	00e0                	addi	s0,sp,76
100032e0:	2070                	fld	fa2,192(s0)
100032e2:	2030                	fld	fa2,64(s0)
100032e4:	3038                	fld	fa4,96(s0)
100032e6:	181c                	addi	a5,sp,48
100032e8:	1ffc                	addi	a5,sp,1020
	...
100032fa:	3000                	fld	fs0,32(s0)
100032fc:	0800                	addi	s0,sp,16
100032fe:	0400                	addi	s0,sp,512
10003300:	0400                	addi	s0,sp,512
10003302:	0400                	addi	s0,sp,512
10003304:	0400                	addi	s0,sp,512
10003306:	0400                	addi	s0,sp,512
10003308:	0400                	addi	s0,sp,512
1000330a:	0400                	addi	s0,sp,512
1000330c:	0400                	addi	s0,sp,512
1000330e:	0400                	addi	s0,sp,512
10003310:	0400                	addi	s0,sp,512
10003312:	0200                	addi	s0,sp,256
10003314:	0180                	addi	s0,sp,192
10003316:	0200                	addi	s0,sp,256
10003318:	0400                	addi	s0,sp,512
1000331a:	0400                	addi	s0,sp,512
1000331c:	0400                	addi	s0,sp,512
1000331e:	0400                	addi	s0,sp,512
10003320:	0400                	addi	s0,sp,512
10003322:	0400                	addi	s0,sp,512
10003324:	0400                	addi	s0,sp,512
10003326:	0400                	addi	s0,sp,512
10003328:	0400                	addi	s0,sp,512
1000332a:	0400                	addi	s0,sp,512
1000332c:	0400                	addi	s0,sp,512
1000332e:	0800                	addi	s0,sp,16
10003330:	3000                	fld	fs0,32(s0)
10003332:	0000                	unimp
10003334:	0100                	addi	s0,sp,128
10003336:	0100                	addi	s0,sp,128
10003338:	0100                	addi	s0,sp,128
1000333a:	0100                	addi	s0,sp,128
1000333c:	0100                	addi	s0,sp,128
1000333e:	0100                	addi	s0,sp,128
10003340:	0100                	addi	s0,sp,128
10003342:	0100                	addi	s0,sp,128
10003344:	0100                	addi	s0,sp,128
10003346:	0100                	addi	s0,sp,128
10003348:	0100                	addi	s0,sp,128
1000334a:	0100                	addi	s0,sp,128
1000334c:	0100                	addi	s0,sp,128
1000334e:	0100                	addi	s0,sp,128
10003350:	0100                	addi	s0,sp,128
10003352:	0100                	addi	s0,sp,128
10003354:	0100                	addi	s0,sp,128
10003356:	0100                	addi	s0,sp,128
10003358:	0100                	addi	s0,sp,128
1000335a:	0100                	addi	s0,sp,128
1000335c:	0100                	addi	s0,sp,128
1000335e:	0100                	addi	s0,sp,128
10003360:	0100                	addi	s0,sp,128
10003362:	0100                	addi	s0,sp,128
10003364:	0100                	addi	s0,sp,128
10003366:	0100                	addi	s0,sp,128
10003368:	0100                	addi	s0,sp,128
1000336a:	0100                	addi	s0,sp,128
1000336c:	0100                	addi	s0,sp,128
1000336e:	0100                	addi	s0,sp,128
10003370:	0100                	addi	s0,sp,128
10003372:	0100                	addi	s0,sp,128
10003374:	0000                	unimp
10003376:	0000                	unimp
10003378:	0000                	unimp
1000337a:	000c                	0xc
1000337c:	0010                	0x10
1000337e:	0020                	addi	s0,sp,8
10003380:	0020                	addi	s0,sp,8
10003382:	0020                	addi	s0,sp,8
10003384:	0020                	addi	s0,sp,8
10003386:	0020                	addi	s0,sp,8
10003388:	0020                	addi	s0,sp,8
1000338a:	0020                	addi	s0,sp,8
1000338c:	0020                	addi	s0,sp,8
1000338e:	0020                	addi	s0,sp,8
10003390:	0020                	addi	s0,sp,8
10003392:	0040                	addi	s0,sp,4
10003394:	0180                	addi	s0,sp,192
10003396:	0040                	addi	s0,sp,4
10003398:	0020                	addi	s0,sp,8
1000339a:	0020                	addi	s0,sp,8
1000339c:	0020                	addi	s0,sp,8
1000339e:	0020                	addi	s0,sp,8
100033a0:	0020                	addi	s0,sp,8
100033a2:	0020                	addi	s0,sp,8
100033a4:	0020                	addi	s0,sp,8
100033a6:	0020                	addi	s0,sp,8
100033a8:	0020                	addi	s0,sp,8
100033aa:	0020                	addi	s0,sp,8
100033ac:	0020                	addi	s0,sp,8
100033ae:	0010                	0x10
100033b0:	000c                	0xc
100033b2:	0000                	unimp
100033b4:	0000                	unimp
100033b6:	0038                	addi	a4,sp,8
100033b8:	00c4                	addi	s1,sp,68
100033ba:	4086                	lw	ra,64(sp)
100033bc:	6102                	flw	ft2,0(sp)
100033be:	2200                	fld	fs0,0(a2)
100033c0:	1c00                	addi	s0,sp,560
	...

100033f4 <gImage_1>:
100033f4:	bef7bef7          	0xbef7bef7
100033f8:	bef7bef7          	0xbef7bef7
100033fc:	bef7bef7          	0xbef7bef7
10003400:	bef7bef7          	0xbef7bef7
10003404:	bef7bef7          	0xbef7bef7
10003408:	bef7bef7          	0xbef7bef7
1000340c:	bef7bef7          	0xbef7bef7
10003410:	bef7bef7          	0xbef7bef7
10003414:	bef7bef7          	0xbef7bef7
10003418:	bef7bef7          	0xbef7bef7
1000341c:	bef7bef7          	0xbef7bef7
10003420:	bef7bef7          	0xbef7bef7
10003424:	bef7bef7          	0xbef7bef7
10003428:	bef7bef7          	0xbef7bef7
1000342c:	bef7bef7          	0xbef7bef7
10003430:	bef7bef7          	0xbef7bef7
10003434:	bef7bef7          	0xbef7bef7
10003438:	bef7bef7          	0xbef7bef7
1000343c:	bef7bef7          	0xbef7bef7
10003440:	bef7bef7          	0xbef7bef7
10003444:	bef7bef7          	0xbef7bef7
10003448:	bef7bef7          	0xbef7bef7
1000344c:	bef7bef7          	0xbef7bef7
10003450:	bef7bef7          	0xbef7bef7
10003454:	bef7bef7          	0xbef7bef7
10003458:	bef7bef7          	0xbef7bef7
1000345c:	bef7bef7          	0xbef7bef7
10003460:	bef7bef7          	0xbef7bef7
10003464:	bef7bef7          	0xbef7bef7
10003468:	bef7bef7          	0xbef7bef7
1000346c:	bef7bef7          	0xbef7bef7
10003470:	bef7bef7          	0xbef7bef7
10003474:	bef7bef7          	0xbef7bef7
10003478:	bef7bef7          	0xbef7bef7
1000347c:	bef7bef7          	0xbef7bef7
10003480:	bef7bef7          	0xbef7bef7
10003484:	bef7bef7          	0xbef7bef7
10003488:	bef7bef7          	0xbef7bef7
1000348c:	bef7bef7          	0xbef7bef7
10003490:	bef7bef7          	0xbef7bef7
10003494:	bef7bef7          	0xbef7bef7
10003498:	bef7bef7          	0xbef7bef7
1000349c:	bef7bef7          	0xbef7bef7
100034a0:	bef7bef7          	0xbef7bef7
100034a4:	bef7bef7          	0xbef7bef7
100034a8:	bef7bef7          	0xbef7bef7
100034ac:	bef7bef7          	0xbef7bef7
100034b0:	bef7bef7          	0xbef7bef7
100034b4:	bef7bef7          	0xbef7bef7
100034b8:	bef7bef7          	0xbef7bef7
100034bc:	bef7bef7          	0xbef7bef7
100034c0:	bef7bef7          	0xbef7bef7
100034c4:	bef7bef7          	0xbef7bef7
100034c8:	bef7bef7          	0xbef7bef7
100034cc:	bef7bef7          	0xbef7bef7
100034d0:	bef7bef7          	0xbef7bef7
100034d4:	bef7bef7          	0xbef7bef7
100034d8:	bef7bef7          	0xbef7bef7
100034dc:	bef7bef7          	0xbef7bef7
100034e0:	bef7bef7          	0xbef7bef7
100034e4:	bef7bef7          	0xbef7bef7
100034e8:	bef7bef7          	0xbef7bef7
100034ec:	bef7bef7          	0xbef7bef7
100034f0:	bef7bef7          	0xbef7bef7
100034f4:	bef7bef7          	0xbef7bef7
100034f8:	bef7bef7          	0xbef7bef7
100034fc:	bef7bef7          	0xbef7bef7
10003500:	bef7bef7          	0xbef7bef7
10003504:	bef7bef7          	0xbef7bef7
10003508:	bef7bef7          	0xbef7bef7
1000350c:	bef7bef7          	0xbef7bef7
10003510:	bef7bef7          	0xbef7bef7
10003514:	bef7bef7          	0xbef7bef7
10003518:	bef7bef7          	0xbef7bef7
1000351c:	bef7bef7          	0xbef7bef7
10003520:	bef7bef7          	0xbef7bef7
10003524:	bef7bef7          	0xbef7bef7
10003528:	bef7bef7          	0xbef7bef7
1000352c:	bef7bef7          	0xbef7bef7
10003530:	bef7bef7          	0xbef7bef7
10003534:	bef7bef7          	0xbef7bef7
10003538:	bef7bef7          	0xbef7bef7
1000353c:	bef7bef7          	0xbef7bef7
10003540:	bef7bef7          	0xbef7bef7
10003544:	bef7bef7          	0xbef7bef7
10003548:	bef7bef7          	0xbef7bef7
1000354c:	bef7bef7          	0xbef7bef7
10003550:	bef7bef7          	0xbef7bef7
10003554:	bef7bef7          	0xbef7bef7
10003558:	bef7bef7          	0xbef7bef7
1000355c:	3ce7bef7          	0x3ce7bef7
10003560:	dbdebef7          	0xdbdebef7
10003564:	bef71ce7          	0xbef71ce7
10003568:	bef7bef7          	0xbef7bef7
1000356c:	bef7bef7          	0xbef7bef7
10003570:	bef7bef7          	0xbef7bef7
10003574:	bef7bef7          	0xbef7bef7
10003578:	bef7bef7          	0xbef7bef7
1000357c:	bef7bef7          	0xbef7bef7
10003580:	bef7bef7          	0xbef7bef7
10003584:	bef7bef7          	0xbef7bef7
10003588:	bef7bef7          	0xbef7bef7
1000358c:	bef7bef7          	0xbef7bef7
10003590:	bef7bef7          	0xbef7bef7
10003594:	bef7bef7          	0xbef7bef7
10003598:	bef7bef7          	0xbef7bef7
1000359c:	bef7bef7          	0xbef7bef7
100035a0:	bef7bef7          	0xbef7bef7
100035a4:	bef7bef7          	0xbef7bef7
100035a8:	bef7bef7          	0xbef7bef7
100035ac:	99d6                	add	s3,s3,s5
100035ae:	f3a48d7b          	0xf3a48d7b
100035b2:	5def8d73          	0x5def8d73
100035b6:	bef7bef7          	0xbef7bef7
100035ba:	bef7bef7          	0xbef7bef7
100035be:	bef7bef7          	0xbef7bef7
100035c2:	bef7bef7          	0xbef7bef7
100035c6:	bef7bef7          	0xbef7bef7
100035ca:	bef7bef7          	0xbef7bef7
100035ce:	bef7bef7          	0xbef7bef7
100035d2:	bef7bef7          	0xbef7bef7
100035d6:	bef7bef7          	0xbef7bef7
100035da:	bef7bef7          	0xbef7bef7
100035de:	bef7bef7          	0xbef7bef7
100035e2:	f7bdbef7          	0xf7bdbef7
100035e6:	9294                	0x9294
100035e8:	6d738e73          	0x6d738e73
100035ec:	79ce                	flw	fs3,240(sp)
100035ee:	bef7bef7          	0xbef7bef7
100035f2:	79ce                	flw	fs3,240(sp)
100035f4:	34ad                	jal	1000305e <ascii_3216+0x142a>
100035f6:	54ad                	li	s1,-21
100035f8:	55ad                	li	a1,-21
100035fa:	55ad                	li	a1,-21
100035fc:	34ad                	jal	10003066 <ascii_3216+0x1432>
100035fe:	3ce77df7          	0x3ce77df7
10003602:	7194                	flw	fa3,32(a1)
10003604:	bef77def          	jal	s11,ff7b1f2 <_data_lma+0xff785e2>
10003608:	38cebef7          	0x38cebef7
1000360c:	1084ae7b          	0x1084ae7b
10003610:	f3a4                	fsw	fs1,96(a5)
10003612:	dbde                	sw	s7,244(sp)
10003614:	bef7bef7          	0xbef7bef7
10003618:	bef7bef7          	0xbef7bef7
1000361c:	bef7bef7          	0xbef7bef7
10003620:	bef7bef7          	0xbef7bef7
10003624:	bef7bef7          	0xbef7bef7
10003628:	bef7bef7          	0xbef7bef7
1000362c:	bef7bef7          	0xbef7bef7
10003630:	14a5bef7          	0x14a5bef7
10003634:	718c                	flw	fa1,32(a1)
10003636:	718c                	flw	fa1,32(a1)
10003638:	03290c63          	beq	s2,s2,10003670 <gImage_1+0x27c>
1000363c:	e328                	fsw	fa0,64(a4)
1000363e:	9194                	0x9194
10003640:	34ad                	jal	100030aa <ascii_3216+0x1476>
10003642:	bad6                	fsd	fs5,368(sp)
10003644:	ffff                	0xffff
10003646:	ffff                	0xffff
10003648:	ffff                	0xffff
1000364a:	ffff                	0xffff
1000364c:	ffff                	0xffff
1000364e:	ffff                	0xffff
10003650:	ffff                	0xffff
10003652:	55ad9ef7          	0x55ad9ef7
10003656:	34ad                	jal	100030c0 <ascii_3216+0x148c>
10003658:	f3a4                	fsw	fs1,96(a5)
1000365a:	c320                	sw	s0,64(a4)
1000365c:	6531                	lui	a0,0xc
1000365e:	b2946d6b          	0xb2946d6b
10003662:	59cecf7b          	0x59cecf7b
10003666:	bef7bef7          	0xbef7bef7
1000366a:	bef7bef7          	0xbef7bef7
1000366e:	bef7bef7          	0xbef7bef7
10003672:	bef7bef7          	0xbef7bef7
10003676:	bef7bef7          	0xbef7bef7
1000367a:	bef7bef7          	0xbef7bef7
1000367e:	7defbef7          	0x7defbef7
10003682:	9294ef83          	0x9294ef83
10003686:	85312c63          	0x85312c63
1000368a:	c220                	sw	s0,64(a2)
1000368c:	9ef78d73          	0x9ef78d73
10003690:	ffff                	0xffff
10003692:	ffff                	0xffff
10003694:	ffff                	0xffff
10003696:	ffff                	0xffff
10003698:	ffff                	0xffff
1000369a:	ffff                	0xffff
1000369c:	ffff                	0xffff
1000369e:	ffff                	0xffff
100036a0:	ffff                	0xffff
100036a2:	ffff                	0xffff
100036a4:	ffff                	0xffff
100036a6:	b29cbef7          	0xb29cbef7
100036aa:	2429                	jal	100038b4 <gImage_1+0x4c0>
100036ac:	c220                	sw	s0,64(a2)
100036ae:	e741                	bnez	a4,10003736 <gImage_1+0x342>
100036b0:	d39c8e73          	0xd39c8e73
100036b4:	308c                	fld	fa1,32(s1)
100036b6:	bef7bef7          	0xbef7bef7
100036ba:	bef7bef7          	0xbef7bef7
100036be:	bef7bef7          	0xbef7bef7
100036c2:	bef7bef7          	0xbef7bef7
100036c6:	bef7bef7          	0xbef7bef7
100036ca:	bef7bef7          	0xbef7bef7
100036ce:	79cebef7          	0x79cebef7
100036d2:	9294                	0x9294
100036d4:	a6394d6b          	0xa6394d6b
100036d8:	c320                	sw	s0,64(a4)
100036da:	f3a4                	fsw	fs1,96(a5)
100036dc:	ffff                	0xffff
100036de:	ffff                	0xffff
100036e0:	ffff                	0xffff
100036e2:	ffff                	0xffff
100036e4:	ffff                	0xffff
100036e6:	ffff                	0xffff
100036e8:	ffff                	0xffff
100036ea:	74ee                	flw	fs1,248(sp)
100036ec:	ffff3af7          	0xffff3af7
100036f0:	ffff                	0xffff
100036f2:	ffff                	0xffff
100036f4:	ffff                	0xffff
100036f6:	ffff                	0xffff
100036f8:	ffff                	0xffff
100036fa:	895a1ce7          	0x895a1ce7
100036fe:	c320                	sw	s0,64(a4)
10003700:	0842                	slli	a6,a6,0x10
10003702:	1084ae73          	csrrs	t3,0x108,s1
10003706:	bef79ef7          	0xbef79ef7
1000370a:	bef7bef7          	0xbef7bef7
1000370e:	bef7bef7          	0xbef7bef7
10003712:	bef7bef7          	0xbef7bef7
10003716:	bef7bef7          	0xbef7bef7
1000371a:	bef7bef7          	0xbef7bef7
1000371e:	59cebef7          	0x59cebef7
10003722:	cb5a                	sw	s6,148(sp)
10003724:	8531                	srai	a0,a0,0xc
10003726:	c220                	sw	s0,64(a2)
10003728:	f39c                	fsw	fa5,32(a5)
1000372a:	ffffbef7          	0xffffbef7
1000372e:	ffff                	0xffff
10003730:	ffff                	0xffff
10003732:	ffff                	0xffff
10003734:	5bf75af7          	0x5bf75af7
10003738:	ffff                	0xffff
1000373a:	0ded                	addi	s11,s11,27
1000373c:	95f6                	add	a1,a1,t4
1000373e:	ffff                	0xffff
10003740:	f8f6                	fsw	ft9,112(sp)
10003742:	bdff                	0xbdff
10003744:	ffff                	0xffff
10003746:	ffff                	0xffff
10003748:	ffff                	0xffff
1000374a:	dfff                	0xdfff
1000374c:	6d737def          	jal	s11,1003b622 <__freertos_irq_stack_top+0x33622>
10003750:	c320                	sw	s0,64(a4)
10003752:	e741                	bnez	a4,100037da <gImage_1+0x3e6>
10003754:	cb5a                	sw	s6,148(sp)
10003756:	bef79ef7          	0xbef79ef7
1000375a:	bef7bef7          	0xbef7bef7
1000375e:	bef7bef7          	0xbef7bef7
10003762:	bef7bef7          	0xbef7bef7
10003766:	bef7bef7          	0xbef7bef7
1000376a:	bef7bef7          	0xbef7bef7
1000376e:	7defbef7          	0x7defbef7
10003772:	2431                	jal	1000397e <gImage_1+0x58a>
10003774:	c220                	sw	s0,64(a2)
10003776:	1ce74d73          	0x1ce74d73
1000377a:	ffffbef7          	0xffffbef7
1000377e:	ffff                	0xffff
10003780:	ffff                	0xffff
10003782:	ffff                	0xffff
10003784:	0ded                	addi	s11,s11,27
10003786:	91ed                	srli	a1,a1,0x3b
10003788:	ffff                	0xffff
1000378a:	b7f794f7          	0xb7f794f7
1000378e:	ffff                	0xffff
10003790:	97f6e7e3          	bltu	a3,t6,100030fe <ascii_3216+0x14ca>
10003794:	ffff                	0xffff
10003796:	ffff                	0xffff
10003798:	ffff                	0xffff
1000379a:	dfff                	0xdfff
1000379c:	dbd67def          	jal	s11,ff6b558 <_data_lma+0xff68948>
100037a0:	cb62                	sw	s8,148(sp)
100037a2:	c220                	sw	s0,64(a2)
100037a4:	284a                	fld	fa6,144(sp)
100037a6:	bef7bef7          	0xbef7bef7
100037aa:	bef7bef7          	0xbef7bef7
100037ae:	bef7bef7          	0xbef7bef7
100037b2:	bef7bef7          	0xbef7bef7
100037b6:	bef7bef7          	0xbef7bef7
100037ba:	bef7bef7          	0xbef7bef7
100037be:	bef7bef7          	0xbef7bef7
100037c2:	34ad                	jal	1000322c <ascii_3216+0x15f8>
100037c4:	6539                	lui	a0,0xe
100037c6:	17be                	slli	a5,a5,0x2f
100037c8:	bef71ce7          	0xbef71ce7
100037cc:	ffff                	0xffff
100037ce:	ffff                	0xffff
100037d0:	ffff                	0xffff
100037d2:	ffff                	0xffff
100037d4:	b7f793ef          	jal	t2,ff7d352 <_data_lma+0xff7a742>
100037d8:	ffff                	0xffff
100037da:	b7f794f7          	0xb7f794f7
100037de:	ffff                	0xffff
100037e0:	daf771ef          	jal	gp,ff7b58e <_data_lma+0xff7897e>
100037e4:	ffff                	0xffff
100037e6:	ffff                	0xffff
100037e8:	ffff                	0xffff
100037ea:	dfff                	0xdfff
100037ec:	dbde7def          	jal	s11,ffeb5a8 <_data_lma+0xffe8998>
100037f0:	96b5                	srai	a3,a3,0x2d
100037f2:	8539                	srai	a0,a0,0xe
100037f4:	18c6                	slli	a7,a7,0x31
100037f6:	bef7bef7          	0xbef7bef7
100037fa:	bef7bef7          	0xbef7bef7
100037fe:	bef7bef7          	0xbef7bef7
10003802:	bef7bef7          	0xbef7bef7
10003806:	bef7bef7          	0xbef7bef7
1000380a:	bef7bef7          	0xbef7bef7
1000380e:	bef7bef7          	0xbef7bef7
10003812:	8e735cef          	jal	s9,ff390f8 <_data_lma+0xff364e8>
10003816:	38c6                	fld	fa7,112(sp)
10003818:	bef71ce7          	0xbef71ce7
1000381c:	ffff                	0xffff
1000381e:	ffff                	0xffff
10003820:	ffff                	0xffff
10003822:	ffff                	0xffff
10003824:	b7f794ef          	jal	s1,ff7d3a2 <_data_lma+0xff7a792>
10003828:	ffff                	0xffff
1000382a:	b7f794f7          	0xb7f794f7
1000382e:	ffff                	0xffff
10003830:	daff71ef          	jal	gp,fffb5de <_data_lma+0xfff89ce>
10003834:	ffff                	0xffff
10003836:	ffff                	0xffff
10003838:	ffff                	0xffff
1000383a:	dfff                	0xdfff
1000383c:	dbde7def          	jal	s11,ffeb5f8 <_data_lma+0xffe89e8>
10003840:	b6b5                	j	100033ac <ascii_3216+0x1778>
10003842:	5def4d6b          	0x5def4d6b
10003846:	bef7bef7          	0xbef7bef7
1000384a:	bef7bef7          	0xbef7bef7
1000384e:	bef7bef7          	0xbef7bef7
10003852:	bef7bef7          	0xbef7bef7
10003856:	bef7bef7          	0xbef7bef7
1000385a:	bef7bef7          	0xbef7bef7
1000385e:	bef7bef7          	0xbef7bef7
10003862:	14a5                	addi	s1,s1,-23
10003864:	518c                	lw	a1,32(a1)
10003866:	38c6                	fld	fa7,112(sp)
10003868:	bef71ce7          	0xbef71ce7
1000386c:	ffff                	0xffff
1000386e:	5defbef7          	0x5defbef7
10003872:	94efbef7          	0x94efbef7
10003876:	ffff96f7          	0xffff96f7
1000387a:	b7f794f7          	0xb7f794f7
1000387e:	feff                	0xfeff
10003880:	dbff70ef          	jal	ra,fffb63e <_data_lma+0xfff8a2e>
10003884:	5def9ef7          	0x5def9ef7
10003888:	dfff                	0xdfff
1000388a:	dfff                	0xdfff
1000388c:	dbde7def          	jal	s11,ffeb648 <_data_lma+0xffe8a38>
10003890:	b6b5                	j	100033fc <gImage_1+0x8>
10003892:	55adef7b          	0x55adef7b
10003896:	bef7bef7          	0xbef7bef7
1000389a:	bef7bef7          	0xbef7bef7
1000389e:	bef7bef7          	0xbef7bef7
100038a2:	bef7bef7          	0xbef7bef7
100038a6:	bef7bef7          	0xbef7bef7
100038aa:	bef7bef7          	0xbef7bef7
100038ae:	bef7bef7          	0xbef7bef7
100038b2:	718cce7b          	0x718cce7b
100038b6:	38c6                	fld	fa7,112(sp)
100038b8:	fbde                	fsw	fs7,244(sp)
100038ba:	38ce                	fld	fa7,240(sp)
100038bc:	b29c                	fsd	fa5,32(a3)
100038be:	c320                	sw	s0,64(a4)
100038c0:	c220                	sw	s0,64(a2)
100038c2:	c320                	sw	s0,64(a4)
100038c4:	6994                	flw	fa3,16(a1)
100038c6:	dfff54ef          	jal	s1,fff96c4 <_data_lma+0xfff6ab4>
100038ca:	b7f794f7          	0xb7f794f7
100038ce:	70ef9cf7          	0x70ef9cf7
100038d2:	254a                	fld	fa0,144(sp)
100038d4:	c220                	sw	s0,64(a2)
100038d6:	c220                	sw	s0,64(a2)
100038d8:	4531                	li	a0,12
100038da:	d7bd                	beqz	a5,10003848 <gImage_1+0x454>
100038dc:	38ce                	fld	fa7,240(sp)
100038de:	dbde                	sw	s7,244(sp)
100038e0:	b6b5                	j	1000344c <gImage_1+0x58>
100038e2:	1084                	addi	s1,sp,96
100038e4:	1084                	addi	s1,sp,96
100038e6:	bef7bef7          	0xbef7bef7
100038ea:	bef7bef7          	0xbef7bef7
100038ee:	bef7bef7          	0xbef7bef7
100038f2:	bef7bef7          	0xbef7bef7
100038f6:	bef7bef7          	0xbef7bef7
100038fa:	bef7bef7          	0xbef7bef7
100038fe:	bef7bef7          	0xbef7bef7
10003902:	eb62                	fsw	fs8,148(sp)
10003904:	718c                	flw	fa1,32(a1)
10003906:	b6b5                	j	10003472 <gImage_1+0x7e>
10003908:	eb62                	fsw	fs8,148(sp)
1000390a:	dfff                	0xdfff
1000390c:	b6b5                	j	10003478 <gImage_1+0x84>
1000390e:	c220                	sw	s0,64(a2)
10003910:	c220                	sw	s0,64(a2)
10003912:	c220                	sw	s0,64(a2)
10003914:	70d6c77b          	0x70d6c77b
10003918:	4852                	lw	a6,20(sp)
1000391a:	31c653ef          	jal	t2,10068c36 <__freertos_irq_stack_top+0x60c36>
1000391e:	e962                	fsw	fs8,144(sp)
10003920:	43316fef          	jal	t6,1001a552 <__freertos_irq_stack_top+0x12552>
10003924:	c220                	sw	s0,64(a2)
10003926:	c220                	sw	s0,64(a2)
10003928:	4531                	li	a0,12
1000392a:	dbde1ce7          	0xdbde1ce7
1000392e:	b6b50c6b          	0xb6b50c6b
10003932:	1084                	addi	s1,sp,96
10003934:	bef76d73          	csrrsi	s10,0xbef,14
10003938:	bef7bef7          	0xbef7bef7
1000393c:	bef7bef7          	0xbef7bef7
10003940:	bef7bef7          	0xbef7bef7
10003944:	bef7bef7          	0xbef7bef7
10003948:	bef7bef7          	0xbef7bef7
1000394c:	bef7bef7          	0xbef7bef7
10003950:	eb62bef7          	0xeb62bef7
10003954:	718c                	flw	fa1,32(a1)
10003956:	aa5a                	fsd	fs6,272(sp)
10003958:	c320                	sw	s0,64(a4)
1000395a:	e749                	bnez	a4,100039e4 <gImage_1+0x5f0>
1000395c:	c220                	sw	s0,64(a2)
1000395e:	c220                	sw	s0,64(a2)
10003960:	c220                	sw	s0,64(a2)
10003962:	c220                	sw	s0,64(a2)
10003964:	d0de8673          	0xd0de8673
10003968:	c220                	sw	s0,64(a2)
1000396a:	90d6                	add	ra,ra,s5
1000396c:	a85a8673          	0xa85a8673
10003970:	e3284fef          	jal	t6,ff87fa2 <_data_lma+0xff85392>
10003974:	c220                	sw	s0,64(a2)
10003976:	c220                	sw	s0,64(a2)
10003978:	c220                	sw	s0,64(a2)
1000397a:	0329                	addi	t1,t1,10
1000397c:	e741                	bnez	a4,10003a04 <gImage_1+0x610>
1000397e:	c220                	sw	s0,64(a2)
10003980:	1084ef83          	0x1084ef83
10003984:	bef74d6b          	0xbef74d6b
10003988:	bef7bef7          	0xbef7bef7
1000398c:	bef7bef7          	0xbef7bef7
10003990:	bef7bef7          	0xbef7bef7
10003994:	bef7bef7          	0xbef7bef7
10003998:	bef7bef7          	0xbef7bef7
1000399c:	bef7bef7          	0xbef7bef7
100039a0:	4d73bef7          	0x4d73bef7
100039a4:	718c                	flw	fa1,32(a1)
100039a6:	6539                	lui	a0,0xe
100039a8:	c220                	sw	s0,64(a2)
100039aa:	c220                	sw	s0,64(a2)
100039ac:	c220                	sw	s0,64(a2)
100039ae:	c220                	sw	s0,64(a2)
100039b0:	c220                	sw	s0,64(a2)
100039b2:	c220                	sw	s0,64(a2)
100039b4:	11e7256b          	0x11e7256b
100039b8:	c220                	sw	s0,64(a2)
100039ba:	90d6                	add	ra,ra,s5
100039bc:	086b8673          	0x86b8673
100039c0:	c2202ee7          	0xc2202ee7
100039c4:	c220                	sw	s0,64(a2)
100039c6:	c220                	sw	s0,64(a2)
100039c8:	c220                	sw	s0,64(a2)
100039ca:	c220                	sw	s0,64(a2)
100039cc:	c220                	sw	s0,64(a2)
100039ce:	c220                	sw	s0,64(a2)
100039d0:	ca5a                	sw	s6,20(sp)
100039d2:	1084                	addi	s1,sp,96
100039d4:	bef7ef83          	0xbef7ef83
100039d8:	bef7bef7          	0xbef7bef7
100039dc:	bef7bef7          	0xbef7bef7
100039e0:	bef7bef7          	0xbef7bef7
100039e4:	bef7bef7          	0xbef7bef7
100039e8:	bef7bef7          	0xbef7bef7
100039ec:	bef7bef7          	0xbef7bef7
100039f0:	518cbef7          	0x518cbef7
100039f4:	718c                	flw	fa1,32(a1)
100039f6:	b29c                	fsd	fa5,32(a3)
100039f8:	b29c                	fsd	fa5,32(a3)
100039fa:	b29c                	fsd	fa5,32(a3)
100039fc:	b29c                	fsd	fa5,32(a3)
100039fe:	b29c                	fsd	fa5,32(a3)
10003a00:	b29c                	fsd	fa5,32(a3)
10003a02:	b29c                	fsd	fa5,32(a3)
10003a04:	90b5                	srli	s1,s1,0x2d
10003a06:	b29c71ef          	jal	gp,ffcb52e <_data_lma+0xffc891e>
10003a0a:	cfbd32e7          	0xcfbd32e7
10003a0e:	d3bd                	beqz	a5,10003974 <gImage_1+0x580>
10003a10:	b29c2fe7          	0xb29c2fe7
10003a14:	b29c                	fsd	fa5,32(a3)
10003a16:	b29c                	fsd	fa5,32(a3)
10003a18:	b29c                	fsd	fa5,32(a3)
10003a1a:	b29c                	fsd	fa5,32(a3)
10003a1c:	b29c                	fsd	fa5,32(a3)
10003a1e:	b29c                	fsd	fa5,32(a3)
10003a20:	d39c                	sw	a5,32(a5)
10003a22:	34adef7b          	0x34adef7b
10003a26:	bef7bef7          	0xbef7bef7
10003a2a:	bef7bef7          	0xbef7bef7
10003a2e:	bef7bef7          	0xbef7bef7
10003a32:	bef7bef7          	0xbef7bef7
10003a36:	bef7bef7          	0xbef7bef7
10003a3a:	bef7bef7          	0xbef7bef7
10003a3e:	bef7bef7          	0xbef7bef7
10003a42:	18c6                	slli	a7,a7,0x31
10003a44:	1084                	addi	s1,sp,96
10003a46:	d7bd                	beqz	a5,100039b4 <gImage_1+0x5c0>
10003a48:	aa5a                	fsd	fs6,272(sp)
10003a4a:	4852                	lw	a6,20(sp)
10003a4c:	4852                	lw	a6,20(sp)
10003a4e:	4852                	lw	a6,20(sp)
10003a50:	4852                	lw	a6,20(sp)
10003a52:	4852                	lw	a6,20(sp)
10003a54:	71efa97b          	0x71efa97b
10003a58:	53ef2c6b          	0x53ef2c6b
10003a5c:	31c6                	fld	ft3,112(sp)
10003a5e:	ae9c                	fsd	fa5,24(a3)
10003a60:	cdd6                	sw	s5,216(sp)
10003a62:	4852                	lw	a6,20(sp)
10003a64:	4852                	lw	a6,20(sp)
10003a66:	4852                	lw	a6,20(sp)
10003a68:	4852                	lw	a6,20(sp)
10003a6a:	4852                	lw	a6,20(sp)
10003a6c:	4852                	lw	a6,20(sp)
10003a6e:	d6b58e7b          	0xd6b58e7b
10003a72:	3cef4d6b          	0x3cef4d6b
10003a76:	bef7bef7          	0xbef7bef7
10003a7a:	bef7bef7          	0xbef7bef7
10003a7e:	bef7bef7          	0xbef7bef7
10003a82:	bef7bef7          	0xbef7bef7
10003a86:	bef7bef7          	0xbef7bef7
10003a8a:	bef7bef7          	0xbef7bef7
10003a8e:	bef7bef7          	0xbef7bef7
10003a92:	ef83bef7          	0xef83bef7
10003a96:	38c6                	fld	fa7,112(sp)
10003a98:	59ce                	lw	s3,240(sp)
10003a9a:	e3280c6b          	0xe3280c6b
10003a9e:	c220                	sw	s0,64(a2)
10003aa0:	c220                	sw	s0,64(a2)
10003aa2:	c220                	sw	s0,64(a2)
10003aa4:	0329                	addi	t1,t1,10
10003aa6:	a439                	j	10003cb4 <gImage_1+0x8c0>
10003aa8:	e741                	bnez	a4,10003b30 <gImage_1+0x73c>
10003aaa:	0da5                	addi	s11,s11,9
10003aac:	6fad                	lui	t6,0xb
10003aae:	274a                	fld	fa4,144(sp)
10003ab0:	054a                	slli	a0,a0,0x12
10003ab2:	c220                	sw	s0,64(a2)
10003ab4:	c220                	sw	s0,64(a2)
10003ab6:	c220                	sw	s0,64(a2)
10003ab8:	c220                	sw	s0,64(a2)
10003aba:	4431                	li	s0,12
10003abc:	9ad6ef83          	0x9ad6ef83
10003ac0:	96b5                	srai	a3,a3,0x2d
10003ac2:	9294                	0x9294
10003ac4:	bef7bef7          	0xbef7bef7
10003ac8:	bef7bef7          	0xbef7bef7
10003acc:	bef7bef7          	0xbef7bef7
10003ad0:	bef7bef7          	0xbef7bef7
10003ad4:	bef7bef7          	0xbef7bef7
10003ad8:	bef7bef7          	0xbef7bef7
10003adc:	bef7bef7          	0xbef7bef7
10003ae0:	bef7bef7          	0xbef7bef7
10003ae4:	9ad6                	add	s5,s5,s5
10003ae6:	d29c                	sw	a5,32(a3)
10003ae8:	bef71ce7          	0xbef71ce7
10003aec:	9ad6                	add	s5,s5,s5
10003aee:	8639                	srai	a2,a2,0xe
10003af0:	c220                	sw	s0,64(a2)
10003af2:	c220                	sw	s0,64(a2)
10003af4:	c220                	sw	s0,64(a2)
10003af6:	c320                	sw	s0,64(a4)
10003af8:	c320                	sw	s0,64(a4)
10003afa:	c220                	sw	s0,64(a2)
10003afc:	c220                	sw	s0,64(a2)
10003afe:	0742                	slli	a4,a4,0x10
10003b00:	3ce77def          	jal	s11,1007aece <__freertos_irq_stack_top+0x72ece>
10003b04:	eb62                	fsw	fs8,148(sp)
10003b06:	c220                	sw	s0,64(a2)
10003b08:	e741                	bnez	a4,10003b90 <gImage_1+0x79c>
10003b0a:	dbde                	sw	s7,244(sp)
10003b0c:	dbde7def          	jal	s11,ffeb8c8 <_data_lma+0xffe8cb8>
10003b10:	308c                	fld	fa1,32(s1)
10003b12:	bef77def          	jal	s11,ff7b700 <_data_lma+0xff78af0>
10003b16:	bef7bef7          	0xbef7bef7
10003b1a:	bef7bef7          	0xbef7bef7
10003b1e:	bef7bef7          	0xbef7bef7
10003b22:	bef7bef7          	0xbef7bef7
10003b26:	bef7bef7          	0xbef7bef7
10003b2a:	bef7bef7          	0xbef7bef7
10003b2e:	bef7bef7          	0xbef7bef7
10003b32:	bef7bef7          	0xbef7bef7
10003b36:	f7c5                	bnez	a5,10003ade <gImage_1+0x6ea>
10003b38:	14a5                	addi	s1,s1,-23
10003b3a:	d7bd                	beqz	a5,10003aa8 <gImage_1+0x6b4>
10003b3c:	2429                	jal	10003d46 <gImage_1+0x952>
10003b3e:	c220                	sw	s0,64(a2)
10003b40:	c220                	sw	s0,64(a2)
10003b42:	e320                	fsw	fs0,64(a4)
10003b44:	f3a4                	fsw	fs1,96(a5)
10003b46:	96b5bef7          	0x96b5bef7
10003b4a:	2429                	jal	10003d54 <gImage_1+0x960>
10003b4c:	0329                	addi	t1,t1,10
10003b4e:	084a                	slli	a6,a6,0x12
10003b50:	ffff7def          	jal	s11,fffbb4e <_data_lma+0xfff8f3e>
10003b54:	3084                	fld	fs1,32(s1)
10003b56:	c220                	sw	s0,64(a2)
10003b58:	c220                	sw	s0,64(a2)
10003b5a:	2431                	jal	10003d66 <gImage_1+0x972>
10003b5c:	d6bd                	beqz	a3,10003aca <gImage_1+0x6d6>
10003b5e:	f3a4                	fsw	fs1,96(a5)
10003b60:	79ce                	flw	fs3,240(sp)
10003b62:	bef7bef7          	0xbef7bef7
10003b66:	bef7bef7          	0xbef7bef7
10003b6a:	bef7bef7          	0xbef7bef7
10003b6e:	bef7bef7          	0xbef7bef7
10003b72:	bef7bef7          	0xbef7bef7
10003b76:	bef7bef7          	0xbef7bef7
10003b7a:	bef7bef7          	0xbef7bef7
10003b7e:	bef7bef7          	0xbef7bef7
10003b82:	bef7bef7          	0xbef7bef7
10003b86:	55ad                	li	a1,-21
10003b88:	6952                	flw	fs2,20(sp)
10003b8a:	e328                	fsw	fa0,64(a4)
10003b8c:	c220                	sw	s0,64(a2)
10003b8e:	c220                	sw	s0,64(a2)
10003b90:	c220                	sw	s0,64(a2)
10003b92:	4431                	li	s0,12
10003b94:	bad6                	fsd	fs5,368(sp)
10003b96:	ffff                	0xffff
10003b98:	d7bd                	beqz	a5,10003b06 <gImage_1+0x712>
10003b9a:	9294                	0x9294
10003b9c:	7194                	flw	fa3,32(a1)
10003b9e:	c220                	sw	s0,64(a2)
10003ba0:	0329                	addi	t1,t1,10
10003ba2:	4952                	lw	s2,20(sp)
10003ba4:	0429                	addi	s0,s0,10
10003ba6:	c220                	sw	s0,64(a2)
10003ba8:	c220                	sw	s0,64(a2)
10003baa:	c220                	sw	s0,64(a2)
10003bac:	0429                	addi	s0,s0,10
10003bae:	284a                	fld	fa6,144(sp)
10003bb0:	96b5                	srai	a3,a3,0x2d
10003bb2:	bef7bef7          	0xbef7bef7
10003bb6:	bef7bef7          	0xbef7bef7
10003bba:	bef7bef7          	0xbef7bef7
10003bbe:	bef7bef7          	0xbef7bef7
10003bc2:	bef7bef7          	0xbef7bef7
10003bc6:	bef7bef7          	0xbef7bef7
10003bca:	bef7bef7          	0xbef7bef7
10003bce:	bef7bef7          	0xbef7bef7
10003bd2:	bef7bef7          	0xbef7bef7
10003bd6:	e7416d73          	csrrsi	s10,0xe74,2
10003bda:	c220                	sw	s0,64(a2)
10003bdc:	c220                	sw	s0,64(a2)
10003bde:	c220                	sw	s0,64(a2)
10003be0:	c220                	sw	s0,64(a2)
10003be2:	c220                	sw	s0,64(a2)
10003be4:	e741                	bnez	a4,10003c6c <gImage_1+0x878>
10003be6:	084a                	slli	a6,a6,0x12
10003be8:	55ad8e7b          	0x55ad8e7b
10003bec:	b6bd                	j	1000375a <gImage_1+0x366>
10003bee:	c2200b6b          	0xc2200b6b
10003bf2:	c220                	sw	s0,64(a2)
10003bf4:	c220                	sw	s0,64(a2)
10003bf6:	c220                	sw	s0,64(a2)
10003bf8:	c220                	sw	s0,64(a2)
10003bfa:	c220                	sw	s0,64(a2)
10003bfc:	c220                	sw	s0,64(a2)
10003bfe:	a639                	j	10003f0c <gImage_1+0xb18>
10003c00:	bef7ae7b          	0xbef7ae7b
10003c04:	bef7bef7          	0xbef7bef7
10003c08:	bef7bef7          	0xbef7bef7
10003c0c:	bef7bef7          	0xbef7bef7
10003c10:	bef7bef7          	0xbef7bef7
10003c14:	bef7bef7          	0xbef7bef7
10003c18:	bef7bef7          	0xbef7bef7
10003c1c:	bef7bef7          	0xbef7bef7
10003c20:	bef7bef7          	0xbef7bef7
10003c24:	8a52bef7          	0x8a52bef7
10003c28:	e741                	bnez	a4,10003cb0 <gImage_1+0x8bc>
10003c2a:	c220                	sw	s0,64(a2)
10003c2c:	c220                	sw	s0,64(a2)
10003c2e:	c220                	sw	s0,64(a2)
10003c30:	c220                	sw	s0,64(a2)
10003c32:	c220                	sw	s0,64(a2)
10003c34:	2431                	jal	10003e40 <gImage_1+0xa4c>
10003c36:	b6bd                	j	100037a4 <gImage_1+0x3b0>
10003c38:	ffff9ef7          	0xffff9ef7
10003c3c:	ffff                	0xffff
10003c3e:	b6bd9ef7          	0xb6bd9ef7
10003c42:	4531                	li	a0,12
10003c44:	c220                	sw	s0,64(a2)
10003c46:	c220                	sw	s0,64(a2)
10003c48:	c220                	sw	s0,64(a2)
10003c4a:	c220                	sw	s0,64(a2)
10003c4c:	c220                	sw	s0,64(a2)
10003c4e:	a639                	j	10003f5c <gImage_1+0xb68>
10003c50:	ca5a                	sw	s6,20(sp)
10003c52:	bef7bef7          	0xbef7bef7
10003c56:	bef7bef7          	0xbef7bef7
10003c5a:	bef7bef7          	0xbef7bef7
10003c5e:	bef7bef7          	0xbef7bef7
10003c62:	bef7bef7          	0xbef7bef7
10003c66:	bef7bef7          	0xbef7bef7
10003c6a:	bef7bef7          	0xbef7bef7
10003c6e:	bef7bef7          	0xbef7bef7
10003c72:	bef7bef7          	0xbef7bef7
10003c76:	8a52                	mv	s4,s4
10003c78:	aa5a8e73          	0xaa5a8e73
10003c7c:	284a                	fld	fa6,144(sp)
10003c7e:	8952                	mv	s2,s4
10003c80:	38c6ef83          	0x38c6ef83
10003c84:	96b51ce7          	0x96b51ce7
10003c88:	55ad                	li	a1,-21
10003c8a:	55ad                	li	a1,-21
10003c8c:	55ad                	li	a1,-21
10003c8e:	55ad                	li	a1,-21
10003c90:	55ad                	li	a1,-21
10003c92:	59ce                	lw	s3,240(sp)
10003c94:	f7c5                	bnez	a5,10003c3c <gImage_1+0x848>
10003c96:	284aae7b          	0x284aae7b
10003c9a:	c741                	beqz	a4,10003d22 <gImage_1+0x92e>
10003c9c:	4952                	lw	s2,20(sp)
10003c9e:	ca5a2c63          	0xca5a2c63
10003ca2:	bef7bef7          	0xbef7bef7
10003ca6:	bef7bef7          	0xbef7bef7
10003caa:	bef7bef7          	0xbef7bef7
10003cae:	bef7bef7          	0xbef7bef7
10003cb2:	bef7bef7          	0xbef7bef7
10003cb6:	bef7bef7          	0xbef7bef7
10003cba:	bef7bef7          	0xbef7bef7
10003cbe:	bef7bef7          	0xbef7bef7
10003cc2:	bef7bef7          	0xbef7bef7
10003cc6:	ae736d73          	csrrsi	s10,0xae7,6
10003cca:	d39c                	sw	a5,32(a5)
10003ccc:	f7bd                	bnez	a5,10003c3a <gImage_1+0x846>
10003cce:	fbde                	fsw	fs7,244(sp)
10003cd0:	ffffbef7          	0xffffbef7
10003cd4:	ffff                	0xffff
10003cd6:	ffff                	0xffff
10003cd8:	ffff                	0xffff
10003cda:	ffff                	0xffff
10003cdc:	ffff                	0xffff
10003cde:	ffff                	0xffff
10003ce0:	ffff                	0xffff
10003ce2:	ffff                	0xffff
10003ce4:	ffff                	0xffff
10003ce6:	9ad69ef7          	0x9ad69ef7
10003cea:	75ad                	lui	a1,0xfffeb
10003cec:	518c                	lw	a1,32(a1)
10003cee:	8e7b4d6b          	0x8e7b4d6b
10003cf2:	bef7bef7          	0xbef7bef7
10003cf6:	bef7bef7          	0xbef7bef7
10003cfa:	bef7bef7          	0xbef7bef7
10003cfe:	bef7bef7          	0xbef7bef7
10003d02:	bef7bef7          	0xbef7bef7
10003d06:	bef7bef7          	0xbef7bef7
10003d0a:	bef7bef7          	0xbef7bef7
10003d0e:	bef7bef7          	0xbef7bef7
10003d12:	9294bef7          	0x9294bef7
10003d16:	a639                	j	10004024 <gImage_1+0xc30>
10003d18:	d39c8e73          	0xd39c8e73
10003d1c:	f7bd                	bnez	a5,10003c8a <gImage_1+0x896>
10003d1e:	fbde                	fsw	fs7,244(sp)
10003d20:	ffffbef7          	0xffffbef7
10003d24:	ffff                	0xffff
10003d26:	ffff                	0xffff
10003d28:	ffff                	0xffff
10003d2a:	ffff                	0xffff
10003d2c:	ffff                	0xffff
10003d2e:	ffff                	0xffff
10003d30:	ffff                	0xffff
10003d32:	ffff                	0xffff
10003d34:	ffff                	0xffff
10003d36:	9ad69ef7          	0x9ad69ef7
10003d3a:	75ad                	lui	a1,0xfffeb
10003d3c:	518c                	lw	a1,32(a1)
10003d3e:	c7410c63          	beq	sp,s4,100031b6 <ascii_3216+0x1582>
10003d42:	d7bd                	beqz	a5,10003cb0 <gImage_1+0x8bc>
10003d44:	bef7bef7          	0xbef7bef7
10003d48:	bef7bef7          	0xbef7bef7
10003d4c:	bef7bef7          	0xbef7bef7
10003d50:	bef7bef7          	0xbef7bef7
10003d54:	bef7bef7          	0xbef7bef7
10003d58:	bef7bef7          	0xbef7bef7
10003d5c:	bef7bef7          	0xbef7bef7
10003d60:	3ce7bef7          	0x3ce7bef7
10003d64:	e741                	bnez	a4,10003dec <gImage_1+0x9f8>
10003d66:	aa5a                	fsd	fs6,272(sp)
10003d68:	e741                	bnez	a4,10003df0 <gImage_1+0x9fc>
10003d6a:	d39c                	sw	a5,32(a5)
10003d6c:	f7bd                	bnez	a5,10003cda <gImage_1+0x8e6>
10003d6e:	fbde                	fsw	fs7,244(sp)
10003d70:	ffffbef7          	0xffffbef7
10003d74:	ffff                	0xffff
10003d76:	ffff                	0xffff
10003d78:	ffff                	0xffff
10003d7a:	ffff                	0xffff
10003d7c:	ffff                	0xffff
10003d7e:	ffff                	0xffff
10003d80:	ffff                	0xffff
10003d82:	ffff                	0xffff
10003d84:	ffff                	0xffff
10003d86:	9ad69ef7          	0x9ad69ef7
10003d8a:	75ad                	lui	a1,0xfffeb
10003d8c:	518c                	lw	a1,32(a1)
10003d8e:	a639                	j	1000409c <gImage_1+0xca8>
10003d90:	c220                	sw	s0,64(a2)
10003d92:	284a                	fld	fa6,144(sp)
10003d94:	bef7bef7          	0xbef7bef7
10003d98:	bef7bef7          	0xbef7bef7
10003d9c:	bef7bef7          	0xbef7bef7
10003da0:	bef7bef7          	0xbef7bef7
10003da4:	bef7bef7          	0xbef7bef7
10003da8:	bef7bef7          	0xbef7bef7
10003dac:	bef7bef7          	0xbef7bef7
10003db0:	7defbef7          	0x7defbef7
10003db4:	7194                	flw	fa3,32(a1)
10003db6:	e3289ef7          	0xe3289ef7
10003dba:	cb5a                	sw	s6,148(sp)
10003dbc:	f7bd                	bnez	a5,10003d2a <gImage_1+0x936>
10003dbe:	fbde                	fsw	fs7,244(sp)
10003dc0:	ffffbef7          	0xffffbef7
10003dc4:	ffff                	0xffff
10003dc6:	ffff                	0xffff
10003dc8:	ffff                	0xffff
10003dca:	ffff                	0xffff
10003dcc:	ffff                	0xffff
10003dce:	ffff                	0xffff
10003dd0:	ffff                	0xffff
10003dd2:	ffff                	0xffff
10003dd4:	ffff                	0xffff
10003dd6:	9ad69ef7          	0x9ad69ef7
10003dda:	75ad                	lui	a1,0xfffeb
10003ddc:	6952                	flw	fs2,20(sp)
10003dde:	c220                	sw	s0,64(a2)
10003de0:	c220                	sw	s0,64(a2)
10003de2:	6952                	flw	fs2,20(sp)
10003de4:	bef7bef7          	0xbef7bef7
10003de8:	bef7bef7          	0xbef7bef7
10003dec:	bef7bef7          	0xbef7bef7
10003df0:	bef7bef7          	0xbef7bef7
10003df4:	bef7bef7          	0xbef7bef7
10003df8:	bef7bef7          	0xbef7bef7
10003dfc:	bef7bef7          	0xbef7bef7
10003e00:	bef7bef7          	0xbef7bef7
10003e04:	308c4c6b          	0x308c4c6b
10003e08:	c320                	sw	s0,64(a4)
10003e0a:	c220                	sw	s0,64(a2)
10003e0c:	6952                	flw	fs2,20(sp)
10003e0e:	59ce                	lw	s3,240(sp)
10003e10:	ffffbef7          	0xffffbef7
10003e14:	ffff                	0xffff
10003e16:	ffff                	0xffff
10003e18:	ffff                	0xffff
10003e1a:	ffff                	0xffff
10003e1c:	ffff                	0xffff
10003e1e:	ffff                	0xffff
10003e20:	ffff                	0xffff
10003e22:	ffff                	0xffff
10003e24:	ffff                	0xffff
10003e26:	f7bd9ef7          	0xf7bd9ef7
10003e2a:	284a                	fld	fa6,144(sp)
10003e2c:	c220                	sw	s0,64(a2)
10003e2e:	c220                	sw	s0,64(a2)
10003e30:	c220                	sw	s0,64(a2)
10003e32:	9294                	0x9294
10003e34:	bef7bef7          	0xbef7bef7
10003e38:	bef7bef7          	0xbef7bef7
10003e3c:	bef7bef7          	0xbef7bef7
10003e40:	bef7bef7          	0xbef7bef7
10003e44:	bef7bef7          	0xbef7bef7
10003e48:	bef7bef7          	0xbef7bef7
10003e4c:	bef7bef7          	0xbef7bef7
10003e50:	bef7bef7          	0xbef7bef7
10003e54:	d7bd                	beqz	a5,10003dc2 <gImage_1+0x9ce>
10003e56:	c220                	sw	s0,64(a2)
10003e58:	c220                	sw	s0,64(a2)
10003e5a:	c220                	sw	s0,64(a2)
10003e5c:	c220                	sw	s0,64(a2)
10003e5e:	0429                	addi	s0,s0,10
10003e60:	badeef83          	0xbadeef83
10003e64:	ffff                	0xffff
10003e66:	ffff                	0xffff
10003e68:	ffff                	0xffff
10003e6a:	ffff                	0xffff
10003e6c:	ffff                	0xffff
10003e6e:	ffff                	0xffff
10003e70:	ffff                	0xffff
10003e72:	ffff                	0xffff
10003e74:	bad6                	fsd	fs5,368(sp)
10003e76:	e328ae7b          	0xe328ae7b
10003e7a:	c220                	sw	s0,64(a2)
10003e7c:	c220                	sw	s0,64(a2)
10003e7e:	c220                	sw	s0,64(a2)
10003e80:	2431                	jal	1000408c <gImage_1+0xc98>
10003e82:	bef75def          	jal	s11,ff79a70 <_data_lma+0xff76e60>
10003e86:	bef7bef7          	0xbef7bef7
10003e8a:	bef7bef7          	0xbef7bef7
10003e8e:	bef7bef7          	0xbef7bef7
10003e92:	bef7bef7          	0xbef7bef7
10003e96:	bef7bef7          	0xbef7bef7
10003e9a:	bef7bef7          	0xbef7bef7
10003e9e:	bef7bef7          	0xbef7bef7
10003ea2:	7defbef7          	0x7defbef7
10003ea6:	8a5a                	mv	s4,s6
10003ea8:	c220                	sw	s0,64(a2)
10003eaa:	c220                	sw	s0,64(a2)
10003eac:	c220                	sw	s0,64(a2)
10003eae:	c220                	sw	s0,64(a2)
10003eb0:	c220                	sw	s0,64(a2)
10003eb2:	8a5a                	mv	s4,s6
10003eb4:	34ad                	jal	1000391e <gImage_1+0x52a>
10003eb6:	54ad                	li	s1,-21
10003eb8:	55ad                	li	a1,-21
10003eba:	55ad                	li	a1,-21
10003ebc:	55ad                	li	a1,-21
10003ebe:	55ad                	li	a1,-21
10003ec0:	54ad                	li	s1,-21
10003ec2:	34ad                	jal	1000392c <gImage_1+0x538>
10003ec4:	eb62                	fsw	fs8,148(sp)
10003ec6:	e741                	bnez	a4,10003f4e <gImage_1+0xb5a>
10003ec8:	c220                	sw	s0,64(a2)
10003eca:	c220                	sw	s0,64(a2)
10003ecc:	c220                	sw	s0,64(a2)
10003ece:	c220                	sw	s0,64(a2)
10003ed0:	5194                	lw	a3,32(a1)
10003ed2:	bef79ef7          	0xbef79ef7
10003ed6:	bef7bef7          	0xbef7bef7
10003eda:	bef7bef7          	0xbef7bef7
10003ede:	bef7bef7          	0xbef7bef7
10003ee2:	bef7bef7          	0xbef7bef7
10003ee6:	bef7bef7          	0xbef7bef7
10003eea:	bef7bef7          	0xbef7bef7
10003eee:	bef7bef7          	0xbef7bef7
10003ef2:	14a5                	addi	s1,s1,-23
10003ef4:	e328                	fsw	fa0,64(a4)
10003ef6:	c220                	sw	s0,64(a2)
10003ef8:	c220                	sw	s0,64(a2)
10003efa:	c220                	sw	s0,64(a2)
10003efc:	c220                	sw	s0,64(a2)
10003efe:	c220                	sw	s0,64(a2)
10003f00:	c220                	sw	s0,64(a2)
10003f02:	2431                	jal	1000410e <gImage_1+0xd1a>
10003f04:	bef7bef7          	0xbef7bef7
10003f08:	bef7bef7          	0xbef7bef7
10003f0c:	bef7bef7          	0xbef7bef7
10003f10:	38cebef7          	0x38cebef7
10003f14:	929c7def          	jal	s11,ffcb83c <_data_lma+0xffc8c2c>
10003f18:	c220                	sw	s0,64(a2)
10003f1a:	c220                	sw	s0,64(a2)
10003f1c:	c220                	sw	s0,64(a2)
10003f1e:	c220                	sw	s0,64(a2)
10003f20:	c220                	sw	s0,64(a2)
10003f22:	6539                	lui	a0,0xe
10003f24:	9ad6                	add	s5,s5,s5
10003f26:	bef7bef7          	0xbef7bef7
10003f2a:	bef7bef7          	0xbef7bef7
10003f2e:	bef7bef7          	0xbef7bef7
10003f32:	bef7bef7          	0xbef7bef7
10003f36:	bef7bef7          	0xbef7bef7
10003f3a:	bef7bef7          	0xbef7bef7
10003f3e:	bef7bef7          	0xbef7bef7
10003f42:	c3202c6b          	0xc3202c6b
10003f46:	c320                	sw	s0,64(a4)
10003f48:	c320                	sw	s0,64(a4)
10003f4a:	c320                	sw	s0,64(a4)
10003f4c:	c320                	sw	s0,64(a4)
10003f4e:	c320                	sw	s0,64(a4)
10003f50:	c320                	sw	s0,64(a4)
10003f52:	e320                	fsw	fs0,64(a4)
10003f54:	bef79ef7          	0xbef79ef7
10003f58:	bef7bef7          	0xbef7bef7
10003f5c:	bef7bef7          	0xbef7bef7
10003f60:	b6bdbef7          	0xb6bdbef7
10003f64:	518c                	lw	a1,32(a1)
10003f66:	a639                	j	10004274 <__clz_tab+0xd0>
10003f68:	c320                	sw	s0,64(a4)
10003f6a:	c320                	sw	s0,64(a4)
10003f6c:	c320                	sw	s0,64(a4)
10003f6e:	c320                	sw	s0,64(a4)
10003f70:	c320                	sw	s0,64(a4)
10003f72:	c320                	sw	s0,64(a4)
10003f74:	14a5                	addi	s1,s1,-23
10003f76:	bef7bef7          	0xbef7bef7
10003f7a:	bef7bef7          	0xbef7bef7
10003f7e:	bef7bef7          	0xbef7bef7
10003f82:	bef7bef7          	0xbef7bef7
10003f86:	bef7bef7          	0xbef7bef7
10003f8a:	bef7bef7          	0xbef7bef7
10003f8e:	bef7bef7          	0xbef7bef7
10003f92:	bef7bef7          	0xbef7bef7
10003f96:	bef7bef7          	0xbef7bef7
10003f9a:	bef7bef7          	0xbef7bef7
10003f9e:	bef7bef7          	0xbef7bef7
10003fa2:	bef7bef7          	0xbef7bef7
10003fa6:	bef7bef7          	0xbef7bef7
10003faa:	bef7bef7          	0xbef7bef7
10003fae:	bef7bef7          	0xbef7bef7
10003fb2:	bef7bef7          	0xbef7bef7
10003fb6:	bef7bef7          	0xbef7bef7
10003fba:	bef7bef7          	0xbef7bef7
10003fbe:	bef7bef7          	0xbef7bef7
10003fc2:	bef7bef7          	0xbef7bef7
10003fc6:	bef7bef7          	0xbef7bef7
10003fca:	bef7bef7          	0xbef7bef7
10003fce:	bef7bef7          	0xbef7bef7
10003fd2:	bef7bef7          	0xbef7bef7
10003fd6:	bef7bef7          	0xbef7bef7
10003fda:	bef7bef7          	0xbef7bef7
10003fde:	bef7bef7          	0xbef7bef7
10003fe2:	bef7bef7          	0xbef7bef7
10003fe6:	bef7bef7          	0xbef7bef7
10003fea:	bef7bef7          	0xbef7bef7
10003fee:	bef7bef7          	0xbef7bef7
10003ff2:	bef7bef7          	0xbef7bef7
10003ff6:	bef7bef7          	0xbef7bef7
10003ffa:	bef7bef7          	0xbef7bef7
10003ffe:	bef7bef7          	0xbef7bef7
10004002:	bef7bef7          	0xbef7bef7
10004006:	bef7bef7          	0xbef7bef7
1000400a:	bef7bef7          	0xbef7bef7
1000400e:	bef7bef7          	0xbef7bef7
10004012:	bef7bef7          	0xbef7bef7
10004016:	bef7bef7          	0xbef7bef7
1000401a:	bef7bef7          	0xbef7bef7
1000401e:	bef7bef7          	0xbef7bef7
10004022:	bef7bef7          	0xbef7bef7
10004026:	bef7bef7          	0xbef7bef7
1000402a:	bef7bef7          	0xbef7bef7
1000402e:	bef7bef7          	0xbef7bef7
10004032:	bef7bef7          	0xbef7bef7
10004036:	bef7bef7          	0xbef7bef7
1000403a:	bef7bef7          	0xbef7bef7
1000403e:	bef7bef7          	0xbef7bef7
10004042:	bef7bef7          	0xbef7bef7
10004046:	bef7bef7          	0xbef7bef7
1000404a:	bef7bef7          	0xbef7bef7
1000404e:	bef7bef7          	0xbef7bef7
10004052:	bef7bef7          	0xbef7bef7
10004056:	bef7bef7          	0xbef7bef7
1000405a:	bef7bef7          	0xbef7bef7
1000405e:	bef7bef7          	0xbef7bef7
10004062:	bef7bef7          	0xbef7bef7
10004066:	bef7bef7          	0xbef7bef7
1000406a:	bef7bef7          	0xbef7bef7
1000406e:	bef7bef7          	0xbef7bef7
10004072:	0000bef7          	0xbef7
10004076:	0000                	unimp
10004078:	4155                	li	sp,21
1000407a:	5452                	lw	s0,52(sp)
1000407c:	6920                	flw	fs0,80(a0)
1000407e:	696e                	flw	fs2,216(sp)
10004080:	6974                	flw	fa3,84(a0)
10004082:	6c61                	lui	s8,0x18
10004084:	6320                	flw	fs0,64(a4)
10004086:	6c706d6f          	jal	s10,1000af4c <__freertos_irq_stack_top+0x2f4c>
1000408a:	7465                	lui	s0,0xffff9
1000408c:	0a65                	addi	s4,s4,25
1000408e:	0000                	unimp
10004090:	454c                	lw	a1,12(a0)
10004092:	2044                	fld	fs1,128(s0)
10004094:	6e69                	lui	t3,0x1a
10004096:	7469                	lui	s0,0xffffa
10004098:	6169                	addi	sp,sp,208
1000409a:	206c                	fld	fa1,192(s0)
1000409c:	706d6f63          	bltu	s10,t1,100047ba <_end+0x50a>
100040a0:	656c                	flw	fa1,76(a0)
100040a2:	6574                	flw	fa3,76(a0)
100040a4:	000a                	c.slli	zero,0x2
100040a6:	0000                	unimp
100040a8:	20495053          	0x20495053
100040ac:	6e69                	lui	t3,0x1a
100040ae:	7469                	lui	s0,0xffffa
100040b0:	6169                	addi	sp,sp,208
100040b2:	206c                	fld	fa1,192(s0)
100040b4:	706d6f63          	bltu	s10,t1,100047d2 <_end+0x522>
100040b8:	656c                	flw	fa1,76(a0)
100040ba:	6574                	flw	fa3,76(a0)
100040bc:	000a                	c.slli	zero,0x2
100040be:	0000                	unimp
100040c0:	434c                	lw	a1,4(a4)
100040c2:	2044                	fld	fs1,128(s0)
100040c4:	6e69                	lui	t3,0x1a
100040c6:	7469                	lui	s0,0xffffa
100040c8:	6169                	addi	sp,sp,208
100040ca:	206c                	fld	fa1,192(s0)
100040cc:	706d6f63          	bltu	s10,t1,100047ea <_end+0x53a>
100040d0:	656c                	flw	fa1,76(a0)
100040d2:	6574                	flw	fa3,76(a0)
100040d4:	000a                	c.slli	zero,0x2
100040d6:	0000                	unimp
100040d8:	434c                	lw	a1,4(a4)
100040da:	5f44                	lw	s1,60(a4)
100040dc:	00003a57          	0x3a57
100040e0:	434c                	lw	a1,4(a4)
100040e2:	5f44                	lw	s1,60(a4)
100040e4:	3a48                	fld	fa0,176(a2)
100040e6:	0000                	unimp
100040e8:	6e49                	lui	t3,0x12
100040ea:	61657263          	bgeu	a0,s6,100046ee <_end+0x43e>
100040ee:	6e696573          	csrrsi	a0,0x6e6,18
100040f2:	754e2067          	0x754e2067
100040f6:	3a6e                	fld	fs4,248(sp)
100040f8:	0000                	unimp
100040fa:	0000                	unimp
100040fc:	0000                	unimp
100040fe:	42c8                	lw	a0,4(a3)
10004100:	b645a1cb          	fnmsub.q	ft3,fa1,ft4,fs6,rdn
10004104:	3fd4fdf3          	csrrci	s11,0x3fd,9
10004108:	1878                	addi	a4,sp,60
1000410a:	0000                	unimp
1000410c:	1858                	addi	a4,sp,52
1000410e:	0000                	unimp
10004110:	1890                	addi	a2,sp,112
10004112:	0000                	unimp
10004114:	18a8                	addi	a0,sp,120
10004116:	0000                	unimp
10004118:	18a8                	addi	a0,sp,120
1000411a:	0000                	unimp
1000411c:	18a8                	addi	a0,sp,120
1000411e:	0000                	unimp
10004120:	18a8                	addi	a0,sp,120
10004122:	0000                	unimp
10004124:	18a8                	addi	a0,sp,120
10004126:	0000                	unimp
10004128:	18a8                	addi	a0,sp,120
1000412a:	0000                	unimp
1000412c:	18a8                	addi	a0,sp,120
1000412e:	0000                	unimp
10004130:	18a8                	addi	a0,sp,120
10004132:	0000                	unimp
10004134:	18a8                	addi	a0,sp,120
10004136:	0000                	unimp
10004138:	18a8                	addi	a0,sp,120
1000413a:	0000                	unimp
1000413c:	1884                	addi	s1,sp,112
1000413e:	0000                	unimp
10004140:	18a8                	addi	a0,sp,120
10004142:	0000                	unimp
10004144:	18a8                	addi	a0,sp,120
10004146:	0000                	unimp
10004148:	18a8                	addi	a0,sp,120
1000414a:	0000                	unimp
1000414c:	17c4                	addi	s1,sp,996
1000414e:	0000                	unimp
10004150:	18a8                	addi	a0,sp,120
10004152:	0000                	unimp
10004154:	1890                	addi	a2,sp,112
10004156:	0000                	unimp
10004158:	18a8                	addi	a0,sp,120
1000415a:	0000                	unimp
1000415c:	18a8                	addi	a0,sp,120
1000415e:	0000                	unimp
10004160:	189c                	addi	a5,sp,112
10004162:	0000                	unimp
10004164:	e564                	fsw	fs1,76(a0)
10004166:	efff                	0xefff
10004168:	e464                	fsw	fs1,76(s0)
1000416a:	efff                	0xefff
1000416c:	e464                	fsw	fs1,76(s0)
1000416e:	efff                	0xefff
10004170:	e460                	fsw	fs0,76(s0)
10004172:	efff                	0xefff
10004174:	e46c                	fsw	fa1,76(s0)
10004176:	efff                	0xefff
10004178:	e46c                	fsw	fa1,76(s0)
1000417a:	efff                	0xefff
1000417c:	e414                	fsw	fa3,8(s0)
1000417e:	efff                	0xefff
10004180:	e460                	fsw	fs0,76(s0)
10004182:	efff                	0xefff
10004184:	e46c                	fsw	fa1,76(s0)
10004186:	efff                	0xefff
10004188:	e414                	fsw	fa3,8(s0)
1000418a:	efff                	0xefff
1000418c:	e46c                	fsw	fa1,76(s0)
1000418e:	efff                	0xefff
10004190:	e460                	fsw	fs0,76(s0)
10004192:	efff                	0xefff
10004194:	e548                	fsw	fa0,12(a0)
10004196:	efff                	0xefff
10004198:	e548                	fsw	fa0,12(a0)
1000419a:	efff                	0xefff
1000419c:	e548                	fsw	fa0,12(a0)
1000419e:	efff                	0xefff
100041a0:	e414                	fsw	fa3,8(s0)
100041a2:	efff                	0xefff

100041a4 <__clz_tab>:
100041a4:	0100                	addi	s0,sp,128
100041a6:	0202                	c.slli64	tp
100041a8:	03030303          	lb	t1,48(t1)
100041ac:	0404                	addi	s1,sp,512
100041ae:	0404                	addi	s1,sp,512
100041b0:	0404                	addi	s1,sp,512
100041b2:	0404                	addi	s1,sp,512
100041b4:	0505                	addi	a0,a0,1
100041b6:	0505                	addi	a0,a0,1
100041b8:	0505                	addi	a0,a0,1
100041ba:	0505                	addi	a0,a0,1
100041bc:	0505                	addi	a0,a0,1
100041be:	0505                	addi	a0,a0,1
100041c0:	0505                	addi	a0,a0,1
100041c2:	0505                	addi	a0,a0,1
100041c4:	0606                	slli	a2,a2,0x1
100041c6:	0606                	slli	a2,a2,0x1
100041c8:	0606                	slli	a2,a2,0x1
100041ca:	0606                	slli	a2,a2,0x1
100041cc:	0606                	slli	a2,a2,0x1
100041ce:	0606                	slli	a2,a2,0x1
100041d0:	0606                	slli	a2,a2,0x1
100041d2:	0606                	slli	a2,a2,0x1
100041d4:	0606                	slli	a2,a2,0x1
100041d6:	0606                	slli	a2,a2,0x1
100041d8:	0606                	slli	a2,a2,0x1
100041da:	0606                	slli	a2,a2,0x1
100041dc:	0606                	slli	a2,a2,0x1
100041de:	0606                	slli	a2,a2,0x1
100041e0:	0606                	slli	a2,a2,0x1
100041e2:	0606                	slli	a2,a2,0x1
100041e4:	07070707          	0x7070707
100041e8:	07070707          	0x7070707
100041ec:	07070707          	0x7070707
100041f0:	07070707          	0x7070707
100041f4:	07070707          	0x7070707
100041f8:	07070707          	0x7070707
100041fc:	07070707          	0x7070707
10004200:	07070707          	0x7070707
10004204:	07070707          	0x7070707
10004208:	07070707          	0x7070707
1000420c:	07070707          	0x7070707
10004210:	07070707          	0x7070707
10004214:	07070707          	0x7070707
10004218:	07070707          	0x7070707
1000421c:	07070707          	0x7070707
10004220:	07070707          	0x7070707
10004224:	0808                	addi	a0,sp,16
10004226:	0808                	addi	a0,sp,16
10004228:	0808                	addi	a0,sp,16
1000422a:	0808                	addi	a0,sp,16
1000422c:	0808                	addi	a0,sp,16
1000422e:	0808                	addi	a0,sp,16
10004230:	0808                	addi	a0,sp,16
10004232:	0808                	addi	a0,sp,16
10004234:	0808                	addi	a0,sp,16
10004236:	0808                	addi	a0,sp,16
10004238:	0808                	addi	a0,sp,16
1000423a:	0808                	addi	a0,sp,16
1000423c:	0808                	addi	a0,sp,16
1000423e:	0808                	addi	a0,sp,16
10004240:	0808                	addi	a0,sp,16
10004242:	0808                	addi	a0,sp,16
10004244:	0808                	addi	a0,sp,16
10004246:	0808                	addi	a0,sp,16
10004248:	0808                	addi	a0,sp,16
1000424a:	0808                	addi	a0,sp,16
1000424c:	0808                	addi	a0,sp,16
1000424e:	0808                	addi	a0,sp,16
10004250:	0808                	addi	a0,sp,16
10004252:	0808                	addi	a0,sp,16
10004254:	0808                	addi	a0,sp,16
10004256:	0808                	addi	a0,sp,16
10004258:	0808                	addi	a0,sp,16
1000425a:	0808                	addi	a0,sp,16
1000425c:	0808                	addi	a0,sp,16
1000425e:	0808                	addi	a0,sp,16
10004260:	0808                	addi	a0,sp,16
10004262:	0808                	addi	a0,sp,16
10004264:	0808                	addi	a0,sp,16
10004266:	0808                	addi	a0,sp,16
10004268:	0808                	addi	a0,sp,16
1000426a:	0808                	addi	a0,sp,16
1000426c:	0808                	addi	a0,sp,16
1000426e:	0808                	addi	a0,sp,16
10004270:	0808                	addi	a0,sp,16
10004272:	0808                	addi	a0,sp,16
10004274:	0808                	addi	a0,sp,16
10004276:	0808                	addi	a0,sp,16
10004278:	0808                	addi	a0,sp,16
1000427a:	0808                	addi	a0,sp,16
1000427c:	0808                	addi	a0,sp,16
1000427e:	0808                	addi	a0,sp,16
10004280:	0808                	addi	a0,sp,16
10004282:	0808                	addi	a0,sp,16
10004284:	0808                	addi	a0,sp,16
10004286:	0808                	addi	a0,sp,16
10004288:	0808                	addi	a0,sp,16
1000428a:	0808                	addi	a0,sp,16
1000428c:	0808                	addi	a0,sp,16
1000428e:	0808                	addi	a0,sp,16
10004290:	0808                	addi	a0,sp,16
10004292:	0808                	addi	a0,sp,16
10004294:	0808                	addi	a0,sp,16
10004296:	0808                	addi	a0,sp,16
10004298:	0808                	addi	a0,sp,16
1000429a:	0808                	addi	a0,sp,16
1000429c:	0808                	addi	a0,sp,16
1000429e:	0808                	addi	a0,sp,16
100042a0:	0808                	addi	a0,sp,16
100042a2:	0808                	addi	a0,sp,16
100042a4:	0000                	unimp
	...

Disassembly of section .bss:

100042a8 <__bss_start>:
100042a8:	0000                	unimp
	...

100042ac <xfunc_out>:
100042ac:	0000                	unimp
	...

Disassembly of section .stack:

10006000 <__freertos_irq_stack_top-0x2000>:
	...

Disassembly of section .comment:

00000000 <.comment>:
   0:	3a434347          	fmsub.d	ft6,ft6,ft4,ft7,rmm
   4:	2820                	fld	fs0,80(s0)
   6:	20554e47          	fmsub.s	ft8,fa0,ft5,ft4,rmm
   a:	434d                	li	t1,19
   c:	2055                	jal	b0 <trap_entry+0x48>
   e:	6345                	lui	t1,0x11
  10:	696c                	flw	fa1,84(a0)
  12:	7370                	flw	fa2,100(a4)
  14:	2065                	jal	bc <trap_entry+0x54>
  16:	4952                	lw	s2,20(sp)
  18:	562d4353          	0x562d4353
  1c:	4520                	lw	s0,72(a0)
  1e:	626d                	lui	tp,0x1b
  20:	6465                	lui	s0,0x19
  22:	6564                	flw	fs1,76(a0)
  24:	2064                	fld	fs1,192(s0)
  26:	2c434347          	0x2c434347
  2a:	3620                	fld	fs0,104(a2)
  2c:	2d34                	fld	fa3,88(a0)
  2e:	6962                	flw	fs2,24(sp)
  30:	2974                	fld	fa3,208(a0)
  32:	3820                	fld	fs0,112(s0)
  34:	322e                	fld	ft4,232(sp)
  36:	302e                	fld	ft0,232(sp)
	...

Disassembly of section .debug_frame:

00000000 <.debug_frame>:
   0:	000c                	0xc
   2:	0000                	unimp
   4:	ffff                	0xffff
   6:	ffff                	0xffff
   8:	0001                	nop
   a:	7c01                	lui	s8,0xfffe0
   c:	0d01                	addi	s10,s10,0
   e:	0002                	c.slli64	zero
  10:	0030                	addi	a2,sp,8
  12:	0000                	unimp
  14:	0000                	unimp
  16:	0000                	unimp
  18:	1c1c                	addi	a5,sp,560
  1a:	0000                	unimp
  1c:	0884                	addi	s1,sp,80
  1e:	0000                	unimp
  20:	0e48                	addi	a0,sp,788
  22:	5020                	lw	s0,96(s0)
  24:	0389                	addi	t2,t2,2
  26:	9370                	0x9370
  28:	8105                	srli	a0,a0,0x1
  2a:	8801                	andi	s0,s0,0
  2c:	9202                	jalr	tp
  2e:	0304                	addi	s1,sp,384
  30:	0160                	addi	s0,sp,140
  32:	c10a                	sw	sp,128(sp)
  34:	c844                	sw	s1,20(s0)
  36:	c954                	sw	a3,20(a0)
  38:	d244                	sw	s1,36(a2)
  3a:	d344                	sw	s1,36(a4)
  3c:	0e4c                	addi	a1,sp,788
  3e:	4400                	lw	s0,8(s0)
  40:	0000000b          	0xb
  44:	000c                	0xc
  46:	0000                	unimp
  48:	ffff                	0xffff
  4a:	ffff                	0xffff
  4c:	0001                	nop
  4e:	7c01                	lui	s8,0xfffe0
  50:	0d01                	addi	s10,s10,0
  52:	0002                	c.slli64	zero
  54:	003c                	addi	a5,sp,8
  56:	0000                	unimp
  58:	0044                	addi	s1,sp,4
  5a:	0000                	unimp
  5c:	24a0                	fld	fs0,72(s1)
  5e:	0000                	unimp
  60:	0384                	addi	s1,sp,448
  62:	0000                	unimp
  64:	0e44                	addi	s1,sp,788
  66:	4430                	lw	a2,72(s0)
  68:	0288                	addi	a0,sp,320
  6a:	934c                	0x934c
  6c:	9405                	srai	s0,s0,0x21
  6e:	5806                	lw	a6,96(sp)
  70:	0181                	addi	gp,gp,0
  72:	0389                	addi	t2,t2,2
  74:	0492                	slli	s1,s1,0x4
  76:	0795                	addi	a5,a5,5
  78:	0896                	slli	a7,a7,0x5
  7a:	bc02                	fsd	ft0,56(sp)
  7c:	c10a                	sw	sp,128(sp)
  7e:	c844                	sw	s1,20(s0)
  80:	c958                	sw	a4,20(a0)
  82:	d244                	sw	s1,36(a2)
  84:	d344                	sw	s1,36(a4)
  86:	d444                	sw	s1,44(s0)
  88:	d544                	sw	s1,44(a0)
  8a:	d644                	sw	s1,44(a2)
  8c:	0e48                	addi	a0,sp,788
  8e:	4400                	lw	s0,8(s0)
  90:	0000000b          	0xb
  94:	000c                	0xc
  96:	0000                	unimp
  98:	ffff                	0xffff
  9a:	ffff                	0xffff
  9c:	0001                	nop
  9e:	7c01                	lui	s8,0xfffe0
  a0:	0d01                	addi	s10,s10,0
  a2:	0002                	c.slli64	zero
  a4:	000c                	0xc
  a6:	0000                	unimp
  a8:	0094                	addi	a3,sp,64
  aa:	0000                	unimp
  ac:	2824                	fld	fs1,80(s0)
  ae:	0000                	unimp
  b0:	0064                	addi	s1,sp,12
  b2:	0000                	unimp
  b4:	000c                	0xc
  b6:	0000                	unimp
  b8:	ffff                	0xffff
  ba:	ffff                	0xffff
  bc:	0001                	nop
  be:	7c01                	lui	s8,0xfffe0
  c0:	0d01                	addi	s10,s10,0
  c2:	0002                	c.slli64	zero
  c4:	0024                	addi	s1,sp,8
  c6:	0000                	unimp
  c8:	00b4                	addi	a3,sp,72
  ca:	0000                	unimp
  cc:	2888                	fld	fa0,16(s1)
  ce:	0000                	unimp
  d0:	0100                	addi	s0,sp,128
  d2:	0000                	unimp
  d4:	0e4c                	addi	a1,sp,788
  d6:	4c10                	lw	a2,24(s0)
  d8:	0288                	addi	a0,sp,320
  da:	0389                	addi	t2,t2,2
  dc:	8148                	0x8148
  de:	7801                	lui	a6,0xfffe0
  e0:	c10a                	sw	sp,128(sp)
  e2:	c848                	sw	a0,20(s0)
  e4:	c944                	sw	s1,20(a0)
  e6:	0e48                	addi	a0,sp,788
  e8:	4400                	lw	s0,8(s0)
  ea:	000c000b          	0xc000b
  ee:	0000                	unimp
  f0:	ffff                	0xffff
  f2:	ffff                	0xffff
  f4:	0001                	nop
  f6:	7c01                	lui	s8,0xfffe0
  f8:	0d01                	addi	s10,s10,0
  fa:	0002                	c.slli64	zero
  fc:	000c                	0xc
  fe:	0000                	unimp
 100:	00ec                	addi	a1,sp,76
 102:	0000                	unimp
 104:	2988                	fld	fa0,16(a1)
 106:	0000                	unimp
 108:	01f4                	addi	a3,sp,204
 10a:	0000                	unimp
 10c:	000c                	0xc
 10e:	0000                	unimp
 110:	ffff                	0xffff
 112:	ffff                	0xffff
 114:	0001                	nop
 116:	7c01                	lui	s8,0xfffe0
 118:	0d01                	addi	s10,s10,0
 11a:	0002                	c.slli64	zero
 11c:	000c                	0xc
 11e:	0000                	unimp
 120:	010c                	addi	a1,sp,128
 122:	0000                	unimp
 124:	2b7c                	fld	fa5,208(a4)
 126:	0000                	unimp
 128:	0094                	addi	a3,sp,64
	...
